Archive member included because of file (symbol)

contiki-srf06-cc26xx.a(contiki-main.o)
                              obj_srf06-cc26xx/startup_gcc.o (main)
contiki-srf06-cc26xx.a(sensors.o)
                              contiki-srf06-cc26xx.a(contiki-main.o) (sensors_process)
contiki-srf06-cc26xx.a(leds.o)
                              contiki-srf06-cc26xx.a(contiki-main.o) (leds_off)
contiki-srf06-cc26xx.a(board.o)
                              contiki-srf06-cc26xx.a(contiki-main.o) (board_init)
contiki-srf06-cc26xx.a(launchpad-senso)
                              contiki-srf06-cc26xx.a(sensors.o) (sensors)
contiki-srf06-cc26xx.a(leds-arch.o)
                              contiki-srf06-cc26xx.a(leds.o) (leds_arch_init)
contiki-srf06-cc26xx.a(button-sensor.o)
                              contiki-srf06-cc26xx.a(launchpad-senso) (button_left_sensor)
contiki-srf06-cc26xx.a(ext-flash.o)
                              contiki-srf06-cc26xx.a(board.o) (ext_flash_init)
contiki-srf06-cc26xx.a(board-spi.o)
                              contiki-srf06-cc26xx.a(ext-flash.o) (board_spi_write)
contiki-srf06-cc26xx.a(prop-mode.o)
                              contiki-srf06-cc26xx.a(contiki-main.o) (prop_mode_driver)
contiki-srf06-cc26xx.a(prop-mode-tx-po)
                              contiki-srf06-cc26xx.a(prop-mode.o) (prop_mode_tx_power_779_930)
contiki-srf06-cc26xx.a(clock.o)
                              contiki-srf06-cc26xx.a(contiki-main.o) (clock_init)
contiki-srf06-cc26xx.a(rtimer-arch.o)
                              broadcast-example.co (rtimer_arch_now)
contiki-srf06-cc26xx.a(soc-rtc.o)
                              contiki-srf06-cc26xx.a(rtimer-arch.o) (soc_rtc_schedule_one_shot)
contiki-srf06-cc26xx.a(contiki-watchdo)
                              contiki-srf06-cc26xx.a(contiki-main.o) (watchdog_init)
contiki-srf06-cc26xx.a(putchar.o)
                              broadcast-example.co (putchar)
contiki-srf06-cc26xx.a(ieee-addr.o)
                              contiki-srf06-cc26xx.a(contiki-main.o) (ieee_addr_cpy_to)
contiki-srf06-cc26xx.a(cc26xx-uart.o)
                              contiki-srf06-cc26xx.a(putchar.o) (cc26xx_uart_write_byte)
contiki-srf06-cc26xx.a(lpm.o)
                              contiki-srf06-cc26xx.a(prop-mode.o) (lpm_sleep)
contiki-srf06-cc26xx.a(gpio-interrupt.)
                              contiki-srf06-cc26xx.a(contiki-main.o) (gpio_interrupt_init)
contiki-srf06-cc26xx.a(oscillators.o)
                              contiki-srf06-cc26xx.a(prop-mode.o) (oscillators_request_hf_xosc)
contiki-srf06-cc26xx.a(rf-core.o)
                              contiki-srf06-cc26xx.a(prop-mode.o) (rf_core_is_accessible)
contiki-srf06-cc26xx.a(rf-ble.o)
                              contiki-srf06-cc26xx.a(prop-mode.o) (rf_ble_is_active)
contiki-srf06-cc26xx.a(random.o)
                              contiki-srf06-cc26xx.a(contiki-main.o) (random_init)
contiki-srf06-cc26xx.a(soc-trng.o)
                              contiki-srf06-cc26xx.a(random.o) (soc_trng_init)
contiki-srf06-cc26xx.a(dbg-printf.o)
                              broadcast-example.co (printf)
contiki-srf06-cc26xx.a(strformat.o)
                              contiki-srf06-cc26xx.a(dbg-printf.o) (format_str_v)
contiki-srf06-cc26xx.a(autostart.o)
                              contiki-srf06-cc26xx.a(contiki-main.o) (autostart_start)
contiki-srf06-cc26xx.a(ctimer.o)
                              contiki-srf06-cc26xx.a(contiki-main.o) (ctimer_init)
contiki-srf06-cc26xx.a(energest.o)
                              contiki-srf06-cc26xx.a(contiki-main.o) (energest_init)
contiki-srf06-cc26xx.a(etimer.o)
                              broadcast-example.co (etimer_expired)
contiki-srf06-cc26xx.a(process.o)
                              contiki-srf06-cc26xx.a(sensors.o) (process_alloc_event)
contiki-srf06-cc26xx.a(rtimer.o)
                              contiki-srf06-cc26xx.a(soc-rtc.o) (rtimer_run_next)
contiki-srf06-cc26xx.a(timer.o)
                              contiki-srf06-cc26xx.a(etimer.o) (timer_reset)
contiki-srf06-cc26xx.a(serial-line.o)
                              contiki-srf06-cc26xx.a(contiki-main.o) (serial_line_init)
contiki-srf06-cc26xx.a(list.o)
                              contiki-srf06-cc26xx.a(lpm.o) (list_init)
contiki-srf06-cc26xx.a(ringbuf.o)
                              contiki-srf06-cc26xx.a(serial-line.o) (ringbuf_init)
contiki-srf06-cc26xx.a(sicslowpan.o)
                              contiki-srf06-cc26xx.a(contiki-main.o) (sicslowpan_driver)
contiki-srf06-cc26xx.a(uip6.o)
                              contiki-srf06-cc26xx.a(sicslowpan.o) (uip_aligned_buf)
contiki-srf06-cc26xx.a(uip-ds6.o)
                              contiki-srf06-cc26xx.a(uip6.o) (uip_ds6_if)
contiki-srf06-cc26xx.a(uip-ds6-nbr.o)
                              contiki-srf06-cc26xx.a(sicslowpan.o) (uip_ds6_link_neighbor_callback)
contiki-srf06-cc26xx.a(uip-ds6-route.o)
                              contiki-srf06-cc26xx.a(uip-ds6.o) (uip_ds6_defrt_periodic)
contiki-srf06-cc26xx.a(uip-icmp6.o)
                              contiki-srf06-cc26xx.a(uip6.o) (uip_icmp6_input)
contiki-srf06-cc26xx.a(uip-nd6.o)
                              contiki-srf06-cc26xx.a(uip6.o) (uip_nd6_init)
contiki-srf06-cc26xx.a(simple-udp.o)
                              broadcast-example.co (simple_udp_register)
contiki-srf06-cc26xx.a(tcpip.o)
                              contiki-srf06-cc26xx.a(sicslowpan.o) (tcpip_set_outputfunc)
contiki-srf06-cc26xx.a(uip-debug.o)
                              contiki-srf06-cc26xx.a(uip-ds6-route.o) (uip_debug_ipaddr_print)
contiki-srf06-cc26xx.a(uip-udp-packet.)
                              contiki-srf06-cc26xx.a(simple-udp.o) (uip_udp_packet_sendto)
contiki-srf06-cc26xx.a(rpl.o)
                              contiki-srf06-cc26xx.a(tcpip.o) (rpl_init)
contiki-srf06-cc26xx.a(rpl-dag.o)
                              contiki-srf06-cc26xx.a(rpl.o) (default_instance)
contiki-srf06-cc26xx.a(rpl-ext-header.)
                              contiki-srf06-cc26xx.a(uip-icmp6.o) (rpl_remove_header)
contiki-srf06-cc26xx.a(rpl-icmp6.o)
                              contiki-srf06-cc26xx.a(rpl.o) (rpl_icmp6_register_handlers)
contiki-srf06-cc26xx.a(rpl-mrhof.o)
                              contiki-srf06-cc26xx.a(rpl-dag.o) (rpl_mrhof)
contiki-srf06-cc26xx.a(rpl-timers.o)
                              contiki-srf06-cc26xx.a(rpl-ext-header.) (rpl_schedule_unicast_dio_immediately)
contiki-srf06-cc26xx.a(adi.o)
                              contiki-srf06-cc26xx.a(oscillators.o) (SafeHapiVoid)
contiki-srf06-cc26xx.a(aon_rtc.o)
                              contiki-srf06-cc26xx.a(rtimer-arch.o) (NOROM_AONRTCCurrentCompareValueGet)
contiki-srf06-cc26xx.a(chipinfo.o)
                              contiki-srf06-cc26xx.a(contiki-main.o) (NOROM_ChipInfo_GetSupportedProtocol_BV)
contiki-srf06-cc26xx.a(cpu.o)
                              contiki-srf06-cc26xx.a(contiki-main.o) (NOROM_CPUcpsid)
contiki-srf06-cc26xx.a(osc.o)
                              contiki-srf06-cc26xx.a(oscillators.o) (NOROM_OSCClockSourceSet)
contiki-srf06-cc26xx.a(pwr_ctrl.o)
                              contiki-srf06-cc26xx.a(lpm.o) (NOROM_PowerCtrlSourceSet)
contiki-srf06-cc26xx.a(rfc.o)
                              contiki-srf06-cc26xx.a(prop-mode.o) (NOROM_RFCRTrim)
contiki-srf06-cc26xx.a(setup.o)
                              obj_srf06-cc26xx/startup_gcc.o (NOROM_SetupTrimDevice)
contiki-srf06-cc26xx.a(setup_rom.o)
                              contiki-srf06-cc26xx.a(setup.o) (NOROM_SetupAfterColdResetWakeupFromShutDownCfg1)
contiki-srf06-cc26xx.a(sys_ctrl.o)
                              contiki-srf06-cc26xx.a(lpm.o) (NOROM_SysCtrl_DCDC_VoltageConditionalControl)
contiki-srf06-cc26xx.a(trng.o)
                              contiki-srf06-cc26xx.a(soc-trng.o) (NOROM_TRNGConfigure)
contiki-srf06-cc26xx.a(linkaddr.o)
                              contiki-srf06-cc26xx.a(sicslowpan.o) (linkaddr_cmp)
contiki-srf06-cc26xx.a(link-stats.o)
                              contiki-srf06-cc26xx.a(uip-ds6-nbr.o) (link_stats_init)
contiki-srf06-cc26xx.a(nbr-table.o)
                              contiki-srf06-cc26xx.a(uip-ds6-nbr.o) (nbr_table_register)
contiki-srf06-cc26xx.a(netstack.o)
                              contiki-srf06-cc26xx.a(contiki-main.o) (netstack_init)
contiki-srf06-cc26xx.a(packetbuf.o)
                              contiki-srf06-cc26xx.a(rf-core.o) (packetbuf_set_datalen)
contiki-srf06-cc26xx.a(queuebuf.o)
                              contiki-srf06-cc26xx.a(sicslowpan.o) (queuebuf_to_packetbuf)
contiki-srf06-cc26xx.a(csma.o)
                              contiki-srf06-cc26xx.a(contiki-main.o) (csma_driver)
contiki-srf06-cc26xx.a(framer-802154.o)
                              contiki-srf06-cc26xx.a(sicslowpan.o) (framer_802154)
contiki-srf06-cc26xx.a(mac.o)
                              contiki-srf06-cc26xx.a(csma.o) (mac_call_sent_callback)
contiki-srf06-cc26xx.a(contikimac.o)
                              contiki-srf06-cc26xx.a(contiki-main.o) (contikimac_driver)
contiki-srf06-cc26xx.a(nullsec.o)
                              contiki-srf06-cc26xx.a(sicslowpan.o) (nullsec_driver)
contiki-srf06-cc26xx.a(smartrf-setting)
                              contiki-srf06-cc26xx.a(prop-mode.o) (smartrf_settings_cmd_prop_radio_div_setup)
contiki-srf06-cc26xx.a(aux-ctrl.o)
                              contiki-srf06-cc26xx.a(lpm.o) (aux_ctrl_power_down)
contiki-srf06-cc26xx.a(stimer.o)
                              contiki-srf06-cc26xx.a(uip-ds6.o) (stimer_expired)
contiki-srf06-cc26xx.a(memb.o)
                              contiki-srf06-cc26xx.a(uip-ds6-route.o) (memb_alloc)
contiki-srf06-cc26xx.a(rpl-nbr-policy.)
                              contiki-srf06-cc26xx.a(nbr-table.o) (rpl_nbr_policy_find_removable)
contiki-srf06-cc26xx.a(aon_batmon.o)
                              contiki-srf06-cc26xx.a(osc.o) (NOROM_AONBatMonTemperatureGetDegC)
contiki-srf06-cc26xx.a(ddi.o)
                              contiki-srf06-cc26xx.a(setup_rom.o) (NOROM_DDI32RegWrite)
contiki-srf06-cc26xx.a(frame802154.o)
                              contiki-srf06-cc26xx.a(framer-802154.o) (frame802154_get_pan_id)
contiki-srf06-cc26xx.a(mac-sequence.o)
                              contiki-srf06-cc26xx.a(contikimac.o) (mac_sequence_is_duplicate)
/home/user/CodeSourcery/Sourcery_G++_Lite/bin/../lib/gcc/arm-none-eabi/4.3.2/thumb2/libgcc.a(_aeabi_uldivmod.o)
                              contiki-srf06-cc26xx.a(strformat.o) (__aeabi_uldivmod)
/home/user/CodeSourcery/Sourcery_G++_Lite/bin/../lib/gcc/arm-none-eabi/4.3.2/thumb2/libgcc.a(bpabi.o)
                              /home/user/CodeSourcery/Sourcery_G++_Lite/bin/../lib/gcc/arm-none-eabi/4.3.2/thumb2/libgcc.a(_aeabi_uldivmod.o) (__gnu_uldivmod_helper)
/home/user/CodeSourcery/Sourcery_G++_Lite/bin/../lib/gcc/arm-none-eabi/4.3.2/thumb2/libgcc.a(_dvmd_tls.o)
                              /home/user/CodeSourcery/Sourcery_G++_Lite/bin/../lib/gcc/arm-none-eabi/4.3.2/thumb2/libgcc.a(_aeabi_uldivmod.o) (__aeabi_ldiv0)
/home/user/CodeSourcery/Sourcery_G++_Lite/bin/../lib/gcc/arm-none-eabi/4.3.2/thumb2/libgcc.a(_divdi3.o)
                              /home/user/CodeSourcery/Sourcery_G++_Lite/bin/../lib/gcc/arm-none-eabi/4.3.2/thumb2/libgcc.a(bpabi.o) (__divdi3)
/home/user/CodeSourcery/Sourcery_G++_Lite/bin/../lib/gcc/arm-none-eabi/4.3.2/thumb2/libgcc.a(_udivdi3.o)
                              /home/user/CodeSourcery/Sourcery_G++_Lite/bin/../lib/gcc/arm-none-eabi/4.3.2/thumb2/libgcc.a(bpabi.o) (__udivdi3)
/home/user/CodeSourcery/Sourcery_G++_Lite/bin/../lib/gcc/arm-none-eabi/4.3.2/thumb2/libgcc.a(_udivsi3.o)
                              /home/user/CodeSourcery/Sourcery_G++_Lite/bin/../lib/gcc/arm-none-eabi/4.3.2/thumb2/libgcc.a(_divdi3.o) (__aeabi_uidiv)
/home/user/CodeSourcery/Sourcery_G++_Lite/bin/../lib/gcc/arm-none-eabi/4.3.2/thumb2/libgcc.a(_clz.o)
                              /home/user/CodeSourcery/Sourcery_G++_Lite/bin/../lib/gcc/arm-none-eabi/4.3.2/thumb2/libgcc.a(_divdi3.o) (__clz_tab)
/home/user/CodeSourcery/Sourcery_G++_Lite/bin/../lib/gcc/arm-none-eabi/4.3.2/../../../../arm-none-eabi/lib/thumb2/libc.a(lib_a-memcmp.o)
                              contiki-srf06-cc26xx.a(sicslowpan.o) (memcmp)
/home/user/CodeSourcery/Sourcery_G++_Lite/bin/../lib/gcc/arm-none-eabi/4.3.2/../../../../arm-none-eabi/lib/thumb2/libc.a(lib_a-memcpy.o)
                              contiki-srf06-cc26xx.a(contiki-main.o) (memcpy)
/home/user/CodeSourcery/Sourcery_G++_Lite/bin/../lib/gcc/arm-none-eabi/4.3.2/../../../../arm-none-eabi/lib/thumb2/libc.a(lib_a-memmove.o)
                              contiki-srf06-cc26xx.a(sicslowpan.o) (memmove)
/home/user/CodeSourcery/Sourcery_G++_Lite/bin/../lib/gcc/arm-none-eabi/4.3.2/../../../../arm-none-eabi/lib/thumb2/libc.a(lib_a-memset.o)
                              contiki-srf06-cc26xx.a(prop-mode.o) (memset)
/home/user/CodeSourcery/Sourcery_G++_Lite/bin/../lib/gcc/arm-none-eabi/4.3.2/../../../../arm-none-eabi/lib/thumb2/libc.a(lib_a-strlen.o)
                              contiki-srf06-cc26xx.a(sensors.o) (strlen)
/home/user/CodeSourcery/Sourcery_G++_Lite/bin/../lib/gcc/arm-none-eabi/4.3.2/../../../../arm-none-eabi/lib/thumb2/libc.a(lib_a-strncmp.o)
                              contiki-srf06-cc26xx.a(sensors.o) (strncmp)

Allocating common symbols
Common symbol       size              file

uip_ds6_timer_ra    0x8               contiki-srf06-cc26xx.a(uip-ds6.o)
uip_ds6_if          0xf8              contiki-srf06-cc26xx.a(uip-ds6.o)
uip_ds6_netif_addr_list_offset
                    0x1               contiki-srf06-cc26xx.a(uip-ds6.o)
uip_len             0x2               contiki-srf06-cc26xx.a(uip6.o)
lastVals            0x44              broadcast-example.co
uip_ds6_addr_size   0x1               contiki-srf06-cc26xx.a(uip-ds6.o)
uip_sappdata        0x4               contiki-srf06-cc26xx.a(uip6.o)
packetbuf_addrs     0x10              contiki-srf06-cc26xx.a(packetbuf.o)
uip_acc32           0x4               contiki-srf06-cc26xx.a(uip6.o)
uip_ds6_prefix_list
                    0x60              contiki-srf06-cc26xx.a(uip-ds6.o)
uip_lladdr          0x8               contiki-srf06-cc26xx.a(uip6.o)
uip_aligned_buf     0x3e8             contiki-srf06-cc26xx.a(uip6.o)
uip_flags           0x1               contiki-srf06-cc26xx.a(uip6.o)
periodic_timer      0x20              contiki-srf06-cc26xx.a(link-stats.o)
uip_ds6_timer_periodic
                    0x10              contiki-srf06-cc26xx.a(uip-ds6.o)
uip_next_hdr        0x4               contiki-srf06-cc26xx.a(uip6.o)
linkaddr_node_addr  0x8               contiki-srf06-cc26xx.a(linkaddr.o)
default_instance    0x4               contiki-srf06-cc26xx.a(rpl-dag.o)
uip_udp_conn        0x4               contiki-srf06-cc26xx.a(uip6.o)
packetbuf_attrs     0x1e              contiki-srf06-cc26xx.a(packetbuf.o)
controlVals         0x44              broadcast-example.co
buffer              0xc8              broadcast-example.co
instance_table      0x154             contiki-srf06-cc26xx.a(rpl-dag.o)
uip_appdata         0x4               contiki-srf06-cc26xx.a(uip6.o)
uip_conn            0x4               contiki-srf06-cc26xx.a(uip6.o)
tcpip_event         0x1               contiki-srf06-cc26xx.a(tcpip.o)
uip_conns           0x1e0             contiki-srf06-cc26xx.a(uip6.o)
uip_icmp6_conns     0x8               contiki-srf06-cc26xx.a(uip6.o)
addr                0x10              broadcast-example.co
rxBuffer            0x23              broadcast-example.co
temps               0x44              broadcast-example.co
txBuffer            0x1               broadcast-example.co
uip_listenports     0x28              contiki-srf06-cc26xx.a(uip6.o)
sensors_flags       0x3               contiki-srf06-cc26xx.a(launchpad-senso)
serial_line_event_message
                    0x1               contiki-srf06-cc26xx.a(serial-line.o)
sensors_event       0x1               contiki-srf06-cc26xx.a(sensors.o)
tcpip_icmp6_event   0x1               contiki-srf06-cc26xx.a(tcpip.o)
uip_slen            0x2               contiki-srf06-cc26xx.a(uip6.o)
uip_udp_conns       0x140             contiki-srf06-cc26xx.a(uip6.o)

Discarded input sections

 .text          0x00000000        0x0 obj_srf06-cc26xx/fault-handlers.o
 .data          0x00000000        0x0 obj_srf06-cc26xx/fault-handlers.o
 .bss           0x00000000        0x0 obj_srf06-cc26xx/fault-handlers.o
 .text          0x00000000        0x0 obj_srf06-cc26xx/ccfg.o
 .data          0x00000000        0x0 obj_srf06-cc26xx/ccfg.o
 .bss           0x00000000        0x0 obj_srf06-cc26xx/ccfg.o
 .text          0x00000000        0x0 obj_srf06-cc26xx/startup_gcc.o
 .data          0x00000000        0x0 obj_srf06-cc26xx/startup_gcc.o
 .bss           0x00000000        0x0 obj_srf06-cc26xx/startup_gcc.o
 .text.FaultISRHandler
                0x00000000        0x0 obj_srf06-cc26xx/startup_gcc.o
 .text          0x00000000        0x0 broadcast-example.co
 .data          0x00000000        0x0 broadcast-example.co
 .bss           0x00000000        0x0 broadcast-example.co
 .text.board_i2c_shutdown
                0x00000000        0x0 broadcast-example.co
 .text.str3toint
                0x00000000        0x0 broadcast-example.co
 .text.sum16    0x00000000        0x0 broadcast-example.co
 .text.min16    0x00000000        0x0 broadcast-example.co
 .text.max16    0x00000000        0x0 broadcast-example.co
 .text.mse16    0x00000000        0x0 broadcast-example.co
 .text.board_i2c_read
                0x00000000        0x0 broadcast-example.co
 .text.board_i2c_write_single
                0x00000000        0x0 broadcast-example.co
 .text.board_i2c_write
                0x00000000        0x0 broadcast-example.co
 .text          0x00000000        0x0 contiki-srf06-cc26xx.a(contiki-main.o)
 .data          0x00000000        0x0 contiki-srf06-cc26xx.a(contiki-main.o)
 .bss           0x00000000        0x0 contiki-srf06-cc26xx.a(contiki-main.o)
 .text          0x00000000        0x0 contiki-srf06-cc26xx.a(sensors.o)
 .data          0x00000000        0x0 contiki-srf06-cc26xx.a(sensors.o)
 .bss           0x00000000        0x0 contiki-srf06-cc26xx.a(sensors.o)
 .text.sensors_first
                0x00000000        0x0 contiki-srf06-cc26xx.a(sensors.o)
 .text.sensors_next
                0x00000000        0x0 contiki-srf06-cc26xx.a(sensors.o)
 .text.sensors_find
                0x00000000        0x0 contiki-srf06-cc26xx.a(sensors.o)
 .text          0x00000000        0x0 contiki-srf06-cc26xx.a(leds.o)
 .data          0x00000000        0x0 contiki-srf06-cc26xx.a(leds.o)
 .bss           0x00000000        0x0 contiki-srf06-cc26xx.a(leds.o)
 .text.leds_toggle
                0x00000000        0x0 contiki-srf06-cc26xx.a(leds.o)
 .text.leds_set
                0x00000000        0x0 contiki-srf06-cc26xx.a(leds.o)
 .text.leds_get
                0x00000000        0x0 contiki-srf06-cc26xx.a(leds.o)
 .text.leds_blink
                0x00000000        0x0 contiki-srf06-cc26xx.a(leds.o)
 .text          0x00000000        0x0 contiki-srf06-cc26xx.a(board.o)
 .data          0x00000000        0x0 contiki-srf06-cc26xx.a(board.o)
 .bss           0x00000000        0x0 contiki-srf06-cc26xx.a(board.o)
 .text          0x00000000        0x0 contiki-srf06-cc26xx.a(launchpad-senso)
 .data          0x00000000        0x0 contiki-srf06-cc26xx.a(launchpad-senso)
 .bss           0x00000000        0x0 contiki-srf06-cc26xx.a(launchpad-senso)
 .text          0x00000000        0x0 contiki-srf06-cc26xx.a(leds-arch.o)
 .data          0x00000000        0x0 contiki-srf06-cc26xx.a(leds-arch.o)
 .bss           0x00000000        0x0 contiki-srf06-cc26xx.a(leds-arch.o)
 .text.leds_arch_get
                0x00000000        0x0 contiki-srf06-cc26xx.a(leds-arch.o)
 .text          0x00000000        0x0 contiki-srf06-cc26xx.a(button-sensor.o)
 .data          0x00000000        0x0 contiki-srf06-cc26xx.a(button-sensor.o)
 .bss           0x00000000        0x0 contiki-srf06-cc26xx.a(button-sensor.o)
 .text          0x00000000        0x0 contiki-srf06-cc26xx.a(ext-flash.o)
 .data          0x00000000        0x0 contiki-srf06-cc26xx.a(ext-flash.o)
 .bss           0x00000000        0x0 contiki-srf06-cc26xx.a(ext-flash.o)
 .text.ext_flash_erase
                0x00000000        0x0 contiki-srf06-cc26xx.a(ext-flash.o)
 .text.ext_flash_write
                0x00000000        0x0 contiki-srf06-cc26xx.a(ext-flash.o)
 .text.ext_flash_read
                0x00000000        0x0 contiki-srf06-cc26xx.a(ext-flash.o)
 .text.ext_flash_test
                0x00000000        0x0 contiki-srf06-cc26xx.a(ext-flash.o)
 .text          0x00000000        0x0 contiki-srf06-cc26xx.a(board-spi.o)
 .data          0x00000000        0x0 contiki-srf06-cc26xx.a(board-spi.o)
 .bss           0x00000000        0x0 contiki-srf06-cc26xx.a(board-spi.o)
 .text          0x00000000        0x0 contiki-srf06-cc26xx.a(prop-mode.o)
 .data          0x00000000        0x0 contiki-srf06-cc26xx.a(prop-mode.o)
 .bss           0x00000000        0x0 contiki-srf06-cc26xx.a(prop-mode.o)
 .text          0x00000000        0x0 contiki-srf06-cc26xx.a(prop-mode-tx-po)
 .data          0x00000000        0x0 contiki-srf06-cc26xx.a(prop-mode-tx-po)
 .bss           0x00000000        0x0 contiki-srf06-cc26xx.a(prop-mode-tx-po)
 .rodata.prop_mode_tx_power_431_527
                0x00000000        0x0 contiki-srf06-cc26xx.a(prop-mode-tx-po)
 .text          0x00000000        0x0 contiki-srf06-cc26xx.a(clock.o)
 .data          0x00000000        0x0 contiki-srf06-cc26xx.a(clock.o)
 .bss           0x00000000        0x0 contiki-srf06-cc26xx.a(clock.o)
 .text.clock_wait
                0x00000000        0x0 contiki-srf06-cc26xx.a(clock.o)
 .text.clock_delay_usec
                0x00000000        0x0 contiki-srf06-cc26xx.a(clock.o)
 .text.clock_delay
                0x00000000        0x0 contiki-srf06-cc26xx.a(clock.o)
 .text          0x00000000        0x0 contiki-srf06-cc26xx.a(rtimer-arch.o)
 .data          0x00000000        0x0 contiki-srf06-cc26xx.a(rtimer-arch.o)
 .bss           0x00000000        0x0 contiki-srf06-cc26xx.a(rtimer-arch.o)
 .text          0x00000000        0x0 contiki-srf06-cc26xx.a(soc-rtc.o)
 .data          0x00000000        0x0 contiki-srf06-cc26xx.a(soc-rtc.o)
 .bss           0x00000000        0x0 contiki-srf06-cc26xx.a(soc-rtc.o)
 .text.soc_rtc_get_next_trigger
                0x00000000        0x0 contiki-srf06-cc26xx.a(soc-rtc.o)
 .text          0x00000000        0x0 contiki-srf06-cc26xx.a(contiki-watchdo)
 .data          0x00000000        0x0 contiki-srf06-cc26xx.a(contiki-watchdo)
 .bss           0x00000000        0x0 contiki-srf06-cc26xx.a(contiki-watchdo)
 .text.watchdog_stop
                0x00000000        0x0 contiki-srf06-cc26xx.a(contiki-watchdo)
 .text.watchdog_reboot
                0x00000000        0x0 contiki-srf06-cc26xx.a(contiki-watchdo)
 .text          0x00000000        0x0 contiki-srf06-cc26xx.a(putchar.o)
 .data          0x00000000        0x0 contiki-srf06-cc26xx.a(putchar.o)
 .bss           0x00000000        0x0 contiki-srf06-cc26xx.a(putchar.o)
 .text          0x00000000        0x0 contiki-srf06-cc26xx.a(ieee-addr.o)
 .data          0x00000000        0x0 contiki-srf06-cc26xx.a(ieee-addr.o)
 .bss           0x00000000        0x0 contiki-srf06-cc26xx.a(ieee-addr.o)
 .text          0x00000000        0x0 contiki-srf06-cc26xx.a(cc26xx-uart.o)
 .data          0x00000000        0x0 contiki-srf06-cc26xx.a(cc26xx-uart.o)
 .bss           0x00000000        0x0 contiki-srf06-cc26xx.a(cc26xx-uart.o)
 .text.cc26xx_uart_set_input
                0x00000000        0x0 contiki-srf06-cc26xx.a(cc26xx-uart.o)
 .text          0x00000000        0x0 contiki-srf06-cc26xx.a(lpm.o)
 .data          0x00000000        0x0 contiki-srf06-cc26xx.a(lpm.o)
 .bss           0x00000000        0x0 contiki-srf06-cc26xx.a(lpm.o)
 .text          0x00000000        0x0 contiki-srf06-cc26xx.a(gpio-interrupt.)
 .data          0x00000000        0x0 contiki-srf06-cc26xx.a(gpio-interrupt.)
 .bss           0x00000000        0x0 contiki-srf06-cc26xx.a(gpio-interrupt.)
 .text          0x00000000        0x0 contiki-srf06-cc26xx.a(oscillators.o)
 .data          0x00000000        0x0 contiki-srf06-cc26xx.a(oscillators.o)
 .bss           0x00000000        0x0 contiki-srf06-cc26xx.a(oscillators.o)
 .text          0x00000000        0x0 contiki-srf06-cc26xx.a(rf-core.o)
 .data          0x00000000        0x0 contiki-srf06-cc26xx.a(rf-core.o)
 .bss           0x00000000        0x0 contiki-srf06-cc26xx.a(rf-core.o)
 .text.rf_core_primary_mode_abort
                0x00000000        0x0 contiki-srf06-cc26xx.a(rf-core.o)
 .text.rf_core_primary_mode_restore
                0x00000000        0x0 contiki-srf06-cc26xx.a(rf-core.o)
 .text.rf_core_init_radio_op
                0x00000000        0x0 contiki-srf06-cc26xx.a(rf-core.o)
 .text.rf_core_restart_rat
                0x00000000        0x0 contiki-srf06-cc26xx.a(rf-core.o)
 .text.rf_core_boot
                0x00000000        0x0 contiki-srf06-cc26xx.a(rf-core.o)
 .text          0x00000000        0x0 contiki-srf06-cc26xx.a(rf-ble.o)
 .data          0x00000000        0x0 contiki-srf06-cc26xx.a(rf-ble.o)
 .bss           0x00000000        0x0 contiki-srf06-cc26xx.a(rf-ble.o)
 .text.rf_ble_beacond_config
                0x00000000        0x0 contiki-srf06-cc26xx.a(rf-ble.o)
 .text.rf_ble_beacond_start
                0x00000000        0x0 contiki-srf06-cc26xx.a(rf-ble.o)
 .text.process_thread_rf_ble_beacon_process
                0x00000000        0x0 contiki-srf06-cc26xx.a(rf-ble.o)
 .text.rf_ble_beacond_stop
                0x00000000        0x0 contiki-srf06-cc26xx.a(rf-ble.o)
 .data.rf_ble_beacon_process
                0x00000000        0x0 contiki-srf06-cc26xx.a(rf-ble.o)
 .bss.p         0x00000000        0x0 contiki-srf06-cc26xx.a(rf-ble.o)
 .bss.ble_params_buf
                0x00000000        0x0 contiki-srf06-cc26xx.a(rf-ble.o)
 .rodata.str1.4
                0x00000000        0x0 contiki-srf06-cc26xx.a(rf-ble.o)
 .bss.ble_adv_et
                0x00000000        0x0 contiki-srf06-cc26xx.a(rf-ble.o)
 .bss.i         0x00000000        0x0 contiki-srf06-cc26xx.a(rf-ble.o)
 .bss.payload   0x00000000        0x0 contiki-srf06-cc26xx.a(rf-ble.o)
 .data.beacond_config
                0x00000000        0x0 contiki-srf06-cc26xx.a(rf-ble.o)
 .data.ble_overrides
                0x00000000        0x0 contiki-srf06-cc26xx.a(rf-ble.o)
 .text          0x00000000        0x0 contiki-srf06-cc26xx.a(random.o)
 .data          0x00000000        0x0 contiki-srf06-cc26xx.a(random.o)
 .bss           0x00000000        0x0 contiki-srf06-cc26xx.a(random.o)
 .text          0x00000000        0x0 contiki-srf06-cc26xx.a(soc-trng.o)
 .data          0x00000000        0x0 contiki-srf06-cc26xx.a(soc-trng.o)
 .bss           0x00000000        0x0 contiki-srf06-cc26xx.a(soc-trng.o)
 .text.soc_trng_rand_asynchronous
                0x00000000        0x0 contiki-srf06-cc26xx.a(soc-trng.o)
 .text          0x00000000        0x0 contiki-srf06-cc26xx.a(dbg-printf.o)
 .data          0x00000000        0x0 contiki-srf06-cc26xx.a(dbg-printf.o)
 .bss           0x00000000        0x0 contiki-srf06-cc26xx.a(dbg-printf.o)
 .text          0x00000000        0x0 contiki-srf06-cc26xx.a(strformat.o)
 .data          0x00000000        0x0 contiki-srf06-cc26xx.a(strformat.o)
 .bss           0x00000000        0x0 contiki-srf06-cc26xx.a(strformat.o)
 .text.format_str
                0x00000000        0x0 contiki-srf06-cc26xx.a(strformat.o)
 .text          0x00000000        0x0 contiki-srf06-cc26xx.a(autostart.o)
 .data          0x00000000        0x0 contiki-srf06-cc26xx.a(autostart.o)
 .bss           0x00000000        0x0 contiki-srf06-cc26xx.a(autostart.o)
 .text.autostart_exit
                0x00000000        0x0 contiki-srf06-cc26xx.a(autostart.o)
 .text          0x00000000        0x0 contiki-srf06-cc26xx.a(ctimer.o)
 .data          0x00000000        0x0 contiki-srf06-cc26xx.a(ctimer.o)
 .bss           0x00000000        0x0 contiki-srf06-cc26xx.a(ctimer.o)
 .text.ctimer_expired
                0x00000000        0x0 contiki-srf06-cc26xx.a(ctimer.o)
 .text          0x00000000        0x0 contiki-srf06-cc26xx.a(energest.o)
 .data          0x00000000        0x0 contiki-srf06-cc26xx.a(energest.o)
 .bss           0x00000000        0x0 contiki-srf06-cc26xx.a(energest.o)
 .text.energest_type_set
                0x00000000        0x0 contiki-srf06-cc26xx.a(energest.o)
 .text.energest_type_time
                0x00000000        0x0 contiki-srf06-cc26xx.a(energest.o)
 .text.energest_flush
                0x00000000        0x0 contiki-srf06-cc26xx.a(energest.o)
 .text          0x00000000        0x0 contiki-srf06-cc26xx.a(etimer.o)
 .data          0x00000000        0x0 contiki-srf06-cc26xx.a(etimer.o)
 .bss           0x00000000        0x0 contiki-srf06-cc26xx.a(etimer.o)
 .text.etimer_start_time
                0x00000000        0x0 contiki-srf06-cc26xx.a(etimer.o)
 .text.etimer_adjust
                0x00000000        0x0 contiki-srf06-cc26xx.a(etimer.o)
 .text.etimer_reset_with_new_interval
                0x00000000        0x0 contiki-srf06-cc26xx.a(etimer.o)
 .text          0x00000000        0x0 contiki-srf06-cc26xx.a(process.o)
 .data          0x00000000        0x0 contiki-srf06-cc26xx.a(process.o)
 .bss           0x00000000        0x0 contiki-srf06-cc26xx.a(process.o)
 .text.process_exit
                0x00000000        0x0 contiki-srf06-cc26xx.a(process.o)
 .text.process_is_running
                0x00000000        0x0 contiki-srf06-cc26xx.a(process.o)
 .text          0x00000000        0x0 contiki-srf06-cc26xx.a(rtimer.o)
 .data          0x00000000        0x0 contiki-srf06-cc26xx.a(rtimer.o)
 .bss           0x00000000        0x0 contiki-srf06-cc26xx.a(rtimer.o)
 .text          0x00000000        0x0 contiki-srf06-cc26xx.a(timer.o)
 .data          0x00000000        0x0 contiki-srf06-cc26xx.a(timer.o)
 .bss           0x00000000        0x0 contiki-srf06-cc26xx.a(timer.o)
 .text.timer_remaining
                0x00000000        0x0 contiki-srf06-cc26xx.a(timer.o)
 .text          0x00000000        0x0 contiki-srf06-cc26xx.a(serial-line.o)
 .data          0x00000000        0x0 contiki-srf06-cc26xx.a(serial-line.o)
 .bss           0x00000000        0x0 contiki-srf06-cc26xx.a(serial-line.o)
 .text.serial_line_input_byte
                0x00000000        0x0 contiki-srf06-cc26xx.a(serial-line.o)
 .bss.overflow.1999
                0x00000000        0x0 contiki-srf06-cc26xx.a(serial-line.o)
 .text          0x00000000        0x0 contiki-srf06-cc26xx.a(list.o)
 .data          0x00000000        0x0 contiki-srf06-cc26xx.a(list.o)
 .bss           0x00000000        0x0 contiki-srf06-cc26xx.a(list.o)
 .text.list_copy
                0x00000000        0x0 contiki-srf06-cc26xx.a(list.o)
 .text.list_tail
                0x00000000        0x0 contiki-srf06-cc26xx.a(list.o)
 .text.list_chop
                0x00000000        0x0 contiki-srf06-cc26xx.a(list.o)
 .text.list_pop
                0x00000000        0x0 contiki-srf06-cc26xx.a(list.o)
 .text.list_insert
                0x00000000        0x0 contiki-srf06-cc26xx.a(list.o)
 .text          0x00000000        0x0 contiki-srf06-cc26xx.a(ringbuf.o)
 .data          0x00000000        0x0 contiki-srf06-cc26xx.a(ringbuf.o)
 .bss           0x00000000        0x0 contiki-srf06-cc26xx.a(ringbuf.o)
 .text.ringbuf_put
                0x00000000        0x0 contiki-srf06-cc26xx.a(ringbuf.o)
 .text.ringbuf_size
                0x00000000        0x0 contiki-srf06-cc26xx.a(ringbuf.o)
 .text.ringbuf_elements
                0x00000000        0x0 contiki-srf06-cc26xx.a(ringbuf.o)
 .text          0x00000000        0x0 contiki-srf06-cc26xx.a(sicslowpan.o)
 .data          0x00000000        0x0 contiki-srf06-cc26xx.a(sicslowpan.o)
 .bss           0x00000000        0x0 contiki-srf06-cc26xx.a(sicslowpan.o)
 .text.rime_sniffer_add
                0x00000000        0x0 contiki-srf06-cc26xx.a(sicslowpan.o)
 .text.rime_sniffer_remove
                0x00000000        0x0 contiki-srf06-cc26xx.a(sicslowpan.o)
 .text.sicslowpan_get_last_rssi
                0x00000000        0x0 contiki-srf06-cc26xx.a(sicslowpan.o)
 .text          0x00000000        0x0 contiki-srf06-cc26xx.a(uip6.o)
 .data          0x00000000        0x0 contiki-srf06-cc26xx.a(uip6.o)
 .bss           0x00000000        0x0 contiki-srf06-cc26xx.a(uip6.o)
 .text.uip_chksum
                0x00000000        0x0 contiki-srf06-cc26xx.a(uip6.o)
 .text.uip_ipchksum
                0x00000000        0x0 contiki-srf06-cc26xx.a(uip6.o)
 .text.uip_connect
                0x00000000        0x0 contiki-srf06-cc26xx.a(uip6.o)
 .text.uip_listen
                0x00000000        0x0 contiki-srf06-cc26xx.a(uip6.o)
 .text.uip_htons
                0x00000000        0x0 contiki-srf06-cc26xx.a(uip6.o)
 .text.uip_send
                0x00000000        0x0 contiki-srf06-cc26xx.a(uip6.o)
 .text          0x00000000        0x0 contiki-srf06-cc26xx.a(uip-ds6.o)
 .data          0x00000000        0x0 contiki-srf06-cc26xx.a(uip-ds6.o)
 .bss           0x00000000        0x0 contiki-srf06-cc26xx.a(uip-ds6.o)
 .text.uip_ds6_prefix_rm
                0x00000000        0x0 contiki-srf06-cc26xx.a(uip-ds6.o)
 .text.uip_ds6_get_global
                0x00000000        0x0 contiki-srf06-cc26xx.a(uip-ds6.o)
 .text.uip_ds6_maddr_rm
                0x00000000        0x0 contiki-srf06-cc26xx.a(uip-ds6.o)
 .text.uip_ds6_aaddr_rm
                0x00000000        0x0 contiki-srf06-cc26xx.a(uip-ds6.o)
 .text.get_match_length
                0x00000000        0x0 contiki-srf06-cc26xx.a(uip-ds6.o)
 .text.uip_ds6_aaddr_lookup
                0x00000000        0x0 contiki-srf06-cc26xx.a(uip-ds6.o)
 .text.uip_ds6_aaddr_add
                0x00000000        0x0 contiki-srf06-cc26xx.a(uip-ds6.o)
 .text.uip_ds6_prefix_lookup
                0x00000000        0x0 contiki-srf06-cc26xx.a(uip-ds6.o)
 .bss.locaaddr  0x00000000        0x0 contiki-srf06-cc26xx.a(uip-ds6.o)
 .text          0x00000000        0x0 contiki-srf06-cc26xx.a(uip-ds6-nbr.o)
 .data          0x00000000        0x0 contiki-srf06-cc26xx.a(uip-ds6-nbr.o)
 .bss           0x00000000        0x0 contiki-srf06-cc26xx.a(uip-ds6-nbr.o)
 .text.uip_ds6_nbr_get_ipaddr
                0x00000000        0x0 contiki-srf06-cc26xx.a(uip-ds6-nbr.o)
 .text.uip_ds6_nbr_ll_lookup
                0x00000000        0x0 contiki-srf06-cc26xx.a(uip-ds6-nbr.o)
 .text.uip_ds6_nbr_num
                0x00000000        0x0 contiki-srf06-cc26xx.a(uip-ds6-nbr.o)
 .text          0x00000000        0x0 contiki-srf06-cc26xx.a(uip-ds6-route.o)
 .data          0x00000000        0x0 contiki-srf06-cc26xx.a(uip-ds6-route.o)
 .bss           0x00000000        0x0 contiki-srf06-cc26xx.a(uip-ds6-route.o)
 .text.uip_ds6_route_num_routes
                0x00000000        0x0 contiki-srf06-cc26xx.a(uip-ds6-route.o)
 .text.uip_ds6_defrt_head
                0x00000000        0x0 contiki-srf06-cc26xx.a(uip-ds6-route.o)
 .text.uip_ds6_notification_rm
                0x00000000        0x0 contiki-srf06-cc26xx.a(uip-ds6-route.o)
 .text.uip_ds6_notification_add
                0x00000000        0x0 contiki-srf06-cc26xx.a(uip-ds6-route.o)
 .text.uip_ds6_route_rm_by_nexthop
                0x00000000        0x0 contiki-srf06-cc26xx.a(uip-ds6-route.o)
 .text          0x00000000        0x0 contiki-srf06-cc26xx.a(uip-icmp6.o)
 .data          0x00000000        0x0 contiki-srf06-cc26xx.a(uip-icmp6.o)
 .bss           0x00000000        0x0 contiki-srf06-cc26xx.a(uip-icmp6.o)
 .text.uip_icmp6_echo_reply_callback_rm
                0x00000000        0x0 contiki-srf06-cc26xx.a(uip-icmp6.o)
 .text.uip_icmp6_echo_reply_callback_add
                0x00000000        0x0 contiki-srf06-cc26xx.a(uip-icmp6.o)
 .text          0x00000000        0x0 contiki-srf06-cc26xx.a(uip-nd6.o)
 .data          0x00000000        0x0 contiki-srf06-cc26xx.a(uip-nd6.o)
 .bss           0x00000000        0x0 contiki-srf06-cc26xx.a(uip-nd6.o)
 .text          0x00000000        0x0 contiki-srf06-cc26xx.a(simple-udp.o)
 .data          0x00000000        0x0 contiki-srf06-cc26xx.a(simple-udp.o)
 .bss           0x00000000        0x0 contiki-srf06-cc26xx.a(simple-udp.o)
 .text.simple_udp_sendto_port
                0x00000000        0x0 contiki-srf06-cc26xx.a(simple-udp.o)
 .text.simple_udp_send
                0x00000000        0x0 contiki-srf06-cc26xx.a(simple-udp.o)
 .text          0x00000000        0x0 contiki-srf06-cc26xx.a(tcpip.o)
 .data          0x00000000        0x0 contiki-srf06-cc26xx.a(tcpip.o)
 .bss           0x00000000        0x0 contiki-srf06-cc26xx.a(tcpip.o)
 .text.tcp_attach
                0x00000000        0x0 contiki-srf06-cc26xx.a(tcpip.o)
 .text.udp_attach
                0x00000000        0x0 contiki-srf06-cc26xx.a(tcpip.o)
 .text.icmp6_new
                0x00000000        0x0 contiki-srf06-cc26xx.a(tcpip.o)
 .text.tcp_unlisten
                0x00000000        0x0 contiki-srf06-cc26xx.a(tcpip.o)
 .text.tcpip_poll_tcp
                0x00000000        0x0 contiki-srf06-cc26xx.a(tcpip.o)
 .text.tcpip_poll_udp
                0x00000000        0x0 contiki-srf06-cc26xx.a(tcpip.o)
 .text.udp_broadcast_new
                0x00000000        0x0 contiki-srf06-cc26xx.a(tcpip.o)
 .text.tcp_listen
                0x00000000        0x0 contiki-srf06-cc26xx.a(tcpip.o)
 .text.tcp_connect
                0x00000000        0x0 contiki-srf06-cc26xx.a(tcpip.o)
 .text          0x00000000        0x0 contiki-srf06-cc26xx.a(uip-debug.o)
 .data          0x00000000        0x0 contiki-srf06-cc26xx.a(uip-debug.o)
 .bss           0x00000000        0x0 contiki-srf06-cc26xx.a(uip-debug.o)
 .text          0x00000000        0x0 contiki-srf06-cc26xx.a(uip-udp-packet.)
 .data          0x00000000        0x0 contiki-srf06-cc26xx.a(uip-udp-packet.)
 .bss           0x00000000        0x0 contiki-srf06-cc26xx.a(uip-udp-packet.)
 .text          0x00000000        0x0 contiki-srf06-cc26xx.a(rpl.o)
 .data          0x00000000        0x0 contiki-srf06-cc26xx.a(rpl.o)
 .bss           0x00000000        0x0 contiki-srf06-cc26xx.a(rpl.o)
 .text.rpl_set_mode
                0x00000000        0x0 contiki-srf06-cc26xx.a(rpl.o)
 .text          0x00000000        0x0 contiki-srf06-cc26xx.a(rpl-dag.o)
 .data          0x00000000        0x0 contiki-srf06-cc26xx.a(rpl-dag.o)
 .bss           0x00000000        0x0 contiki-srf06-cc26xx.a(rpl-dag.o)
 .text.rpl_get_parent_link_metric
                0x00000000        0x0 contiki-srf06-cc26xx.a(rpl-dag.o)
 .text.rpl_set_default_instance
                0x00000000        0x0 contiki-srf06-cc26xx.a(rpl-dag.o)
 .text.rpl_get_default_instance
                0x00000000        0x0 contiki-srf06-cc26xx.a(rpl-dag.o)
 .text.rpl_has_downward_route
                0x00000000        0x0 contiki-srf06-cc26xx.a(rpl-dag.o)
 .text.rpl_find_of
                0x00000000        0x0 contiki-srf06-cc26xx.a(rpl-dag.o)
 .text.rpl_get_parent_rank
                0x00000000        0x0 contiki-srf06-cc26xx.a(rpl-dag.o)
 .text.rpl_set_root
                0x00000000        0x0 contiki-srf06-cc26xx.a(rpl-dag.o)
 .text.rpl_free_instance
                0x00000000        0x0 contiki-srf06-cc26xx.a(rpl-dag.o)
 .text.rpl_get_parent_lladdr
                0x00000000        0x0 contiki-srf06-cc26xx.a(rpl-dag.o)
 .text.rpl_get_nbr
                0x00000000        0x0 contiki-srf06-cc26xx.a(rpl-dag.o)
 .text.rpl_print_neighbor_list
                0x00000000        0x0 contiki-srf06-cc26xx.a(rpl-dag.o)
 .rodata.str1.4
                0x00000000        0x0 contiki-srf06-cc26xx.a(rpl-dag.o)
 .text          0x00000000        0x0 contiki-srf06-cc26xx.a(rpl-ext-header.)
 .data          0x00000000        0x0 contiki-srf06-cc26xx.a(rpl-ext-header.)
 .bss           0x00000000        0x0 contiki-srf06-cc26xx.a(rpl-ext-header.)
 .text          0x00000000        0x0 contiki-srf06-cc26xx.a(rpl-icmp6.o)
 .data          0x00000000        0x0 contiki-srf06-cc26xx.a(rpl-icmp6.o)
 .bss           0x00000000        0x0 contiki-srf06-cc26xx.a(rpl-icmp6.o)
 .text.dao_ack_output
                0x00000000        0x0 contiki-srf06-cc26xx.a(rpl-icmp6.o)
 .text          0x00000000        0x0 contiki-srf06-cc26xx.a(rpl-mrhof.o)
 .data          0x00000000        0x0 contiki-srf06-cc26xx.a(rpl-mrhof.o)
 .bss           0x00000000        0x0 contiki-srf06-cc26xx.a(rpl-mrhof.o)
 .text          0x00000000        0x0 contiki-srf06-cc26xx.a(rpl-timers.o)
 .data          0x00000000        0x0 contiki-srf06-cc26xx.a(rpl-timers.o)
 .bss           0x00000000        0x0 contiki-srf06-cc26xx.a(rpl-timers.o)
 .text.rpl_cancel_dao
                0x00000000        0x0 contiki-srf06-cc26xx.a(rpl-timers.o)
 .text.rpl_schedule_dao_immediately
                0x00000000        0x0 contiki-srf06-cc26xx.a(rpl-timers.o)
 .text          0x00000000        0x0 contiki-srf06-cc26xx.a(adi.o)
 .data          0x00000000        0x0 contiki-srf06-cc26xx.a(adi.o)
 .bss           0x00000000        0x0 contiki-srf06-cc26xx.a(adi.o)
 .text.SafeHapiAuxAdiSelect
                0x00000000        0x0 contiki-srf06-cc26xx.a(adi.o)
 .text          0x00000000        0x0 contiki-srf06-cc26xx.a(aon_rtc.o)
 .data          0x00000000        0x0 contiki-srf06-cc26xx.a(aon_rtc.o)
 .bss           0x00000000        0x0 contiki-srf06-cc26xx.a(aon_rtc.o)
 .text.NOROM_AONRTCCurrent64BitValueGet
                0x00000000        0x0 contiki-srf06-cc26xx.a(aon_rtc.o)
 .text          0x00000000        0x0 contiki-srf06-cc26xx.a(chipinfo.o)
 .data          0x00000000        0x0 contiki-srf06-cc26xx.a(chipinfo.o)
 .bss           0x00000000        0x0 contiki-srf06-cc26xx.a(chipinfo.o)
 .text.NOROM_ChipInfo_GetPackageType
                0x00000000        0x0 contiki-srf06-cc26xx.a(chipinfo.o)
 .text          0x00000000        0x0 contiki-srf06-cc26xx.a(cpu.o)
 .data          0x00000000        0x0 contiki-srf06-cc26xx.a(cpu.o)
 .bss           0x00000000        0x0 contiki-srf06-cc26xx.a(cpu.o)
 .text.NOROM_CPUprimask
                0x00000000        0x0 contiki-srf06-cc26xx.a(cpu.o)
 .text.NOROM_CPUbasepriGet
                0x00000000        0x0 contiki-srf06-cc26xx.a(cpu.o)
 .text          0x00000000        0x0 contiki-srf06-cc26xx.a(osc.o)
 .data          0x00000000        0x0 contiki-srf06-cc26xx.a(osc.o)
 .bss           0x00000000        0x0 contiki-srf06-cc26xx.a(osc.o)
 .text.NOROM_OSC_HPOSCRelativeFrequencyOffsetGet
                0x00000000        0x0 contiki-srf06-cc26xx.a(osc.o)
 .text.NOROM_OSC_HPOSCRelativeFrequencyOffsetToRFCoreFormatConvert
                0x00000000        0x0 contiki-srf06-cc26xx.a(osc.o)
 .text.NOROM_OSCHF_DebugGetExpectedAverageCrystalAmplitude
                0x00000000        0x0 contiki-srf06-cc26xx.a(osc.o)
 .text.NOROM_OSCHF_DebugGetCrystalAmplitude
                0x00000000        0x0 contiki-srf06-cc26xx.a(osc.o)
 .text.NOROM_OSCHF_TurnOnXosc
                0x00000000        0x0 contiki-srf06-cc26xx.a(osc.o)
 .text.NOROM_OSCHF_GetStartupTime
                0x00000000        0x0 contiki-srf06-cc26xx.a(osc.o)
 .text.NOROM_OSCHF_SwitchToRcOscTurnOffXosc
                0x00000000        0x0 contiki-srf06-cc26xx.a(osc.o)
 .text.NOROM_OSCHF_AttemptToSwitchToXosc
                0x00000000        0x0 contiki-srf06-cc26xx.a(osc.o)
 .bss.oscHfGlobals
                0x00000000        0x0 contiki-srf06-cc26xx.a(osc.o)
 .text          0x00000000        0x0 contiki-srf06-cc26xx.a(pwr_ctrl.o)
 .data          0x00000000        0x0 contiki-srf06-cc26xx.a(pwr_ctrl.o)
 .bss           0x00000000        0x0 contiki-srf06-cc26xx.a(pwr_ctrl.o)
 .text          0x00000000        0x0 contiki-srf06-cc26xx.a(rfc.o)
 .data          0x00000000        0x0 contiki-srf06-cc26xx.a(rfc.o)
 .bss           0x00000000        0x0 contiki-srf06-cc26xx.a(rfc.o)
 .text.NOROM_RFCCpeIntGetAndClear
                0x00000000        0x0 contiki-srf06-cc26xx.a(rfc.o)
 .text.NOROM_RFCDoorbellSendTo
                0x00000000        0x0 contiki-srf06-cc26xx.a(rfc.o)
 .text.NOROM_RFCSynthPowerDown
                0x00000000        0x0 contiki-srf06-cc26xx.a(rfc.o)
 .text.NOROM_RFCRfTrimRead
                0x00000000        0x0 contiki-srf06-cc26xx.a(rfc.o)
 .text.NOROM_RFCCPEPatchReset
                0x00000000        0x0 contiki-srf06-cc26xx.a(rfc.o)
 .text.NOROM_RFCRfTrimSet
                0x00000000        0x0 contiki-srf06-cc26xx.a(rfc.o)
 .rodata.rfc_defaultIrqAddr
                0x00000000        0x0 contiki-srf06-cc26xx.a(rfc.o)
 .text          0x00000000        0x0 contiki-srf06-cc26xx.a(setup.o)
 .data          0x00000000        0x0 contiki-srf06-cc26xx.a(setup.o)
 .bss           0x00000000        0x0 contiki-srf06-cc26xx.a(setup.o)
 .text          0x00000000        0x0 contiki-srf06-cc26xx.a(setup_rom.o)
 .data          0x00000000        0x0 contiki-srf06-cc26xx.a(setup_rom.o)
 .bss           0x00000000        0x0 contiki-srf06-cc26xx.a(setup_rom.o)
 .text.NOROM_SetupGetTrimForRcOscLfRtuneCtuneTrim
                0x00000000        0x0 contiki-srf06-cc26xx.a(setup_rom.o)
 .text.NOROM_SetupGetTrimForXoscHfIbiastherm
                0x00000000        0x0 contiki-srf06-cc26xx.a(setup_rom.o)
 .text.NOROM_SetupGetTrimForAmpcompTh2
                0x00000000        0x0 contiki-srf06-cc26xx.a(setup_rom.o)
 .text.NOROM_SetupGetTrimForAmpcompTh1
                0x00000000        0x0 contiki-srf06-cc26xx.a(setup_rom.o)
 .text.NOROM_SetupGetTrimForDblrLoopFilterResetVoltage
                0x00000000        0x0 contiki-srf06-cc26xx.a(setup_rom.o)
 .text.NOROM_SetupGetTrimForAdcShModeEn
                0x00000000        0x0 contiki-srf06-cc26xx.a(setup_rom.o)
 .text.NOROM_SetupGetTrimForAdcShVbufEn
                0x00000000        0x0 contiki-srf06-cc26xx.a(setup_rom.o)
 .text.NOROM_SetupGetTrimForXoscHfCtl
                0x00000000        0x0 contiki-srf06-cc26xx.a(setup_rom.o)
 .text.NOROM_SetupGetTrimForXoscHfFastStart
                0x00000000        0x0 contiki-srf06-cc26xx.a(setup_rom.o)
 .text.NOROM_SetupGetTrimForRadcExtCfg
                0x00000000        0x0 contiki-srf06-cc26xx.a(setup_rom.o)
 .text.NOROM_SetupGetTrimForRcOscLfIBiasTrim
                0x00000000        0x0 contiki-srf06-cc26xx.a(setup_rom.o)
 .text.NOROM_SetupGetTrimForXoscLfRegulatorAndCmirrwrRatio
                0x00000000        0x0 contiki-srf06-cc26xx.a(setup_rom.o)
 .text.NOROM_SetupSetAonRtcSubSecInc
                0x00000000        0x0 contiki-srf06-cc26xx.a(setup_rom.o)
 .text          0x00000000        0x0 contiki-srf06-cc26xx.a(sys_ctrl.o)
 .data          0x00000000        0x0 contiki-srf06-cc26xx.a(sys_ctrl.o)
 .bss           0x00000000        0x0 contiki-srf06-cc26xx.a(sys_ctrl.o)
 .text.NOROM_SysCtrlResetSourceGet
                0x00000000        0x0 contiki-srf06-cc26xx.a(sys_ctrl.o)
 .text.NOROM_SysCtrlPowerEverything
                0x00000000        0x0 contiki-srf06-cc26xx.a(sys_ctrl.o)
 .rodata.g_pui32ModuleCG
                0x00000000        0x0 contiki-srf06-cc26xx.a(sys_ctrl.o)
 .text          0x00000000        0x0 contiki-srf06-cc26xx.a(trng.o)
 .data          0x00000000        0x0 contiki-srf06-cc26xx.a(trng.o)
 .bss           0x00000000        0x0 contiki-srf06-cc26xx.a(trng.o)
 .text.NOROM_TRNGNumberGet
                0x00000000        0x0 contiki-srf06-cc26xx.a(trng.o)
 .text          0x00000000        0x0 contiki-srf06-cc26xx.a(linkaddr.o)
 .data          0x00000000        0x0 contiki-srf06-cc26xx.a(linkaddr.o)
 .bss           0x00000000        0x0 contiki-srf06-cc26xx.a(linkaddr.o)
 .text.linkaddr_set_node_addr
                0x00000000        0x0 contiki-srf06-cc26xx.a(linkaddr.o)
 .text          0x00000000        0x0 contiki-srf06-cc26xx.a(link-stats.o)
 .data          0x00000000        0x0 contiki-srf06-cc26xx.a(link-stats.o)
 .bss           0x00000000        0x0 contiki-srf06-cc26xx.a(link-stats.o)
 .text.guess_etx_from_rssi
                0x00000000        0x0 contiki-srf06-cc26xx.a(link-stats.o)
 .text          0x00000000        0x0 contiki-srf06-cc26xx.a(nbr-table.o)
 .data          0x00000000        0x0 contiki-srf06-cc26xx.a(nbr-table.o)
 .bss           0x00000000        0x0 contiki-srf06-cc26xx.a(nbr-table.o)
 .text          0x00000000        0x0 contiki-srf06-cc26xx.a(netstack.o)
 .data          0x00000000        0x0 contiki-srf06-cc26xx.a(netstack.o)
 .bss           0x00000000        0x0 contiki-srf06-cc26xx.a(netstack.o)
 .text          0x00000000        0x0 contiki-srf06-cc26xx.a(packetbuf.o)
 .data          0x00000000        0x0 contiki-srf06-cc26xx.a(packetbuf.o)
 .bss           0x00000000        0x0 contiki-srf06-cc26xx.a(packetbuf.o)
 .text.packetbuf_compact
                0x00000000        0x0 contiki-srf06-cc26xx.a(packetbuf.o)
 .text.packetbuf_hdrlen
                0x00000000        0x0 contiki-srf06-cc26xx.a(packetbuf.o)
 .text.packetbuf_remaininglen
                0x00000000        0x0 contiki-srf06-cc26xx.a(packetbuf.o)
 .text          0x00000000        0x0 contiki-srf06-cc26xx.a(queuebuf.o)
 .data          0x00000000        0x0 contiki-srf06-cc26xx.a(queuebuf.o)
 .bss           0x00000000        0x0 contiki-srf06-cc26xx.a(queuebuf.o)
 .text.queuebuf_datalen
                0x00000000        0x0 contiki-srf06-cc26xx.a(queuebuf.o)
 .text.queuebuf_addr
                0x00000000        0x0 contiki-srf06-cc26xx.a(queuebuf.o)
 .text.queuebuf_debug_print
                0x00000000        0x0 contiki-srf06-cc26xx.a(queuebuf.o)
 .text.queuebuf_dataptr
                0x00000000        0x0 contiki-srf06-cc26xx.a(queuebuf.o)
 .text          0x00000000        0x0 contiki-srf06-cc26xx.a(csma.o)
 .data          0x00000000        0x0 contiki-srf06-cc26xx.a(csma.o)
 .bss           0x00000000        0x0 contiki-srf06-cc26xx.a(csma.o)
 .text          0x00000000        0x0 contiki-srf06-cc26xx.a(framer-802154.o)
 .data          0x00000000        0x0 contiki-srf06-cc26xx.a(framer-802154.o)
 .bss           0x00000000        0x0 contiki-srf06-cc26xx.a(framer-802154.o)
 .text          0x00000000        0x0 contiki-srf06-cc26xx.a(mac.o)
 .data          0x00000000        0x0 contiki-srf06-cc26xx.a(mac.o)
 .bss           0x00000000        0x0 contiki-srf06-cc26xx.a(mac.o)
 .text          0x00000000        0x0 contiki-srf06-cc26xx.a(contikimac.o)
 .data          0x00000000        0x0 contiki-srf06-cc26xx.a(contikimac.o)
 .bss           0x00000000        0x0 contiki-srf06-cc26xx.a(contikimac.o)
 .text.contikimac_debug_print
                0x00000000        0x0 contiki-srf06-cc26xx.a(contikimac.o)
 .text          0x00000000        0x0 contiki-srf06-cc26xx.a(nullsec.o)
 .data          0x00000000        0x0 contiki-srf06-cc26xx.a(nullsec.o)
 .bss           0x00000000        0x0 contiki-srf06-cc26xx.a(nullsec.o)
 .text          0x00000000        0x0 contiki-srf06-cc26xx.a(smartrf-setting)
 .data          0x00000000        0x0 contiki-srf06-cc26xx.a(smartrf-setting)
 .bss           0x00000000        0x0 contiki-srf06-cc26xx.a(smartrf-setting)
 .text          0x00000000        0x0 contiki-srf06-cc26xx.a(aux-ctrl.o)
 .data          0x00000000        0x0 contiki-srf06-cc26xx.a(aux-ctrl.o)
 .bss           0x00000000        0x0 contiki-srf06-cc26xx.a(aux-ctrl.o)
 .text          0x00000000        0x0 contiki-srf06-cc26xx.a(stimer.o)
 .data          0x00000000        0x0 contiki-srf06-cc26xx.a(stimer.o)
 .bss           0x00000000        0x0 contiki-srf06-cc26xx.a(stimer.o)
 .text.stimer_reset
                0x00000000        0x0 contiki-srf06-cc26xx.a(stimer.o)
 .text.stimer_elapsed
                0x00000000        0x0 contiki-srf06-cc26xx.a(stimer.o)
 .text.stimer_remaining
                0x00000000        0x0 contiki-srf06-cc26xx.a(stimer.o)
 .text.stimer_restart
                0x00000000        0x0 contiki-srf06-cc26xx.a(stimer.o)
 .text          0x00000000        0x0 contiki-srf06-cc26xx.a(memb.o)
 .data          0x00000000        0x0 contiki-srf06-cc26xx.a(memb.o)
 .bss           0x00000000        0x0 contiki-srf06-cc26xx.a(memb.o)
 .text          0x00000000        0x0 contiki-srf06-cc26xx.a(rpl-nbr-policy.)
 .data          0x00000000        0x0 contiki-srf06-cc26xx.a(rpl-nbr-policy.)
 .bss           0x00000000        0x0 contiki-srf06-cc26xx.a(rpl-nbr-policy.)
 .text          0x00000000        0x0 contiki-srf06-cc26xx.a(aon_batmon.o)
 .data          0x00000000        0x0 contiki-srf06-cc26xx.a(aon_batmon.o)
 .bss           0x00000000        0x0 contiki-srf06-cc26xx.a(aon_batmon.o)
 .text          0x00000000        0x0 contiki-srf06-cc26xx.a(ddi.o)
 .data          0x00000000        0x0 contiki-srf06-cc26xx.a(ddi.o)
 .bss           0x00000000        0x0 contiki-srf06-cc26xx.a(ddi.o)
 .text.NOROM_DDI16BitfieldRead
                0x00000000        0x0 contiki-srf06-cc26xx.a(ddi.o)
 .text.NOROM_DDI16BitWrite
                0x00000000        0x0 contiki-srf06-cc26xx.a(ddi.o)
 .text.NOROM_DDI16BitRead
                0x00000000        0x0 contiki-srf06-cc26xx.a(ddi.o)
 .text.NOROM_DDI16BitfieldWrite
                0x00000000        0x0 contiki-srf06-cc26xx.a(ddi.o)
 .text          0x00000000        0x0 contiki-srf06-cc26xx.a(frame802154.o)
 .data          0x00000000        0x0 contiki-srf06-cc26xx.a(frame802154.o)
 .bss           0x00000000        0x0 contiki-srf06-cc26xx.a(frame802154.o)
 .text.frame802154_set_pan_id
                0x00000000        0x0 contiki-srf06-cc26xx.a(frame802154.o)
 .text.frame802154_check_dest_panid
                0x00000000        0x0 contiki-srf06-cc26xx.a(frame802154.o)
 .text.frame802154_extract_linkaddr
                0x00000000        0x0 contiki-srf06-cc26xx.a(frame802154.o)
 .text          0x00000000        0x0 contiki-srf06-cc26xx.a(mac-sequence.o)
 .data          0x00000000        0x0 contiki-srf06-cc26xx.a(mac-sequence.o)
 .bss           0x00000000        0x0 contiki-srf06-cc26xx.a(mac-sequence.o)
 .data          0x00000000        0x0 /home/user/CodeSourcery/Sourcery_G++_Lite/bin/../lib/gcc/arm-none-eabi/4.3.2/thumb2/libgcc.a(_aeabi_uldivmod.o)
 .bss           0x00000000        0x0 /home/user/CodeSourcery/Sourcery_G++_Lite/bin/../lib/gcc/arm-none-eabi/4.3.2/thumb2/libgcc.a(_aeabi_uldivmod.o)
 .data          0x00000000        0x0 /home/user/CodeSourcery/Sourcery_G++_Lite/bin/../lib/gcc/arm-none-eabi/4.3.2/thumb2/libgcc.a(bpabi.o)
 .bss           0x00000000        0x0 /home/user/CodeSourcery/Sourcery_G++_Lite/bin/../lib/gcc/arm-none-eabi/4.3.2/thumb2/libgcc.a(bpabi.o)
 .data          0x00000000        0x0 /home/user/CodeSourcery/Sourcery_G++_Lite/bin/../lib/gcc/arm-none-eabi/4.3.2/thumb2/libgcc.a(_dvmd_tls.o)
 .bss           0x00000000        0x0 /home/user/CodeSourcery/Sourcery_G++_Lite/bin/../lib/gcc/arm-none-eabi/4.3.2/thumb2/libgcc.a(_dvmd_tls.o)
 .data          0x00000000        0x0 /home/user/CodeSourcery/Sourcery_G++_Lite/bin/../lib/gcc/arm-none-eabi/4.3.2/thumb2/libgcc.a(_divdi3.o)
 .bss           0x00000000        0x0 /home/user/CodeSourcery/Sourcery_G++_Lite/bin/../lib/gcc/arm-none-eabi/4.3.2/thumb2/libgcc.a(_divdi3.o)
 .ARM.extab     0x00000000        0x0 /home/user/CodeSourcery/Sourcery_G++_Lite/bin/../lib/gcc/arm-none-eabi/4.3.2/thumb2/libgcc.a(_divdi3.o)
 .data          0x00000000        0x0 /home/user/CodeSourcery/Sourcery_G++_Lite/bin/../lib/gcc/arm-none-eabi/4.3.2/thumb2/libgcc.a(_udivdi3.o)
 .bss           0x00000000        0x0 /home/user/CodeSourcery/Sourcery_G++_Lite/bin/../lib/gcc/arm-none-eabi/4.3.2/thumb2/libgcc.a(_udivdi3.o)
 .ARM.extab     0x00000000        0x0 /home/user/CodeSourcery/Sourcery_G++_Lite/bin/../lib/gcc/arm-none-eabi/4.3.2/thumb2/libgcc.a(_udivdi3.o)
 .data          0x00000000        0x0 /home/user/CodeSourcery/Sourcery_G++_Lite/bin/../lib/gcc/arm-none-eabi/4.3.2/thumb2/libgcc.a(_udivsi3.o)
 .bss           0x00000000        0x0 /home/user/CodeSourcery/Sourcery_G++_Lite/bin/../lib/gcc/arm-none-eabi/4.3.2/thumb2/libgcc.a(_udivsi3.o)
 .text          0x00000000        0x0 /home/user/CodeSourcery/Sourcery_G++_Lite/bin/../lib/gcc/arm-none-eabi/4.3.2/thumb2/libgcc.a(_clz.o)
 .data          0x00000000        0x0 /home/user/CodeSourcery/Sourcery_G++_Lite/bin/../lib/gcc/arm-none-eabi/4.3.2/thumb2/libgcc.a(_clz.o)
 .bss           0x00000000        0x0 /home/user/CodeSourcery/Sourcery_G++_Lite/bin/../lib/gcc/arm-none-eabi/4.3.2/thumb2/libgcc.a(_clz.o)
 .data          0x00000000        0x0 /home/user/CodeSourcery/Sourcery_G++_Lite/bin/../lib/gcc/arm-none-eabi/4.3.2/../../../../arm-none-eabi/lib/thumb2/libc.a(lib_a-memcmp.o)
 .bss           0x00000000        0x0 /home/user/CodeSourcery/Sourcery_G++_Lite/bin/../lib/gcc/arm-none-eabi/4.3.2/../../../../arm-none-eabi/lib/thumb2/libc.a(lib_a-memcmp.o)
 .data          0x00000000        0x0 /home/user/CodeSourcery/Sourcery_G++_Lite/bin/../lib/gcc/arm-none-eabi/4.3.2/../../../../arm-none-eabi/lib/thumb2/libc.a(lib_a-memcpy.o)
 .bss           0x00000000        0x0 /home/user/CodeSourcery/Sourcery_G++_Lite/bin/../lib/gcc/arm-none-eabi/4.3.2/../../../../arm-none-eabi/lib/thumb2/libc.a(lib_a-memcpy.o)
 .data          0x00000000        0x0 /home/user/CodeSourcery/Sourcery_G++_Lite/bin/../lib/gcc/arm-none-eabi/4.3.2/../../../../arm-none-eabi/lib/thumb2/libc.a(lib_a-memmove.o)
 .bss           0x00000000        0x0 /home/user/CodeSourcery/Sourcery_G++_Lite/bin/../lib/gcc/arm-none-eabi/4.3.2/../../../../arm-none-eabi/lib/thumb2/libc.a(lib_a-memmove.o)
 .data          0x00000000        0x0 /home/user/CodeSourcery/Sourcery_G++_Lite/bin/../lib/gcc/arm-none-eabi/4.3.2/../../../../arm-none-eabi/lib/thumb2/libc.a(lib_a-memset.o)
 .bss           0x00000000        0x0 /home/user/CodeSourcery/Sourcery_G++_Lite/bin/../lib/gcc/arm-none-eabi/4.3.2/../../../../arm-none-eabi/lib/thumb2/libc.a(lib_a-memset.o)
 .data          0x00000000        0x0 /home/user/CodeSourcery/Sourcery_G++_Lite/bin/../lib/gcc/arm-none-eabi/4.3.2/../../../../arm-none-eabi/lib/thumb2/libc.a(lib_a-strlen.o)
 .bss           0x00000000        0x0 /home/user/CodeSourcery/Sourcery_G++_Lite/bin/../lib/gcc/arm-none-eabi/4.3.2/../../../../arm-none-eabi/lib/thumb2/libc.a(lib_a-strlen.o)
 .text          0x00000000        0x0 /home/user/CodeSourcery/Sourcery_G++_Lite/bin/../lib/gcc/arm-none-eabi/4.3.2/../../../../arm-none-eabi/lib/thumb2/libc.a(lib_a-strncmp.o)
 .data          0x00000000        0x0 /home/user/CodeSourcery/Sourcery_G++_Lite/bin/../lib/gcc/arm-none-eabi/4.3.2/../../../../arm-none-eabi/lib/thumb2/libc.a(lib_a-strncmp.o)
 .bss           0x00000000        0x0 /home/user/CodeSourcery/Sourcery_G++_Lite/bin/../lib/gcc/arm-none-eabi/4.3.2/../../../../arm-none-eabi/lib/thumb2/libc.a(lib_a-strncmp.o)

Memory Configuration

Name             Origin             Length             Attributes
FLASH            0x00000000         0x0001ffa8         xr
FLASH_CCFG       0x0001ffa8         0x00000058         xr
SRAM             0x20000000         0x00005000         xrw
GPRAM            0x11000000         0x00002000         xrw
*default*        0x00000000         0xffffffff

Linker script and memory map

LOAD obj_srf06-cc26xx/fault-handlers.o
LOAD obj_srf06-cc26xx/ccfg.o
LOAD obj_srf06-cc26xx/startup_gcc.o
LOAD broadcast-example.co
LOAD contiki-srf06-cc26xx.a
LOAD /home/user/CodeSourcery/Sourcery_G++_Lite/bin/../lib/gcc/arm-none-eabi/4.3.2/../../../../arm-none-eabi/lib/thumb2/libm.a
START GROUP
LOAD /home/user/CodeSourcery/Sourcery_G++_Lite/bin/../lib/gcc/arm-none-eabi/4.3.2/thumb2/libgcc.a
LOAD /home/user/CodeSourcery/Sourcery_G++_Lite/bin/../lib/gcc/arm-none-eabi/4.3.2/../../../../arm-none-eabi/lib/thumb2/libc.a
END GROUP
                0x20005000                _estack = 0x20005000
                0x00000000                _Min_Heap_Size = 0x0
                0x00000100                _Min_Stack_Size = 0x100

.text           0x00000000    0x10afd
                0x00000000                _text = .
 *(SORT(.vectors))
 .vectors       0x00000000       0xc8 obj_srf06-cc26xx/startup_gcc.o
                0x00000000                g_pfnVectors
 *(SORT(.text*))
 .text.FaultISR
                0x000000c8       0x1c obj_srf06-cc26xx/fault-handlers.o
                0x000000c8                FaultISR
 .text.NmiSRHandler
                0x000000e4        0x4 obj_srf06-cc26xx/startup_gcc.o
                0x000000e4                NmiSR
 .text.IntDefaultHandler
                0x000000e8        0x4 obj_srf06-cc26xx/startup_gcc.o
                0x000000e8                SSI0IntHandler
                0x000000e8                SWEvent0IntHandler
                0x000000e8                uDMAIntHandler
                0x000000e8                WatchdogIntHandler
                0x000000e8                RFCHardwareIntHandler
                0x000000e8                Timer1BIntHandler
                0x000000e8                I2SIntHandler
                0x000000e8                Timer2BIntHandler
                0x000000e8                Timer2AIntHandler
                0x000000e8                Timer1AIntHandler
                0x000000e8                AONIntHandler
                0x000000e8                AUXSWEvent0IntHandler
                0x000000e8                AUXADCIntHandler
                0x000000e8                PendSVIntHandler
                0x000000e8                AUXSWEvent1IntHandler
                0x000000e8                SVCallIntHandler
                0x000000e8                MPUFaultIntHandler
                0x000000e8                SysTickIntHandler
                0x000000e8                BusFaultIntHandler
                0x000000e8                AONProgIntHandler
                0x000000e8                AUXCompAIntHandler
                0x000000e8                SSI1IntHandler
                0x000000e8                FlashIntHandler
                0x000000e8                uDMAErrIntHandler
                0x000000e8                UsageFaultIntHandler
                0x000000e8                RFCCmdAckIntHandler
                0x000000e8                CryptoIntHandler
                0x000000e8                Timer0AIntHandler
                0x000000e8                I2CIntHandler
                0x000000e8                DebugMonIntHandler
                0x000000e8                Timer0BIntHandler
                0x000000e8                AUXCombEventIntHandler
                0x000000e8                Timer3AIntHandler
                0x000000e8                DynProgIntHandler
                0x000000e8                Timer3BIntHandler
 .text.ResetISR
                0x000000ec       0x54 obj_srf06-cc26xx/startup_gcc.o
                0x000000ec                ResetISR
 .text.board_i2c_wakeup
                0x00000140       0x70 broadcast-example.co
                0x00000140                board_i2c_wakeup
 .text.board_i2c_select
                0x000001b0       0xb4 broadcast-example.co
                0x000001b0                board_i2c_select
 .text.var16    0x00000264       0x2c broadcast-example.co
                0x00000264                var16
 .text.receiver
                0x00000290       0x64 broadcast-example.co
 .text.stats    0x000002f4       0x9c broadcast-example.co
                0x000002f4                stats
 .text.detect   0x00000390      0x198 broadcast-example.co
                0x00000390                detect
 .text.i2c_status
                0x00000528       0x3c broadcast-example.co
 .text.board_i2c_write_read
                0x00000564      0x204 broadcast-example.co
                0x00000564                board_i2c_write_read
 .text.process_thread_broadcast_example_process
                0x00000768      0x198 broadcast-example.co
 .text.fade     0x00000900       0x64 contiki-srf06-cc26xx.a(contiki-main.o)
 .text.main     0x00000964      0x29c contiki-srf06-cc26xx.a(contiki-main.o)
                0x00000964                main
 .text.process_thread_sensors_process
                0x00000c00      0x13c contiki-srf06-cc26xx.a(sensors.o)
 .text.sensors_changed
                0x00000d3c       0x58 contiki-srf06-cc26xx.a(sensors.o)
                0x00000d3c                sensors_changed
 .text.leds_off
                0x00000d94       0x18 contiki-srf06-cc26xx.a(leds.o)
                0x00000d94                leds_off
 .text.leds_on  0x00000dac       0x18 contiki-srf06-cc26xx.a(leds.o)
                0x00000dac                leds_on
 .text.leds_init
                0x00000dc4       0x14 contiki-srf06-cc26xx.a(leds.o)
                0x00000dc4                leds_init
 .text.wakeup_handler
                0x00000dd8       0x20 contiki-srf06-cc26xx.a(board.o)
 .text.board_init
                0x00000df8       0x98 contiki-srf06-cc26xx.a(board.o)
                0x00000df8                board_init
 .text.leds_arch_init
                0x00000e90       0x38 contiki-srf06-cc26xx.a(leds-arch.o)
                0x00000e90                leds_arch_init
 .text.leds_arch_set
                0x00000ec8       0x3c contiki-srf06-cc26xx.a(leds-arch.o)
                0x00000ec8                leds_arch_set
 .text.value_left
                0x00000f04       0x2c contiki-srf06-cc26xx.a(button-sensor.o)
 .text.value_right
                0x00000f30       0x2c contiki-srf06-cc26xx.a(button-sensor.o)
 .text.status_left
                0x00000f5c       0x24 contiki-srf06-cc26xx.a(button-sensor.o)
 .text.status_right
                0x00000f80       0x24 contiki-srf06-cc26xx.a(button-sensor.o)
 .text.config_buttons
                0x00000fa4       0x9c contiki-srf06-cc26xx.a(button-sensor.o)
 .text.config_right
                0x00001040        0xc contiki-srf06-cc26xx.a(button-sensor.o)
 .text.config_left
                0x0000104c        0xc contiki-srf06-cc26xx.a(button-sensor.o)
 .text.button_press_handler
                0x00001058       0x68 contiki-srf06-cc26xx.a(button-sensor.o)
 .text.wait_ready
                0x000010c0       0x70 contiki-srf06-cc26xx.a(ext-flash.o)
 .text.verify_part
                0x00001130       0xa8 contiki-srf06-cc26xx.a(ext-flash.o)
 .text.ext_flash_close
                0x000011d8       0x60 contiki-srf06-cc26xx.a(ext-flash.o)
                0x000011d8                ext_flash_close
 .text.ext_flash_open
                0x00001238       0x70 contiki-srf06-cc26xx.a(ext-flash.o)
                0x00001238                ext_flash_open
 .text.ext_flash_init
                0x000012a8        0xc contiki-srf06-cc26xx.a(ext-flash.o)
                0x000012a8                ext_flash_init
 .text.accessible
                0x000012b4       0x2c contiki-srf06-cc26xx.a(board-spi.o)
 .text.board_spi_write
                0x000012e0       0x48 contiki-srf06-cc26xx.a(board-spi.o)
                0x000012e0                board_spi_write
 .text.board_spi_read
                0x00001328       0x54 contiki-srf06-cc26xx.a(board-spi.o)
                0x00001328                board_spi_read
 .text.board_spi_flush
                0x0000137c       0x28 contiki-srf06-cc26xx.a(board-spi.o)
                0x0000137c                board_spi_flush
 .text.board_spi_open
                0x000013a4       0xdc contiki-srf06-cc26xx.a(board-spi.o)
                0x000013a4                board_spi_open
 .text.board_spi_close
                0x00001480       0x78 contiki-srf06-cc26xx.a(board-spi.o)
                0x00001480                board_spi_close
 .text.get_channel
                0x000014f8       0x50 contiki-srf06-cc26xx.a(prop-mode.o)
 .text.set_channel
                0x00001548       0x54 contiki-srf06-cc26xx.a(prop-mode.o)
 .text.get_object
                0x0000159c        0x4 contiki-srf06-cc26xx.a(prop-mode.o)
 .text.set_object
                0x000015a0        0x4 contiki-srf06-cc26xx.a(prop-mode.o)
 .text.rf_is_on
                0x000015a4       0x1c contiki-srf06-cc26xx.a(prop-mode.o)
 .text.request  0x000015c0       0x10 contiki-srf06-cc26xx.a(prop-mode.o)
 .text.soft_off_prop
                0x000015d0       0x3c contiki-srf06-cc26xx.a(prop-mode.o)
 .text.rx_off_prop
                0x0000160c       0x44 contiki-srf06-cc26xx.a(prop-mode.o)
 .text.prop_div_radio_setup
                0x00001650       0x50 contiki-srf06-cc26xx.a(prop-mode.o)
 .text.prop_fs  0x000016a0       0x34 contiki-srf06-cc26xx.a(prop-mode.o)
 .text.rx_on_prop
                0x000016d4       0x64 contiki-srf06-cc26xx.a(prop-mode.o)
 .text.soft_on_prop
                0x00001738       0x20 contiki-srf06-cc26xx.a(prop-mode.o)
 .text.off      0x00001758       0x28 contiki-srf06-cc26xx.a(prop-mode.o)
 .text.on       0x00001780      0x274 contiki-srf06-cc26xx.a(prop-mode.o)
 .text.set_value
                0x000019f4      0x128 contiki-srf06-cc26xx.a(prop-mode.o)
 .text.get_value
                0x00001b1c      0x14c contiki-srf06-cc26xx.a(prop-mode.o)
 .text.channel_clear
                0x00001c68       0x94 contiki-srf06-cc26xx.a(prop-mode.o)
 .text.receiving_packet
                0x00001cfc       0x18 contiki-srf06-cc26xx.a(prop-mode.o)
 .text.prepare  0x00001d14       0x1c contiki-srf06-cc26xx.a(prop-mode.o)
 .text.pending_packet
                0x00001d30       0x38 contiki-srf06-cc26xx.a(prop-mode.o)
 .text.read_frame
                0x00001d68       0x54 contiki-srf06-cc26xx.a(prop-mode.o)
 .text.transmit
                0x00001dbc       0xa0 contiki-srf06-cc26xx.a(prop-mode.o)
 .text.send     0x00001e5c       0x24 contiki-srf06-cc26xx.a(prop-mode.o)
 .text.init     0x00001e80       0x8c contiki-srf06-cc26xx.a(prop-mode.o)
 .text.power_domain_on
                0x00001f0c       0x20 contiki-srf06-cc26xx.a(clock.o)
 .text.clock_init
                0x00001f2c       0xb8 contiki-srf06-cc26xx.a(clock.o)
                0x00001f2c                clock_init
 .text.clock_time
                0x00001fe4       0x40 contiki-srf06-cc26xx.a(clock.o)
                0x00001fe4                clock_time
 .text.clock_seconds
                0x00002024       0x1c contiki-srf06-cc26xx.a(clock.o)
                0x00002024                clock_seconds
 .text.clock_update
                0x00002040       0x44 contiki-srf06-cc26xx.a(clock.o)
                0x00002040                clock_update
 .text.rtimer_arch_init
                0x00002084        0x4 contiki-srf06-cc26xx.a(rtimer-arch.o)
                0x00002084                rtimer_arch_init
 .text.rtimer_arch_now
                0x00002088        0x8 contiki-srf06-cc26xx.a(rtimer-arch.o)
                0x00002088                rtimer_arch_now
 .text.rtimer_arch_schedule
                0x00002090        0xc contiki-srf06-cc26xx.a(rtimer-arch.o)
                0x00002090                rtimer_arch_schedule
 .text.soc_rtc_schedule_one_shot
                0x0000209c       0x74 contiki-srf06-cc26xx.a(soc-rtc.o)
                0x0000209c                soc_rtc_schedule_one_shot
 .text.soc_rtc_last_isr_time
                0x00002110        0xc contiki-srf06-cc26xx.a(soc-rtc.o)
                0x00002110                soc_rtc_last_isr_time
 .text.AONRTCIntHandler
                0x0000211c       0xac contiki-srf06-cc26xx.a(soc-rtc.o)
                0x0000211c                AONRTCIntHandler
 .text.soc_rtc_init
                0x000021c8       0xb0 contiki-srf06-cc26xx.a(soc-rtc.o)
                0x000021c8                soc_rtc_init
 .text.watchdog_init
                0x00002278       0x20 contiki-srf06-cc26xx.a(contiki-watchdo)
                0x00002278                watchdog_init
 .text.watchdog_periodic
                0x00002298       0x20 contiki-srf06-cc26xx.a(contiki-watchdo)
                0x00002298                watchdog_periodic
 .text.watchdog_start
                0x000022b8       0x74 contiki-srf06-cc26xx.a(contiki-watchdo)
                0x000022b8                watchdog_start
 .text.putchar  0x0000232c       0x10 contiki-srf06-cc26xx.a(putchar.o)
                0x0000232c                putchar
 .text.dbg_send_bytes
                0x0000233c       0x38 contiki-srf06-cc26xx.a(putchar.o)
                0x0000233c                dbg_send_bytes
 .text.puts     0x00002374       0x2c contiki-srf06-cc26xx.a(putchar.o)
                0x00002374                puts
 .text.ieee_addr_cpy_to
                0x000023a0       0x4c contiki-srf06-cc26xx.a(ieee-addr.o)
                0x000023a0                ieee_addr_cpy_to
 .text.power_and_clock
                0x000023ec       0x50 contiki-srf06-cc26xx.a(cc26xx-uart.o)
 .text.accessible
                0x0000243c       0x2c contiki-srf06-cc26xx.a(cc26xx-uart.o)
 .text.enable   0x00002468      0x10c contiki-srf06-cc26xx.a(cc26xx-uart.o)
 .text.cc26xx_uart_write_byte
                0x00002574       0x2c contiki-srf06-cc26xx.a(cc26xx-uart.o)
                0x00002574                cc26xx_uart_write_byte
 .text.cc26xx_uart_busy
                0x000025a0       0x1c contiki-srf06-cc26xx.a(cc26xx-uart.o)
                0x000025a0                cc26xx_uart_busy
 .text.UART0IntHandler
                0x000025bc       0x6c contiki-srf06-cc26xx.a(cc26xx-uart.o)
                0x000025bc                UART0IntHandler
 .text.lpm_drop_handler
                0x00002628       0xe0 contiki-srf06-cc26xx.a(cc26xx-uart.o)
 .text.cc26xx_uart_init
                0x00002708       0x2c contiki-srf06-cc26xx.a(cc26xx-uart.o)
                0x00002708                cc26xx_uart_init
 .text.lpm_sleep
                0x00002734       0x14 contiki-srf06-cc26xx.a(lpm.o)
                0x00002734                lpm_sleep
 .text.lpm_pin_set_default_state
                0x00002748       0x34 contiki-srf06-cc26xx.a(lpm.o)
                0x00002748                lpm_pin_set_default_state
 .text.lpm_init
                0x0000277c       0x24 contiki-srf06-cc26xx.a(lpm.o)
                0x0000277c                lpm_init
 .text.lpm_unregister_module
                0x000027a0       0x14 contiki-srf06-cc26xx.a(lpm.o)
                0x000027a0                lpm_unregister_module
 .text.lpm_register_module
                0x000027b4       0x14 contiki-srf06-cc26xx.a(lpm.o)
                0x000027b4                lpm_register_module
 .text.lpm_drop
                0x000027c8      0x2c8 contiki-srf06-cc26xx.a(lpm.o)
                0x000027c8                lpm_drop
 .text.lpm_shutdown
                0x00002a90      0x1dc contiki-srf06-cc26xx.a(lpm.o)
                0x00002a90                lpm_shutdown
 .text.gpio_interrupt_init
                0x00002c6c       0x28 contiki-srf06-cc26xx.a(gpio-interrupt.)
                0x00002c6c                gpio_interrupt_init
 .text.GPIOIntHandler
                0x00002c94       0x38 contiki-srf06-cc26xx.a(gpio-interrupt.)
                0x00002c94                GPIOIntHandler
 .text.gpio_interrupt_register_handler
                0x00002ccc       0x2c contiki-srf06-cc26xx.a(gpio-interrupt.)
                0x00002ccc                gpio_interrupt_register_handler
 .text.oscillators_request_hf_xosc
                0x00002cf8       0x30 contiki-srf06-cc26xx.a(oscillators.o)
                0x00002cf8                oscillators_request_hf_xosc
 .text.oscillators_select_lf_rcosc
                0x00002d28       0x3c contiki-srf06-cc26xx.a(oscillators.o)
                0x00002d28                oscillators_select_lf_rcosc
 .text.oscillators_select_lf_xosc
                0x00002d64       0x5c contiki-srf06-cc26xx.a(oscillators.o)
                0x00002d64                oscillators_select_lf_xosc
 .text.oscillators_switch_to_hf_rc
                0x00002dc0       0x3c contiki-srf06-cc26xx.a(oscillators.o)
                0x00002dc0                oscillators_switch_to_hf_rc
 .text.oscillators_switch_to_hf_xosc
                0x00002dfc       0x38 contiki-srf06-cc26xx.a(oscillators.o)
                0x00002dfc                oscillators_switch_to_hf_xosc
 .text.rf_core_is_accessible
                0x00002e34       0x10 contiki-srf06-cc26xx.a(rf-core.o)
                0x00002e34                rf_core_is_accessible
 .text.rf_core_wait_cmd_done
                0x00002e44       0x34 contiki-srf06-cc26xx.a(rf-core.o)
                0x00002e44                rf_core_wait_cmd_done
 .text.rf_core_cmd_done_en
                0x00002e78       0x30 contiki-srf06-cc26xx.a(rf-core.o)
                0x00002e78                rf_core_cmd_done_en
 .text.rf_core_cmd_done_dis
                0x00002ea8       0x1c contiki-srf06-cc26xx.a(rf-core.o)
                0x00002ea8                rf_core_cmd_done_dis
 .text.rf_core_get_last_radio_op
                0x00002ec4        0xc contiki-srf06-cc26xx.a(rf-core.o)
                0x00002ec4                rf_core_get_last_radio_op
 .text.rf_core_primary_mode_register
                0x00002ed0        0xc contiki-srf06-cc26xx.a(rf-core.o)
                0x00002ed0                rf_core_primary_mode_register
 .text.process_thread_rf_core_process
                0x00002edc       0x7c contiki-srf06-cc26xx.a(rf-core.o)
 .text.rf_core_setup_interrupts
                0x00002f58       0x80 contiki-srf06-cc26xx.a(rf-core.o)
                0x00002f58                rf_core_setup_interrupts
 .text.rf_core_send_cmd
                0x00002fd8       0xc4 contiki-srf06-cc26xx.a(rf-core.o)
                0x00002fd8                rf_core_send_cmd
 .text.rf_core_power_up
                0x0000309c       0xf0 contiki-srf06-cc26xx.a(rf-core.o)
                0x0000309c                rf_core_power_up
 .text.RFCCPE1IntHandler
                0x0000318c       0x2c contiki-srf06-cc26xx.a(rf-core.o)
                0x0000318c                RFCCPE1IntHandler
 .text.RFCCPE0IntHandler
                0x000031b8       0x88 contiki-srf06-cc26xx.a(rf-core.o)
                0x000031b8                RFCCPE0IntHandler
 .text.rf_core_stop_rat
                0x00003240       0x80 contiki-srf06-cc26xx.a(rf-core.o)
                0x00003240                rf_core_stop_rat
 .text.rf_core_power_down
                0x000032c0      0x104 contiki-srf06-cc26xx.a(rf-core.o)
                0x000032c0                rf_core_power_down
 .text.rf_core_start_rat
                0x000033c4       0x68 contiki-srf06-cc26xx.a(rf-core.o)
                0x000033c4                rf_core_start_rat
 .text.rf_core_set_modesel
                0x0000342c       0x58 contiki-srf06-cc26xx.a(rf-core.o)
                0x0000342c                rf_core_set_modesel
 .text.rf_ble_is_active
                0x00003484        0xc contiki-srf06-cc26xx.a(rf-ble.o)
                0x00003484                rf_ble_is_active
 .text.random_init
                0x00003490        0x8 contiki-srf06-cc26xx.a(random.o)
                0x00003490                random_init
 .text.random_rand
                0x00003498        0xc contiki-srf06-cc26xx.a(random.o)
                0x00003498                random_rand
 .text.power_up
                0x000034a4       0x50 contiki-srf06-cc26xx.a(soc-trng.o)
 .text.request  0x000034f4       0x14 contiki-srf06-cc26xx.a(soc-trng.o)
 .text.process_thread_soc_trng_process
                0x00003508       0xb4 contiki-srf06-cc26xx.a(soc-trng.o)
 .text.soc_trng_init
                0x000035bc       0x28 contiki-srf06-cc26xx.a(soc-trng.o)
                0x000035bc                soc_trng_init
 .text.TRNGIntHandler
                0x000035e4       0x58 contiki-srf06-cc26xx.a(soc-trng.o)
                0x000035e4                TRNGIntHandler
 .text.soc_trng_rand_synchronous
                0x0000363c      0x114 contiki-srf06-cc26xx.a(soc-trng.o)
                0x0000363c                soc_trng_rand_synchronous
 .text.printf   0x00003750       0x24 contiki-srf06-cc26xx.a(dbg-printf.o)
                0x00003750                printf
 .text.write_str
                0x00003774       0x10 contiki-srf06-cc26xx.a(dbg-printf.o)
 .text.fill_space
                0x00003784       0x48 contiki-srf06-cc26xx.a(strformat.o)
 .text.format_str_v
                0x000037cc      0x9ec contiki-srf06-cc26xx.a(strformat.o)
                0x000037cc                format_str_v
 .text.autostart_start
                0x000041b8       0x1c contiki-srf06-cc26xx.a(autostart.o)
                0x000041b8                autostart_start
 .text.process_thread_ctimer_process
                0x000041d4       0xa0 contiki-srf06-cc26xx.a(ctimer.o)
 .text.ctimer_stop
                0x00004274       0x2c contiki-srf06-cc26xx.a(ctimer.o)
                0x00004274                ctimer_stop
 .text.ctimer_restart
                0x000042a0       0x3c contiki-srf06-cc26xx.a(ctimer.o)
                0x000042a0                ctimer_restart
 .text.ctimer_set_with_process
                0x000042dc       0x4c contiki-srf06-cc26xx.a(ctimer.o)
                0x000042dc                ctimer_set_with_process
 .text.ctimer_set
                0x00004328       0x18 contiki-srf06-cc26xx.a(ctimer.o)
                0x00004328                ctimer_set
 .text.ctimer_reset
                0x00004340       0x3c contiki-srf06-cc26xx.a(ctimer.o)
                0x00004340                ctimer_reset
 .text.ctimer_init
                0x0000437c       0x2c contiki-srf06-cc26xx.a(ctimer.o)
                0x0000437c                ctimer_init
 .text.energest_init
                0x000043a8        0x4 contiki-srf06-cc26xx.a(energest.o)
                0x000043a8                energest_init
 .text.etimer_expired
                0x000043ac        0xc contiki-srf06-cc26xx.a(etimer.o)
                0x000043ac                etimer_expired
 .text.etimer_expiration_time
                0x000043b8        0x8 contiki-srf06-cc26xx.a(etimer.o)
                0x000043b8                etimer_expiration_time
 .text.etimer_pending
                0x000043c0       0x14 contiki-srf06-cc26xx.a(etimer.o)
                0x000043c0                etimer_pending
 .text.etimer_next_expiration_time
                0x000043d4       0x18 contiki-srf06-cc26xx.a(etimer.o)
                0x000043d4                etimer_next_expiration_time
 .text.update_time
                0x000043ec       0x54 contiki-srf06-cc26xx.a(etimer.o)
 .text.etimer_stop
                0x00004440       0x3c contiki-srf06-cc26xx.a(etimer.o)
                0x00004440                etimer_stop
 .text.etimer_request_poll
                0x0000447c       0x10 contiki-srf06-cc26xx.a(etimer.o)
                0x0000447c                etimer_request_poll
 .text.process_thread_etimer_process
                0x0000448c       0xd4 contiki-srf06-cc26xx.a(etimer.o)
 .text.add_timer
                0x00004560       0x5c contiki-srf06-cc26xx.a(etimer.o)
 .text.etimer_restart
                0x000045bc       0x10 contiki-srf06-cc26xx.a(etimer.o)
                0x000045bc                etimer_restart
 .text.etimer_reset
                0x000045cc       0x10 contiki-srf06-cc26xx.a(etimer.o)
                0x000045cc                etimer_reset
 .text.etimer_set
                0x000045dc       0x10 contiki-srf06-cc26xx.a(etimer.o)
                0x000045dc                etimer_set
 .text.process_alloc_event
                0x000045ec       0x10 contiki-srf06-cc26xx.a(process.o)
                0x000045ec                process_alloc_event
 .text.call_process
                0x000045fc       0x4c contiki-srf06-cc26xx.a(process.o)
 .text.exit_process
                0x00004648       0xc0 contiki-srf06-cc26xx.a(process.o)
 .text.process_init
                0x00004708       0x3c contiki-srf06-cc26xx.a(process.o)
                0x00004708                process_init
 .text.process_run
                0x00004744      0x10c contiki-srf06-cc26xx.a(process.o)
                0x00004744                process_run
 .text.process_nevents
                0x00004850       0x18 contiki-srf06-cc26xx.a(process.o)
                0x00004850                process_nevents
 .text.process_post
                0x00004868       0x50 contiki-srf06-cc26xx.a(process.o)
                0x00004868                process_post
 .text.process_post_synch
                0x000048b8       0x14 contiki-srf06-cc26xx.a(process.o)
                0x000048b8                process_post_synch
 .text.process_start
                0x000048cc       0x58 contiki-srf06-cc26xx.a(process.o)
                0x000048cc                process_start
 .text.process_poll
                0x00004924       0x1c contiki-srf06-cc26xx.a(process.o)
                0x00004924                process_poll
 .text.rtimer_run_next
                0x00004940       0x24 contiki-srf06-cc26xx.a(rtimer.o)
                0x00004940                rtimer_run_next
 .text.rtimer_set
                0x00004964       0x30 contiki-srf06-cc26xx.a(rtimer.o)
                0x00004964                rtimer_set
 .text.rtimer_init
                0x00004994        0x8 contiki-srf06-cc26xx.a(rtimer.o)
                0x00004994                rtimer_init
 .text.timer_reset
                0x0000499c        0xc contiki-srf06-cc26xx.a(timer.o)
                0x0000499c                timer_reset
 .text.timer_expired
                0x000049a8       0x1c contiki-srf06-cc26xx.a(timer.o)
                0x000049a8                timer_expired
 .text.timer_restart
                0x000049c4        0xc contiki-srf06-cc26xx.a(timer.o)
                0x000049c4                timer_restart
 .text.timer_set
                0x000049d0       0x10 contiki-srf06-cc26xx.a(timer.o)
                0x000049d0                timer_set
 .text.process_thread_serial_line_process
                0x000049e0       0xe4 contiki-srf06-cc26xx.a(serial-line.o)
 .text.serial_line_init
                0x00004ac4       0x28 contiki-srf06-cc26xx.a(serial-line.o)
                0x00004ac4                serial_line_init
 .text.list_init
                0x00004aec        0x8 contiki-srf06-cc26xx.a(list.o)
                0x00004aec                list_init
 .text.list_head
                0x00004af4        0x4 contiki-srf06-cc26xx.a(list.o)
                0x00004af4                list_head
 .text.list_add
                0x00004af8       0x50 contiki-srf06-cc26xx.a(list.o)
                0x00004af8                list_add
 .text.list_push
                0x00004b48       0x40 contiki-srf06-cc26xx.a(list.o)
                0x00004b48                list_push
 .text.list_remove
                0x00004b88       0x2c contiki-srf06-cc26xx.a(list.o)
                0x00004b88                list_remove
 .text.list_length
                0x00004bb4       0x18 contiki-srf06-cc26xx.a(list.o)
                0x00004bb4                list_length
 .text.list_item_next
                0x00004bcc        0x8 contiki-srf06-cc26xx.a(list.o)
                0x00004bcc                list_item_next
 .text.ringbuf_init
                0x00004bd4       0x10 contiki-srf06-cc26xx.a(ringbuf.o)
                0x00004bd4                ringbuf_init
 .text.ringbuf_get
                0x00004be4       0x28 contiki-srf06-cc26xx.a(ringbuf.o)
                0x00004be4                ringbuf_get
 .text.compress_addr_64
                0x00004c0c       0xac contiki-srf06-cc26xx.a(sicslowpan.o)
 .text.store_fragment
                0x00004cb8       0x70 contiki-srf06-cc26xx.a(sicslowpan.o)
 .text.add_fragment
                0x00004d28      0x1f4 contiki-srf06-cc26xx.a(sicslowpan.o)
 .text.uncompress_addr
                0x00004f1c       0xa8 contiki-srf06-cc26xx.a(sicslowpan.o)
 .text.set_packet_attrs
                0x00004fc4       0x48 contiki-srf06-cc26xx.a(sicslowpan.o)
 .text.input    0x0000500c      0x708 contiki-srf06-cc26xx.a(sicslowpan.o)
 .text.sicslowpan_init
                0x00005714       0x28 contiki-srf06-cc26xx.a(sicslowpan.o)
                0x00005714                sicslowpan_init
 .text.addr_context_lookup_by_prefix
                0x0000573c       0x28 contiki-srf06-cc26xx.a(sicslowpan.o)
 .text.send_packet
                0x00005764       0x28 contiki-srf06-cc26xx.a(sicslowpan.o)
 .text.output   0x0000578c      0x830 contiki-srf06-cc26xx.a(sicslowpan.o)
 .text.packet_sent
                0x00005fbc       0x2c contiki-srf06-cc26xx.a(sicslowpan.o)
 .text.uip_add32
                0x00005fe8       0x6c contiki-srf06-cc26xx.a(uip6.o)
                0x00005fe8                uip_add32
 .text.upper_layer_chksum
                0x00006054       0xe0 contiki-srf06-cc26xx.a(uip6.o)
 .text.uip_icmp6chksum
                0x00006134        0xc contiki-srf06-cc26xx.a(uip6.o)
                0x00006134                uip_icmp6chksum
 .text.uip_tcpchksum
                0x00006140        0xc contiki-srf06-cc26xx.a(uip6.o)
                0x00006140                uip_tcpchksum
 .text.uip_udpchksum
                0x0000614c        0xc contiki-srf06-cc26xx.a(uip6.o)
                0x0000614c                uip_udpchksum
 .text.uip_unlisten
                0x00006158       0x30 contiki-srf06-cc26xx.a(uip6.o)
                0x00006158                uip_unlisten
 .text.uip_add_rcv_nxt
                0x00006188       0x38 contiki-srf06-cc26xx.a(uip6.o)
 .text.uip_htonl
                0x000061c0       0x18 contiki-srf06-cc26xx.a(uip6.o)
                0x000061c0                uip_htonl
 .text.ext_hdr_options_process
                0x000061d8       0xc4 contiki-srf06-cc26xx.a(uip6.o)
 .text.uip_udp_new
                0x0000629c       0xa8 contiki-srf06-cc26xx.a(uip6.o)
                0x0000629c                uip_udp_new
 .text.remove_ext_hdr
                0x00006344       0x60 contiki-srf06-cc26xx.a(uip6.o)
                0x00006344                remove_ext_hdr
 .text.uip_process
                0x000063a4     0x121c contiki-srf06-cc26xx.a(uip6.o)
                0x000063a4                uip_process
 .text.uip_init
                0x000075c0       0x64 contiki-srf06-cc26xx.a(uip6.o)
                0x000075c0                uip_init
 .text.uip_ds6_get_link_local
                0x00007624       0x50 contiki-srf06-cc26xx.a(uip-ds6.o)
                0x00007624                uip_ds6_get_link_local
 .text.uip_ds6_select_src
                0x00007674       0xe4 contiki-srf06-cc26xx.a(uip-ds6.o)
                0x00007674                uip_ds6_select_src
 .text.uip_ds6_compute_reachable_time
                0x00007758       0x2c contiki-srf06-cc26xx.a(uip-ds6.o)
                0x00007758                uip_ds6_compute_reachable_time
 .text.uip_ds6_set_addr_iid
                0x00007784       0x18 contiki-srf06-cc26xx.a(uip-ds6.o)
                0x00007784                uip_ds6_set_addr_iid
 .text.uip_ds6_is_addr_onlink
                0x0000779c       0x4c contiki-srf06-cc26xx.a(uip-ds6.o)
                0x0000779c                uip_ds6_is_addr_onlink
 .text.uip_ds6_list_loop
                0x000077e8       0x60 contiki-srf06-cc26xx.a(uip-ds6.o)
                0x000077e8                uip_ds6_list_loop
 .text.uip_ds6_maddr_lookup
                0x00007848       0x30 contiki-srf06-cc26xx.a(uip-ds6.o)
                0x00007848                uip_ds6_maddr_lookup
 .text.uip_ds6_addr_rm
                0x00007878       0x4c contiki-srf06-cc26xx.a(uip-ds6.o)
                0x00007878                uip_ds6_addr_rm
 .text.uip_ds6_maddr_add
                0x000078c4       0x44 contiki-srf06-cc26xx.a(uip-ds6.o)
                0x000078c4                uip_ds6_maddr_add
 .text.uip_ds6_addr_lookup
                0x00007908       0x30 contiki-srf06-cc26xx.a(uip-ds6.o)
                0x00007908                uip_ds6_addr_lookup
 .text.uip_ds6_addr_add
                0x00007938       0xa0 contiki-srf06-cc26xx.a(uip-ds6.o)
                0x00007938                uip_ds6_addr_add
 .text.uip_ds6_prefix_add
                0x000079d8       0x68 contiki-srf06-cc26xx.a(uip-ds6.o)
                0x000079d8                uip_ds6_prefix_add
 .text.uip_ds6_periodic
                0x00007a40       0x60 contiki-srf06-cc26xx.a(uip-ds6.o)
                0x00007a40                uip_ds6_periodic
 .text.uip_ds6_init
                0x00007aa0      0x104 contiki-srf06-cc26xx.a(uip-ds6.o)
                0x00007aa0                uip_ds6_init
 .text.uip_ds6_link_neighbor_callback
                0x00007ba4       0x34 contiki-srf06-cc26xx.a(uip-ds6-nbr.o)
                0x00007ba4                uip_ds6_link_neighbor_callback
 .text.uip_ds6_nbr_ipaddr_from_lladdr
                0x00007bd8       0x14 contiki-srf06-cc26xx.a(uip-ds6-nbr.o)
                0x00007bd8                uip_ds6_nbr_ipaddr_from_lladdr
 .text.uip_ds6_nbr_lookup
                0x00007bec       0x38 contiki-srf06-cc26xx.a(uip-ds6-nbr.o)
                0x00007bec                uip_ds6_nbr_lookup
 .text.uip_ds6_nbr_get_ll
                0x00007c24       0x14 contiki-srf06-cc26xx.a(uip-ds6-nbr.o)
                0x00007c24                uip_ds6_nbr_get_ll
 .text.uip_ds6_nbr_lladdr_from_ipaddr
                0x00007c38       0x1c contiki-srf06-cc26xx.a(uip-ds6-nbr.o)
                0x00007c38                uip_ds6_nbr_lladdr_from_ipaddr
 .text.uip_ds6_nbr_rm
                0x00007c54       0x1c contiki-srf06-cc26xx.a(uip-ds6-nbr.o)
                0x00007c54                uip_ds6_nbr_rm
 .text.uip_ds6_nbr_add
                0x00007c70       0x34 contiki-srf06-cc26xx.a(uip-ds6-nbr.o)
                0x00007c70                uip_ds6_nbr_add
 .text.uip_ds6_neighbors_init
                0x00007ca4       0x20 contiki-srf06-cc26xx.a(uip-ds6-nbr.o)
                0x00007ca4                uip_ds6_neighbors_init
 .text.uip_ds6_route_head
                0x00007cc4       0x10 contiki-srf06-cc26xx.a(uip-ds6-route.o)
                0x00007cc4                uip_ds6_route_head
 .text.uip_ds6_route_next
                0x00007cd4        0xc contiki-srf06-cc26xx.a(uip-ds6-route.o)
                0x00007cd4                uip_ds6_route_next
 .text.uip_ds6_defrt_choose
                0x00007ce0       0x34 contiki-srf06-cc26xx.a(uip-ds6-route.o)
                0x00007ce0                uip_ds6_defrt_choose
 .text.uip_ds6_defrt_lookup
                0x00007d14       0x34 contiki-srf06-cc26xx.a(uip-ds6-route.o)
                0x00007d14                uip_ds6_defrt_lookup
 .text.call_route_callback
                0x00007d48       0x54 contiki-srf06-cc26xx.a(uip-ds6-route.o)
 .text.uip_ds6_defrt_rm
                0x00007d9c       0x54 contiki-srf06-cc26xx.a(uip-ds6-route.o)
                0x00007d9c                uip_ds6_defrt_rm
 .text.uip_ds6_defrt_periodic
                0x00007df0       0x48 contiki-srf06-cc26xx.a(uip-ds6-route.o)
                0x00007df0                uip_ds6_defrt_periodic
 .text.uip_ds6_route_lookup
                0x00007e38       0x90 contiki-srf06-cc26xx.a(uip-ds6-route.o)
                0x00007e38                uip_ds6_route_lookup
 .text.uip_ds6_defrt_add
                0x00007ec8       0x60 contiki-srf06-cc26xx.a(uip-ds6-route.o)
                0x00007ec8                uip_ds6_defrt_add
 .text.uip_ds6_route_is_nexthop
                0x00007f28       0x20 contiki-srf06-cc26xx.a(uip-ds6-route.o)
                0x00007f28                uip_ds6_route_is_nexthop
 .text.uip_ds6_route_nexthop
                0x00007f48       0x1c contiki-srf06-cc26xx.a(uip-ds6-route.o)
                0x00007f48                uip_ds6_route_nexthop
 .text.uip_ds6_route_rm
                0x00007f64       0xb4 contiki-srf06-cc26xx.a(uip-ds6-route.o)
                0x00007f64                uip_ds6_route_rm
 .text.rm_routelist
                0x00008018       0x30 contiki-srf06-cc26xx.a(uip-ds6-route.o)
 .text.rm_routelist_callback
                0x00008048        0x8 contiki-srf06-cc26xx.a(uip-ds6-route.o)
 .text.uip_ds6_route_add
                0x00008050      0x10c contiki-srf06-cc26xx.a(uip-ds6-route.o)
                0x00008050                uip_ds6_route_add
 .text.uip_ds6_route_init
                0x0000815c       0x58 contiki-srf06-cc26xx.a(uip-ds6-route.o)
                0x0000815c                uip_ds6_route_init
 .text.echo_reply_input
                0x000081b4       0xb4 contiki-srf06-cc26xx.a(uip-icmp6.o)
 .text.uip_icmp6_input
                0x00008268       0x44 contiki-srf06-cc26xx.a(uip-icmp6.o)
                0x00008268                uip_icmp6_input
 .text.echo_request_input
                0x000082ac       0xc4 contiki-srf06-cc26xx.a(uip-icmp6.o)
 .text.uip_icmp6_register_input_handler
                0x00008370       0x14 contiki-srf06-cc26xx.a(uip-icmp6.o)
                0x00008370                uip_icmp6_register_input_handler
 .text.uip_icmp6_init
                0x00008384       0x28 contiki-srf06-cc26xx.a(uip-icmp6.o)
                0x00008384                uip_icmp6_init
 .text.uip_icmp6_send
                0x000083ac       0x88 contiki-srf06-cc26xx.a(uip-icmp6.o)
                0x000083ac                uip_icmp6_send
 .text.uip_icmp6_error_output
                0x00008434      0x1b0 contiki-srf06-cc26xx.a(uip-icmp6.o)
                0x00008434                uip_icmp6_error_output
 .text.uip_nd6_init
                0x000085e4       0x10 contiki-srf06-cc26xx.a(uip-nd6.o)
                0x000085e4                uip_nd6_init
 .text.ns_input
                0x000085f4      0x31c contiki-srf06-cc26xx.a(uip-nd6.o)
 .text.process_thread_simple_udp_process
                0x00008910       0xc0 contiki-srf06-cc26xx.a(simple-udp.o)
 .text.simple_udp_register
                0x000089d0       0xa0 contiki-srf06-cc26xx.a(simple-udp.o)
                0x000089d0                simple_udp_register
 .text.simple_udp_sendto
                0x00008a70       0x20 contiki-srf06-cc26xx.a(simple-udp.o)
                0x00008a70                simple_udp_sendto
 .text.tcpip_output
                0x00008a90       0x18 contiki-srf06-cc26xx.a(tcpip.o)
                0x00008a90                tcpip_output
 .text.tcpip_set_outputfunc
                0x00008aa8        0xc contiki-srf06-cc26xx.a(tcpip.o)
                0x00008aa8                tcpip_set_outputfunc
 .text.start_periodic_tcp_timer
                0x00008ab4       0x20 contiki-srf06-cc26xx.a(tcpip.o)
 .text.tcpip_uipcall
                0x00008ad4       0x78 contiki-srf06-cc26xx.a(tcpip.o)
                0x00008ad4                tcpip_uipcall
 .text.tcpip_input
                0x00008b4c       0x2c contiki-srf06-cc26xx.a(tcpip.o)
                0x00008b4c                tcpip_input
 .text.tcpip_icmp6_call
                0x00008b78       0x2c contiki-srf06-cc26xx.a(tcpip.o)
                0x00008b78                tcpip_icmp6_call
 .text.tcpip_ipv6_output
                0x00008ba4       0xc4 contiki-srf06-cc26xx.a(tcpip.o)
                0x00008ba4                tcpip_ipv6_output
 .text.process_thread_tcpip_process
                0x00008c68      0x208 contiki-srf06-cc26xx.a(tcpip.o)
 .text.udp_new  0x00008e70       0x20 contiki-srf06-cc26xx.a(tcpip.o)
                0x00008e70                udp_new
 .text.uip_debug_ipaddr_print
                0x00008e90       0xbc contiki-srf06-cc26xx.a(uip-debug.o)
                0x00008e90                uip_debug_ipaddr_print
 .text.uip_udp_packet_send
                0x00008f4c       0x54 contiki-srf06-cc26xx.a(uip-udp-packet.)
                0x00008f4c                uip_udp_packet_send
 .text.uip_udp_packet_sendto
                0x00008fa0       0x44 contiki-srf06-cc26xx.a(uip-udp-packet.)
                0x00008fa0                uip_udp_packet_sendto
 .text.rpl_get_mode
                0x00008fe4        0xc contiki-srf06-cc26xx.a(rpl.o)
                0x00008fe4                rpl_get_mode
 .text.rpl_init
                0x00008ff0       0x50 contiki-srf06-cc26xx.a(rpl.o)
                0x00008ff0                rpl_init
 .text.rpl_purge_dags
                0x00009040       0x6c contiki-srf06-cc26xx.a(rpl.o)
                0x00009040                rpl_purge_dags
 .text.rpl_ipv6_neighbor_callback
                0x000090ac       0x40 contiki-srf06-cc26xx.a(rpl.o)
                0x000090ac                rpl_ipv6_neighbor_callback
 .text.rpl_link_neighbor_callback
                0x000090ec       0x6c contiki-srf06-cc26xx.a(rpl.o)
                0x000090ec                rpl_link_neighbor_callback
 .text.rpl_add_route
                0x00009158       0x3c contiki-srf06-cc26xx.a(rpl.o)
                0x00009158                rpl_add_route
 .text.rpl_remove_routes_by_nexthop
                0x00009194       0x34 contiki-srf06-cc26xx.a(rpl.o)
                0x00009194                rpl_remove_routes_by_nexthop
 .text.rpl_remove_routes
                0x000091c8       0x34 contiki-srf06-cc26xx.a(rpl.o)
                0x000091c8                rpl_remove_routes
 .text.rpl_purge_routes
                0x000091fc       0x88 contiki-srf06-cc26xx.a(rpl.o)
                0x000091fc                rpl_purge_routes
 .text.rpl_rank_via_parent
                0x00009284       0x20 contiki-srf06-cc26xx.a(rpl-dag.o)
                0x00009284                rpl_rank_via_parent
 .text.rpl_get_any_dag
                0x000092a4       0x18 contiki-srf06-cc26xx.a(rpl-dag.o)
                0x000092a4                rpl_get_any_dag
 .text.rpl_get_instance
                0x000092bc       0x1c contiki-srf06-cc26xx.a(rpl-dag.o)
                0x000092bc                rpl_get_instance
 .text.rpl_repair_root
                0x000092d8       0x74 contiki-srf06-cc26xx.a(rpl-dag.o)
                0x000092d8                rpl_repair_root
 .text.rpl_get_dag
                0x0000934c       0x5c contiki-srf06-cc26xx.a(rpl-dag.o)
                0x0000934c                rpl_get_dag
 .text.find_parent_any_dag_any_instance
                0x000093a8       0x1c contiki-srf06-cc26xx.a(rpl-dag.o)
 .text.rpl_find_parent_any_dag
                0x000093c4       0x20 contiki-srf06-cc26xx.a(rpl-dag.o)
                0x000093c4                rpl_find_parent_any_dag
 .text.rpl_find_parent
                0x000093e4       0x1c contiki-srf06-cc26xx.a(rpl-dag.o)
                0x000093e4                rpl_find_parent
 .text.rpl_get_parent
                0x00009400       0x14 contiki-srf06-cc26xx.a(rpl-dag.o)
                0x00009400                rpl_get_parent
 .text.rpl_set_preferred_parent
                0x00009414       0x28 contiki-srf06-cc26xx.a(rpl-dag.o)
 .text.set_ip_from_prefix
                0x0000943c       0x40 contiki-srf06-cc26xx.a(rpl-dag.o)
 .text.check_prefix
                0x0000947c       0x70 contiki-srf06-cc26xx.a(rpl-dag.o)
 .text.rpl_set_prefix
                0x000094ec       0xa4 contiki-srf06-cc26xx.a(rpl-dag.o)
                0x000094ec                rpl_set_prefix
 .text.rpl_set_default_route
                0x00009590       0x30 contiki-srf06-cc26xx.a(rpl-dag.o)
                0x00009590                rpl_set_default_route
 .text.rpl_nullify_parent
                0x000095c0       0x54 contiki-srf06-cc26xx.a(rpl-dag.o)
                0x000095c0                rpl_nullify_parent
 .text.rpl_local_repair
                0x00009614       0x94 contiki-srf06-cc26xx.a(rpl-dag.o)
                0x00009614                rpl_local_repair
 .text.rpl_remove_parent
                0x000096a8       0x1c contiki-srf06-cc26xx.a(rpl-dag.o)
                0x000096a8                rpl_remove_parent
 .text.remove_parents
                0x000096c4       0x4c contiki-srf06-cc26xx.a(rpl-dag.o)
 .text.nbr_callback
                0x00009710        0x8 contiki-srf06-cc26xx.a(rpl-dag.o)
 .text.rpl_alloc_instance
                0x00009718       0x48 contiki-srf06-cc26xx.a(rpl-dag.o)
                0x00009718                rpl_alloc_instance
 .text.rpl_alloc_dag
                0x00009760       0x64 contiki-srf06-cc26xx.a(rpl-dag.o)
                0x00009760                rpl_alloc_dag
 .text.rpl_free_dag
                0x000097c4       0x40 contiki-srf06-cc26xx.a(rpl-dag.o)
                0x000097c4                rpl_free_dag
 .text.rpl_add_parent
                0x00009804       0x34 contiki-srf06-cc26xx.a(rpl-dag.o)
                0x00009804                rpl_add_parent
 .text.rpl_join_instance
                0x00009838      0x150 contiki-srf06-cc26xx.a(rpl-dag.o)
                0x00009838                rpl_join_instance
 .text.rpl_get_parent_link_stats
                0x00009988       0x18 contiki-srf06-cc26xx.a(rpl-dag.o)
                0x00009988                rpl_get_parent_link_stats
 .text.rpl_parent_is_fresh
                0x000099a0        0xc contiki-srf06-cc26xx.a(rpl-dag.o)
                0x000099a0                rpl_parent_is_fresh
 .text.best_parent
                0x000099ac       0x80 contiki-srf06-cc26xx.a(rpl-dag.o)
 .text.rpl_select_parent
                0x00009a2c       0x54 contiki-srf06-cc26xx.a(rpl-dag.o)
                0x00009a2c                rpl_select_parent
 .text.rpl_parent_is_reachable
                0x00009a80       0x34 contiki-srf06-cc26xx.a(rpl-dag.o)
                0x00009a80                rpl_parent_is_reachable
 .text.rpl_get_parent_ipaddr
                0x00009ab4       0x18 contiki-srf06-cc26xx.a(rpl-dag.o)
                0x00009ab4                rpl_get_parent_ipaddr
 .text.rpl_move_parent
                0x00009acc       0x58 contiki-srf06-cc26xx.a(rpl-dag.o)
                0x00009acc                rpl_move_parent
 .text.rpl_select_dag
                0x00009b24      0x190 contiki-srf06-cc26xx.a(rpl-dag.o)
                0x00009b24                rpl_select_dag
 .text.rpl_process_parent_event
                0x00009cb4       0xa4 contiki-srf06-cc26xx.a(rpl-dag.o)
                0x00009cb4                rpl_process_parent_event
 .text.rpl_recalculate_ranks
                0x00009d58       0x54 contiki-srf06-cc26xx.a(rpl-dag.o)
                0x00009d58                rpl_recalculate_ranks
 .text.rpl_add_dag
                0x00009dac      0x128 contiki-srf06-cc26xx.a(rpl-dag.o)
                0x00009dac                rpl_add_dag
 .text.rpl_process_dio
                0x00009ed4      0x3d4 contiki-srf06-cc26xx.a(rpl-dag.o)
                0x00009ed4                rpl_process_dio
 .text.rpl_dag_init
                0x0000a2a8       0x1c contiki-srf06-cc26xx.a(rpl-dag.o)
                0x0000a2a8                rpl_dag_init
 .text.rpl_remove_header
                0x0000a2c4       0x8c contiki-srf06-cc26xx.a(rpl-ext-header.)
                0x0000a2c4                rpl_remove_header
 .text.update_hbh_header
                0x0000a350       0xe8 contiki-srf06-cc26xx.a(rpl-ext-header.)
 .text.insert_hbh_header
                0x0000a438       0xd0 contiki-srf06-cc26xx.a(rpl-ext-header.)
 .text.rpl_update_header
                0x0000a508       0x78 contiki-srf06-cc26xx.a(rpl-ext-header.)
                0x0000a508                rpl_update_header
 .text.rpl_verify_hbh_header
                0x0000a580      0x10c contiki-srf06-cc26xx.a(rpl-ext-header.)
                0x0000a580                rpl_verify_hbh_header
 .text.dao_ack_input
                0x0000a68c       0x18 contiki-srf06-cc26xx.a(rpl-icmp6.o)
 .text.rpl_icmp6_register_handlers
                0x0000a6a4       0x34 contiki-srf06-cc26xx.a(rpl-icmp6.o)
                0x0000a6a4                rpl_icmp6_register_handlers
 .text.dio_output
                0x0000a6d8      0x30c contiki-srf06-cc26xx.a(rpl-icmp6.o)
                0x0000a6d8                dio_output
 .text.dis_output
                0x0000a9e4       0x60 contiki-srf06-cc26xx.a(rpl-icmp6.o)
                0x0000a9e4                dis_output
 .text.dio_input
                0x0000aa44      0x280 contiki-srf06-cc26xx.a(rpl-icmp6.o)
 .text.dao_output_target
                0x0000acc4      0x100 contiki-srf06-cc26xx.a(rpl-icmp6.o)
                0x0000acc4                dao_output_target
 .text.dao_output
                0x0000adc4       0x9c contiki-srf06-cc26xx.a(rpl-icmp6.o)
                0x0000adc4                dao_output
 .text.rpl_icmp6_update_nbr_table
                0x0000ae60       0x34 contiki-srf06-cc26xx.a(rpl-icmp6.o)
                0x0000ae60                rpl_icmp6_update_nbr_table
 .text.dao_input
                0x0000ae94      0x334 contiki-srf06-cc26xx.a(rpl-icmp6.o)
 .text.dis_input
                0x0000b1c8       0x68 contiki-srf06-cc26xx.a(rpl-icmp6.o)
 .text.reset    0x0000b230        0x4 contiki-srf06-cc26xx.a(rpl-mrhof.o)
 .text.best_dag
                0x0000b234       0x24 contiki-srf06-cc26xx.a(rpl-mrhof.o)
 .text.update_metric_container
                0x0000b258        0x8 contiki-srf06-cc26xx.a(rpl-mrhof.o)
 .text.parent_link_metric
                0x0000b260       0x14 contiki-srf06-cc26xx.a(rpl-mrhof.o)
 .text.parent_path_cost
                0x0000b274       0x30 contiki-srf06-cc26xx.a(rpl-mrhof.o)
 .text.rank_via_parent
                0x0000b2a4       0x34 contiki-srf06-cc26xx.a(rpl-mrhof.o)
 .text.parent_is_acceptable
                0x0000b2d8       0x28 contiki-srf06-cc26xx.a(rpl-mrhof.o)
 .text.best_parent
                0x0000b300       0x74 contiki-srf06-cc26xx.a(rpl-mrhof.o)
 .text.parent_has_usable_link
                0x0000b374       0x14 contiki-srf06-cc26xx.a(rpl-mrhof.o)
 .text.rpl_schedule_unicast_dio_immediately
                0x0000b388       0x18 contiki-srf06-cc26xx.a(rpl-timers.o)
                0x0000b388                rpl_schedule_unicast_dio_immediately
 .text.handle_unicast_dio_timer
                0x0000b3a0       0x18 contiki-srf06-cc26xx.a(rpl-timers.o)
 .text.get_probing_delay
                0x0000b3b8       0x50 contiki-srf06-cc26xx.a(rpl-timers.o)
                0x0000b3b8                get_probing_delay
 .text.rpl_schedule_probing
                0x0000b408       0x20 contiki-srf06-cc26xx.a(rpl-timers.o)
                0x0000b408                rpl_schedule_probing
 .text.new_dio_interval
                0x0000b428       0x68 contiki-srf06-cc26xx.a(rpl-timers.o)
 .text.rpl_reset_dio_timer
                0x0000b490       0x20 contiki-srf06-cc26xx.a(rpl-timers.o)
                0x0000b490                rpl_reset_dio_timer
 .text.rpl_reset_periodic_timer
                0x0000b4b0       0x40 contiki-srf06-cc26xx.a(rpl-timers.o)
                0x0000b4b0                rpl_reset_periodic_timer
 .text.get_probing_target
                0x0000b4f0      0x110 contiki-srf06-cc26xx.a(rpl-timers.o)
                0x0000b4f0                get_probing_target
 .text.handle_probing_timer
                0x0000b600       0x30 contiki-srf06-cc26xx.a(rpl-timers.o)
 .text.set_dao_lifetime_timer
                0x0000b630       0x44 contiki-srf06-cc26xx.a(rpl-timers.o)
 .text.schedule_dao
                0x0000b674       0x50 contiki-srf06-cc26xx.a(rpl-timers.o)
 .text.rpl_schedule_dao
                0x0000b6c4        0xc contiki-srf06-cc26xx.a(rpl-timers.o)
                0x0000b6c4                rpl_schedule_dao
 .text.handle_dio_timer
                0x0000b6d0       0x90 contiki-srf06-cc26xx.a(rpl-timers.o)
 .text.handle_dao_timer
                0x0000b760       0x58 contiki-srf06-cc26xx.a(rpl-timers.o)
 .text.handle_periodic_timer
                0x0000b7b8       0x60 contiki-srf06-cc26xx.a(rpl-timers.o)
 .text.SafeHapiVoid
                0x0000b818       0x30 contiki-srf06-cc26xx.a(adi.o)
                0x0000b818                SafeHapiVoid
 .text.NOROM_AONRTCCurrentCompareValueGet
                0x0000b848       0x28 contiki-srf06-cc26xx.a(aon_rtc.o)
                0x0000b848                NOROM_AONRTCCurrentCompareValueGet
 .text.NOROM_ChipInfo_GetSupportedProtocol_BV
                0x0000b870       0x10 contiki-srf06-cc26xx.a(chipinfo.o)
                0x0000b870                NOROM_ChipInfo_GetSupportedProtocol_BV
 .text.NOROM_ChipInfo_GetChipFamily
                0x0000b880       0x58 contiki-srf06-cc26xx.a(chipinfo.o)
                0x0000b880                NOROM_ChipInfo_GetChipFamily
 .text.NOROM_ChipInfo_GetChipType
                0x0000b8d8       0x30 contiki-srf06-cc26xx.a(chipinfo.o)
                0x0000b8d8                NOROM_ChipInfo_GetChipType
 .text.NOROM_ChipInfo_GetHwRevision
                0x0000b908       0x98 contiki-srf06-cc26xx.a(chipinfo.o)
                0x0000b908                NOROM_ChipInfo_GetHwRevision
 .text.NOROM_ThisCodeIsBuiltForCC13xxHwRev20AndLater_HaltIfViolated
                0x0000b9a0       0x1c contiki-srf06-cc26xx.a(chipinfo.o)
                0x0000b9a0                NOROM_ThisCodeIsBuiltForCC13xxHwRev20AndLater_HaltIfViolated
 .text.NOROM_CPUcpsid
                0x0000b9bc        0x8 contiki-srf06-cc26xx.a(cpu.o)
                0x0000b9bc                NOROM_CPUcpsid
 .text.NOROM_CPUcpsie
                0x0000b9c4        0x8 contiki-srf06-cc26xx.a(cpu.o)
                0x0000b9c4                NOROM_CPUcpsie
 .text.NOROM_CPUdelay
                0x0000b9cc        0x8 contiki-srf06-cc26xx.a(cpu.o)
                0x0000b9cc                NOROM_CPUdelay
 .text.NOROM_OSCClockSourceSet
                0x0000b9d4       0x84 contiki-srf06-cc26xx.a(osc.o)
                0x0000b9d4                NOROM_OSCClockSourceSet
 .text.NOROM_OSCClockSourceGet
                0x0000ba58       0x48 contiki-srf06-cc26xx.a(osc.o)
                0x0000ba58                NOROM_OSCClockSourceGet
 .text.NOROM_PowerCtrlSourceSet
                0x0000baa0       0x38 contiki-srf06-cc26xx.a(pwr_ctrl.o)
                0x0000baa0                NOROM_PowerCtrlSourceSet
 .text.NOROM_RFCRTrim
                0x0000bad8      0x150 contiki-srf06-cc26xx.a(rfc.o)
                0x0000bad8                NOROM_RFCRTrim
 .text.NOROM_RFCAdi3VcoLdoVoltageMode
                0x0000bc28       0x28 contiki-srf06-cc26xx.a(rfc.o)
                0x0000bc28                NOROM_RFCAdi3VcoLdoVoltageMode
 .text.TrimAfterColdResetWakeupFromShutDown
                0x0000bc50      0x10c contiki-srf06-cc26xx.a(setup.o)
 .text.NOROM_SetupTrimDevice
                0x0000bd5c       0xbc contiki-srf06-cc26xx.a(setup.o)
                0x0000bd5c                NOROM_SetupTrimDevice
 .text.NOROM_SetupSetVddrLevel
                0x0000be18       0xa0 contiki-srf06-cc26xx.a(setup_rom.o)
                0x0000be18                NOROM_SetupSetVddrLevel
 .text.NOROM_SetupAfterColdResetWakeupFromShutDownCfg1
                0x0000beb8       0xe4 contiki-srf06-cc26xx.a(setup_rom.o)
                0x0000beb8                NOROM_SetupAfterColdResetWakeupFromShutDownCfg1
 .text.NOROM_SetupGetTrimForAnabypassValue1
                0x0000bf9c       0x74 contiki-srf06-cc26xx.a(setup_rom.o)
                0x0000bf9c                NOROM_SetupGetTrimForAnabypassValue1
 .text.NOROM_SetupGetTrimForAmpcompCtrl
                0x0000c010       0xa0 contiki-srf06-cc26xx.a(setup_rom.o)
                0x0000c010                NOROM_SetupGetTrimForAmpcompCtrl
 .text.NOROM_SetupSetCacheModeAccordingToCcfgSetting
                0x0000c0b0       0x70 contiki-srf06-cc26xx.a(setup_rom.o)
                0x0000c0b0                NOROM_SetupSetCacheModeAccordingToCcfgSetting
 .text.NOROM_SetupAfterColdResetWakeupFromShutDownCfg3
                0x0000c120      0x220 contiki-srf06-cc26xx.a(setup_rom.o)
                0x0000c120                NOROM_SetupAfterColdResetWakeupFromShutDownCfg3
 .text.NOROM_SetupAfterColdResetWakeupFromShutDownCfg2
                0x0000c340      0x268 contiki-srf06-cc26xx.a(setup_rom.o)
                0x0000c340                NOROM_SetupAfterColdResetWakeupFromShutDownCfg2
 .text.NOROM_SysCtrl_DCDC_VoltageConditionalControl
                0x0000c5a8       0x90 contiki-srf06-cc26xx.a(sys_ctrl.o)
                0x0000c5a8                NOROM_SysCtrl_DCDC_VoltageConditionalControl
 .text.NOROM_SysCtrlAdjustRechargeAfterPowerDown
                0x0000c638       0x74 contiki-srf06-cc26xx.a(sys_ctrl.o)
                0x0000c638                NOROM_SysCtrlAdjustRechargeAfterPowerDown
 .text.NOROM_SysCtrlSetRechargeBeforePowerDown
                0x0000c6ac      0x31c contiki-srf06-cc26xx.a(sys_ctrl.o)
                0x0000c6ac                NOROM_SysCtrlSetRechargeBeforePowerDown
 .text.NOROM_TRNGConfigure
                0x0000c9c8       0x48 contiki-srf06-cc26xx.a(trng.o)
                0x0000c9c8                NOROM_TRNGConfigure
 .text.linkaddr_cmp
                0x0000ca10       0x14 contiki-srf06-cc26xx.a(linkaddr.o)
                0x0000ca10                linkaddr_cmp
 .text.linkaddr_copy
                0x0000ca24        0xc contiki-srf06-cc26xx.a(linkaddr.o)
                0x0000ca24                linkaddr_copy
 .text.link_stats_init
                0x0000ca30       0x2c contiki-srf06-cc26xx.a(link-stats.o)
                0x0000ca30                link_stats_init
 .text.periodic
                0x0000ca5c       0x38 contiki-srf06-cc26xx.a(link-stats.o)
 .text.link_stats_from_lladdr
                0x0000ca94       0x14 contiki-srf06-cc26xx.a(link-stats.o)
                0x0000ca94                link_stats_from_lladdr
 .text.link_stats_input_callback
                0x0000caa8       0x68 contiki-srf06-cc26xx.a(link-stats.o)
                0x0000caa8                link_stats_input_callback
 .text.link_stats_is_fresh
                0x0000cb10       0x24 contiki-srf06-cc26xx.a(link-stats.o)
                0x0000cb10                link_stats_is_fresh
 .text.link_stats_packet_sent
                0x0000cb34       0xa0 contiki-srf06-cc26xx.a(link-stats.o)
                0x0000cb34                link_stats_packet_sent
 .text.nbr_get_bit
                0x0000cbd4       0x38 contiki-srf06-cc26xx.a(nbr-table.o)
 .text.nbr_set_bit
                0x0000cc0c       0x60 contiki-srf06-cc26xx.a(nbr-table.o)
 .text.nbr_table_register
                0x0000cc6c       0x2c contiki-srf06-cc26xx.a(nbr-table.o)
                0x0000cc6c                nbr_table_register
 .text.nbr_table_remove
                0x0000cc98       0x30 contiki-srf06-cc26xx.a(nbr-table.o)
                0x0000cc98                nbr_table_remove
 .text.nbr_table_lock
                0x0000ccc8       0x18 contiki-srf06-cc26xx.a(nbr-table.o)
                0x0000ccc8                nbr_table_lock
 .text.nbr_table_unlock
                0x0000cce0       0x18 contiki-srf06-cc26xx.a(nbr-table.o)
                0x0000cce0                nbr_table_unlock
 .text.nbr_table_get_lladdr
                0x0000ccf8       0x40 contiki-srf06-cc26xx.a(nbr-table.o)
                0x0000ccf8                nbr_table_get_lladdr
 .text.index_from_lladdr
                0x0000cd38       0x5c contiki-srf06-cc26xx.a(nbr-table.o)
 .text.nbr_table_get_from_lladdr
                0x0000cd94       0x44 contiki-srf06-cc26xx.a(nbr-table.o)
                0x0000cd94                nbr_table_get_from_lladdr
 .text.nbr_table_next
                0x0000cdd8       0x9c contiki-srf06-cc26xx.a(nbr-table.o)
                0x0000cdd8                nbr_table_next
 .text.nbr_table_head
                0x0000ce74       0x70 contiki-srf06-cc26xx.a(nbr-table.o)
                0x0000ce74                nbr_table_head
 .text.remove_key
                0x0000cee4       0xd0 contiki-srf06-cc26xx.a(nbr-table.o)
 .text.nbr_table_update_lladdr
                0x0000cfb4       0x64 contiki-srf06-cc26xx.a(nbr-table.o)
                0x0000cfb4                nbr_table_update_lladdr
 .text.nbr_table_add_lladdr
                0x0000d018      0x19c contiki-srf06-cc26xx.a(nbr-table.o)
                0x0000d018                nbr_table_add_lladdr
 .text.netstack_init
                0x0000d1b4       0x40 contiki-srf06-cc26xx.a(netstack.o)
                0x0000d1b4                netstack_init
 .text.packetbuf_hdralloc
                0x0000d1f4       0x74 contiki-srf06-cc26xx.a(packetbuf.o)
                0x0000d1f4                packetbuf_hdralloc
 .text.packetbuf_hdrreduce
                0x0000d268       0x30 contiki-srf06-cc26xx.a(packetbuf.o)
                0x0000d268                packetbuf_hdrreduce
 .text.packetbuf_set_datalen
                0x0000d298        0xc contiki-srf06-cc26xx.a(packetbuf.o)
                0x0000d298                packetbuf_set_datalen
 .text.packetbuf_dataptr
                0x0000d2a4       0x2c contiki-srf06-cc26xx.a(packetbuf.o)
                0x0000d2a4                packetbuf_dataptr
 .text.packetbuf_hdrptr
                0x0000d2d0        0xc contiki-srf06-cc26xx.a(packetbuf.o)
                0x0000d2d0                packetbuf_hdrptr
 .text.packetbuf_datalen
                0x0000d2dc        0xc contiki-srf06-cc26xx.a(packetbuf.o)
                0x0000d2dc                packetbuf_datalen
 .text.packetbuf_totlen
                0x0000d2e8       0x28 contiki-srf06-cc26xx.a(packetbuf.o)
                0x0000d2e8                packetbuf_totlen
 .text.packetbuf_set_attr
                0x0000d310       0x10 contiki-srf06-cc26xx.a(packetbuf.o)
                0x0000d310                packetbuf_set_attr
 .text.packetbuf_attr
                0x0000d320       0x10 contiki-srf06-cc26xx.a(packetbuf.o)
                0x0000d320                packetbuf_attr
 .text.packetbuf_addr
                0x0000d330       0x14 contiki-srf06-cc26xx.a(packetbuf.o)
                0x0000d330                packetbuf_addr
 .text.packetbuf_holds_broadcast
                0x0000d344       0x18 contiki-srf06-cc26xx.a(packetbuf.o)
                0x0000d344                packetbuf_holds_broadcast
 .text.packetbuf_set_addr
                0x0000d35c       0x1c contiki-srf06-cc26xx.a(packetbuf.o)
                0x0000d35c                packetbuf_set_addr
 .text.packetbuf_attr_copyfrom
                0x0000d378       0x28 contiki-srf06-cc26xx.a(packetbuf.o)
                0x0000d378                packetbuf_attr_copyfrom
 .text.packetbuf_attr_copyto
                0x0000d3a0       0x24 contiki-srf06-cc26xx.a(packetbuf.o)
                0x0000d3a0                packetbuf_attr_copyto
 .text.packetbuf_copyto
                0x0000d3c4       0x58 contiki-srf06-cc26xx.a(packetbuf.o)
                0x0000d3c4                packetbuf_copyto
 .text.packetbuf_attr_clear
                0x0000d41c       0x38 contiki-srf06-cc26xx.a(packetbuf.o)
                0x0000d41c                packetbuf_attr_clear
 .text.packetbuf_clear
                0x0000d454       0x28 contiki-srf06-cc26xx.a(packetbuf.o)
                0x0000d454                packetbuf_clear
 .text.packetbuf_copyfrom
                0x0000d47c       0x30 contiki-srf06-cc26xx.a(packetbuf.o)
                0x0000d47c                packetbuf_copyfrom
 .text.queuebuf_attr
                0x0000d4ac        0xc contiki-srf06-cc26xx.a(queuebuf.o)
                0x0000d4ac                queuebuf_attr
 .text.queuebuf_to_packetbuf
                0x0000d4b8       0x30 contiki-srf06-cc26xx.a(queuebuf.o)
                0x0000d4b8                queuebuf_to_packetbuf
 .text.queuebuf_free
                0x0000d4e8       0x34 contiki-srf06-cc26xx.a(queuebuf.o)
                0x0000d4e8                queuebuf_free
 .text.queuebuf_update_attr_from_packetbuf
                0x0000d51c       0x10 contiki-srf06-cc26xx.a(queuebuf.o)
                0x0000d51c                queuebuf_update_attr_from_packetbuf
 .text.queuebuf_update_from_packetbuf
                0x0000d52c       0x1c contiki-srf06-cc26xx.a(queuebuf.o)
                0x0000d52c                queuebuf_update_from_packetbuf
 .text.queuebuf_new_from_packetbuf
                0x0000d548       0x50 contiki-srf06-cc26xx.a(queuebuf.o)
                0x0000d548                queuebuf_new_from_packetbuf
 .text.queuebuf_numfree
                0x0000d598       0x10 contiki-srf06-cc26xx.a(queuebuf.o)
                0x0000d598                queuebuf_numfree
 .text.queuebuf_init
                0x0000d5a8       0x1c contiki-srf06-cc26xx.a(queuebuf.o)
                0x0000d5a8                queuebuf_init
 .text.input_packet
                0x0000d5c4       0x10 contiki-srf06-cc26xx.a(csma.o)
 .text.on       0x0000d5d4       0x10 contiki-srf06-cc26xx.a(csma.o)
 .text.off      0x0000d5e4       0x10 contiki-srf06-cc26xx.a(csma.o)
 .text.channel_check_interval
                0x0000d5f4       0x14 contiki-srf06-cc26xx.a(csma.o)
 .text.transmit_packet_list
                0x0000d608       0x28 contiki-srf06-cc26xx.a(csma.o)
 .text.schedule_transmission
                0x0000d630       0x50 contiki-srf06-cc26xx.a(csma.o)
 .text.send_packet
                0x0000d680      0x184 contiki-srf06-cc26xx.a(csma.o)
 .text.tx_done  0x0000d804       0x8c contiki-srf06-cc26xx.a(csma.o)
 .text.packet_sent
                0x0000d890       0xd8 contiki-srf06-cc26xx.a(csma.o)
 .text.init     0x0000d968       0x28 contiki-srf06-cc26xx.a(csma.o)
 .text.parse    0x0000d990       0xa0 contiki-srf06-cc26xx.a(framer-802154.o)
 .text.create_frame
                0x0000da30      0x188 contiki-srf06-cc26xx.a(framer-802154.o)
 .text.create   0x0000dbb8        0xc contiki-srf06-cc26xx.a(framer-802154.o)
 .text.hdr_length
                0x0000dbc4        0xc contiki-srf06-cc26xx.a(framer-802154.o)
 .text.mac_call_sent_callback
                0x0000dbd0       0x10 contiki-srf06-cc26xx.a(mac.o)
                0x0000dbd0                mac_call_sent_callback
 .text.on       0x0000dbe0       0x30 contiki-srf06-cc26xx.a(contikimac.o)
 .text.off      0x0000dc10       0x38 contiki-srf06-cc26xx.a(contikimac.o)
 .text.recv_burst_off
                0x0000dc48       0x14 contiki-srf06-cc26xx.a(contikimac.o)
 .text.turn_off
                0x0000dc5c       0x50 contiki-srf06-cc26xx.a(contikimac.o)
 .text.duty_cycle
                0x0000dcac        0x4 contiki-srf06-cc26xx.a(contikimac.o)
 .text.turn_on  0x0000dcb0       0x48 contiki-srf06-cc26xx.a(contikimac.o)
 .text.schedule_powercycle_fixed
                0x0000dcf8       0x3c contiki-srf06-cc26xx.a(contikimac.o)
 .text.powercycle_wrapper
                0x0000dd34      0x2b8 contiki-srf06-cc26xx.a(contikimac.o)
 .text.init     0x0000dfec       0x4c contiki-srf06-cc26xx.a(contikimac.o)
 .text.input_packet
                0x0000e038      0x140 contiki-srf06-cc26xx.a(contikimac.o)
 .text.send_packet
                0x0000e178      0x224 contiki-srf06-cc26xx.a(contikimac.o)
 .text.qsend_list
                0x0000e39c       0xe8 contiki-srf06-cc26xx.a(contikimac.o)
 .text.qsend_packet
                0x0000e484       0x20 contiki-srf06-cc26xx.a(contikimac.o)
 .text.init     0x0000e4a4        0x4 contiki-srf06-cc26xx.a(nullsec.o)
 .text.input    0x0000e4a8       0x10 contiki-srf06-cc26xx.a(nullsec.o)
 .text.send     0x0000e4b8       0x20 contiki-srf06-cc26xx.a(nullsec.o)
 .text.aux_ctrl_power_down
                0x0000e4d8       0x84 contiki-srf06-cc26xx.a(aux-ctrl.o)
                0x0000e4d8                aux_ctrl_power_down
 .text.aux_ctrl_power_up
                0x0000e55c       0x30 contiki-srf06-cc26xx.a(aux-ctrl.o)
                0x0000e55c                aux_ctrl_power_up
 .text.aux_ctrl_unregister_consumer
                0x0000e58c       0x28 contiki-srf06-cc26xx.a(aux-ctrl.o)
                0x0000e58c                aux_ctrl_unregister_consumer
 .text.aux_ctrl_register_consumer
                0x0000e5b4       0x40 contiki-srf06-cc26xx.a(aux-ctrl.o)
                0x0000e5b4                aux_ctrl_register_consumer
 .text.stimer_expired
                0x0000e5f4       0x24 contiki-srf06-cc26xx.a(stimer.o)
                0x0000e5f4                stimer_expired
 .text.stimer_set
                0x0000e618       0x10 contiki-srf06-cc26xx.a(stimer.o)
                0x0000e618                stimer_set
 .text.memb_alloc
                0x0000e628       0x38 contiki-srf06-cc26xx.a(memb.o)
                0x0000e628                memb_alloc
 .text.memb_free
                0x0000e660       0x48 contiki-srf06-cc26xx.a(memb.o)
                0x0000e660                memb_free
 .text.memb_inmemb
                0x0000e6a8       0x20 contiki-srf06-cc26xx.a(memb.o)
                0x0000e6a8                memb_inmemb
 .text.memb_numfree
                0x0000e6c8       0x20 contiki-srf06-cc26xx.a(memb.o)
                0x0000e6c8                memb_numfree
 .text.memb_init
                0x0000e6e8       0x20 contiki-srf06-cc26xx.a(memb.o)
                0x0000e6e8                memb_init
 .text.update_nbr
                0x0000e708      0x150 contiki-srf06-cc26xx.a(rpl-nbr-policy.)
 .text.find_removable_dao
                0x0000e858       0x38 contiki-srf06-cc26xx.a(rpl-nbr-policy.)
                0x0000e858                find_removable_dao
 .text.find_removable_dis
                0x0000e890       0x24 contiki-srf06-cc26xx.a(rpl-nbr-policy.)
                0x0000e890                find_removable_dis
 .text.handle_periodic_timer
                0x0000e8b4       0x14 contiki-srf06-cc26xx.a(rpl-nbr-policy.)
 .text.find_removable_dio
                0x0000e8c8       0x44 contiki-srf06-cc26xx.a(rpl-nbr-policy.)
                0x0000e8c8                find_removable_dio
 .text.rpl_nbr_policy_find_removable
                0x0000e90c       0x30 contiki-srf06-cc26xx.a(rpl-nbr-policy.)
                0x0000e90c                rpl_nbr_policy_find_removable
 .text.NOROM_AONBatMonTemperatureGetDegC
                0x0000e93c       0x38 contiki-srf06-cc26xx.a(aon_batmon.o)
                0x0000e93c                NOROM_AONBatMonTemperatureGetDegC
 .text.NOROM_DDI32RegWrite
                0x0000e974       0x30 contiki-srf06-cc26xx.a(ddi.o)
                0x0000e974                NOROM_DDI32RegWrite
 .text.frame802154_get_pan_id
                0x0000e9a4        0xc contiki-srf06-cc26xx.a(frame802154.o)
                0x0000e9a4                frame802154_get_pan_id
 .text.frame802154_has_panid
                0x0000e9b0       0xc8 contiki-srf06-cc26xx.a(frame802154.o)
                0x0000e9b0                frame802154_has_panid
 .text.frame802154_is_broadcast_addr
                0x0000ea78       0x24 contiki-srf06-cc26xx.a(frame802154.o)
                0x0000ea78                frame802154_is_broadcast_addr
 .text.frame802154_create_fcf
                0x0000ea9c       0x64 contiki-srf06-cc26xx.a(frame802154.o)
                0x0000ea9c                frame802154_create_fcf
 .text.frame802154_parse_fcf
                0x0000eb00       0x74 contiki-srf06-cc26xx.a(frame802154.o)
                0x0000eb00                frame802154_parse_fcf
 .text.frame802154_parse
                0x0000eb74      0x13c contiki-srf06-cc26xx.a(frame802154.o)
                0x0000eb74                frame802154_parse
 .text.field_len
                0x0000ecb0       0xa0 contiki-srf06-cc26xx.a(frame802154.o)
 .text.frame802154_create
                0x0000ed50       0xcc contiki-srf06-cc26xx.a(frame802154.o)
                0x0000ed50                frame802154_create
 .text.frame802154_hdrlen
                0x0000ee1c       0x34 contiki-srf06-cc26xx.a(frame802154.o)
                0x0000ee1c                frame802154_hdrlen
 .text.mac_sequence_is_duplicate
                0x0000ee50       0x60 contiki-srf06-cc26xx.a(mac-sequence.o)
                0x0000ee50                mac_sequence_is_duplicate
 .text.mac_sequence_register_seqno
                0x0000eeb0       0x6c contiki-srf06-cc26xx.a(mac-sequence.o)
                0x0000eeb0                mac_sequence_register_seqno
 .text          0x0000ef1c       0x2c /home/user/CodeSourcery/Sourcery_G++_Lite/bin/../lib/gcc/arm-none-eabi/4.3.2/thumb2/libgcc.a(_aeabi_uldivmod.o)
                0x0000ef1c                __aeabi_uldivmod
 .text          0x0000ef48       0x60 /home/user/CodeSourcery/Sourcery_G++_Lite/bin/../lib/gcc/arm-none-eabi/4.3.2/thumb2/libgcc.a(bpabi.o)
                0x0000ef48                __gnu_uldivmod_helper
                0x0000ef78                __gnu_ldivmod_helper
 .text          0x0000efa8        0x4 /home/user/CodeSourcery/Sourcery_G++_Lite/bin/../lib/gcc/arm-none-eabi/4.3.2/thumb2/libgcc.a(_dvmd_tls.o)
                0x0000efa8                __aeabi_ldiv0
                0x0000efa8                __aeabi_idiv0
 .text          0x0000efac      0x424 /home/user/CodeSourcery/Sourcery_G++_Lite/bin/../lib/gcc/arm-none-eabi/4.3.2/thumb2/libgcc.a(_divdi3.o)
                0x0000efac                __divdi3
 .text          0x0000f3d0      0x3e4 /home/user/CodeSourcery/Sourcery_G++_Lite/bin/../lib/gcc/arm-none-eabi/4.3.2/thumb2/libgcc.a(_udivdi3.o)
                0x0000f3d0                __udivdi3
 .text          0x0000f7b4       0x8c /home/user/CodeSourcery/Sourcery_G++_Lite/bin/../lib/gcc/arm-none-eabi/4.3.2/thumb2/libgcc.a(_udivsi3.o)
                0x0000f7b4                __udivsi3
                0x0000f7b4                __aeabi_uidiv
                0x0000f82c                __aeabi_uidivmod
 .text          0x0000f840       0x60 /home/user/CodeSourcery/Sourcery_G++_Lite/bin/../lib/gcc/arm-none-eabi/4.3.2/../../../../arm-none-eabi/lib/thumb2/libc.a(lib_a-memcmp.o)
                0x0000f840                memcmp
 .text          0x0000f8a0       0x98 /home/user/CodeSourcery/Sourcery_G++_Lite/bin/../lib/gcc/arm-none-eabi/4.3.2/../../../../arm-none-eabi/lib/thumb2/libc.a(lib_a-memcpy.o)
                0x0000f8a0                memcpy
 .text          0x0000f938       0xc0 /home/user/CodeSourcery/Sourcery_G++_Lite/bin/../lib/gcc/arm-none-eabi/4.3.2/../../../../arm-none-eabi/lib/thumb2/libc.a(lib_a-memmove.o)
                0x0000f938                memmove
 .text          0x0000f9f8       0x88 /home/user/CodeSourcery/Sourcery_G++_Lite/bin/../lib/gcc/arm-none-eabi/4.3.2/../../../../arm-none-eabi/lib/thumb2/libc.a(lib_a-memset.o)
                0x0000f9f8                memset
 .text          0x0000fa80       0x34 /home/user/CodeSourcery/Sourcery_G++_Lite/bin/../lib/gcc/arm-none-eabi/4.3.2/../../../../arm-none-eabi/lib/thumb2/libc.a(lib_a-strlen.o)
                0x0000fa80                strlen
 *(SORT(.rodata*))
 .rodata.autostart_processes
                0x0000fab4        0x8 broadcast-example.co
                0x0000fab4                autostart_processes
 .rodata.str1.4
                0x0000fabc      0x1de broadcast-example.co
                                0x1e0 (size before relaxing)
 *fill*         0x0000fc9a        0x2 00000000
 .rodata.str1.4
                0x0000fc9c       0xe6 contiki-srf06-cc26xx.a(contiki-main.o)
                                 0xe8 (size before relaxing)
 *fill*         0x0000fd82        0x2 00000000
 .rodata.str1.4
                0x0000fd84        0x8 contiki-srf06-cc26xx.a(sensors.o)
 .rodata.C.36.5360
                0x0000fd8c       0x44 contiki-srf06-cc26xx.a(board.o)
 .rodata.str1.4
                0x0000fdd0        0x7 contiki-srf06-cc26xx.a(button-sensor.o)
                                  0x8 (size before relaxing)
 *fill*         0x0000fdd7        0x1 00000000
 .rodata.button_left_sensor
                0x0000fdd8       0x10 contiki-srf06-cc26xx.a(button-sensor.o)
                0x0000fdd8                button_left_sensor
 .rodata.button_right_sensor
                0x0000fde8       0x10 contiki-srf06-cc26xx.a(button-sensor.o)
                0x0000fde8                button_right_sensor
 .rodata.patchImageGenfsk
                0x0000fdf8      0x28c contiki-srf06-cc26xx.a(prop-mode.o)
 .rodata.mode_prop
                0x00010084        0x8 contiki-srf06-cc26xx.a(prop-mode.o)
 .rodata.prop_mode_driver
                0x0001008c       0x38 contiki-srf06-cc26xx.a(prop-mode.o)
                0x0001008c                prop_mode_driver
 .rodata.patchGenfskRfe
                0x000100c4      0x6b4 contiki-srf06-cc26xx.a(prop-mode.o)
 .rodata.prop_mode_tx_power_779_930
                0x00010778       0x88 contiki-srf06-cc26xx.a(prop-mode-tx-po)
                0x00010778                prop_mode_tx_power_779_930
 .rodata.str1.4
                0x00010800       0x46 contiki-srf06-cc26xx.a(rf-core.o)
                                 0x48 (size before relaxing)
 *fill*         0x00010846        0x2 00000000
 .rodata.str1.4
                0x00010848       0x1b contiki-srf06-cc26xx.a(soc-trng.o)
                                 0x1c (size before relaxing)
 *fill*         0x00010863        0x1 00000000
 .rodata.buffer.1223
                0x00010864       0x10 contiki-srf06-cc26xx.a(strformat.o)
 .rodata.buffer.1237
                0x00010874       0x10 contiki-srf06-cc26xx.a(strformat.o)
 .rodata.str1.4
                0x00010884       0x47 contiki-srf06-cc26xx.a(strformat.o)
                                 0x48 (size before relaxing)
 *fill*         0x000108cb        0x1 00000000
 .rodata.str1.4
                0x000108cc        0xf contiki-srf06-cc26xx.a(ctimer.o)
                                 0x10 (size before relaxing)
 *fill*         0x000108db        0x1 00000000
 .rodata.str1.4
                0x000108dc        0xc contiki-srf06-cc26xx.a(etimer.o)
 .rodata.str1.4
                0x000108e8        0xe contiki-srf06-cc26xx.a(serial-line.o)
                                 0x10 (size before relaxing)
 *fill*         0x000108f6        0x2 00000000
 .rodata.sicslowpan_driver
                0x000108f8        0xc contiki-srf06-cc26xx.a(sicslowpan.o)
                0x000108f8                sicslowpan_driver
 .rodata.str1.4
                0x00010904        0xb contiki-srf06-cc26xx.a(sicslowpan.o)
                                  0xc (size before relaxing)
 *fill*         0x0001090f        0x1 00000000
 .rodata.str1.4
                0x00010910       0x13 contiki-srf06-cc26xx.a(simple-udp.o)
                                 0x14 (size before relaxing)
 *fill*         0x00010923        0x1 00000000
 .rodata.str1.4
                0x00010924        0xd contiki-srf06-cc26xx.a(tcpip.o)
                                 0x10 (size before relaxing)
 *fill*         0x00010931        0x3 00000000
 .rodata.str1.4
                0x00010934       0x2b contiki-srf06-cc26xx.a(uip-debug.o)
                                 0x2c (size before relaxing)
 *fill*         0x0001095f        0x1 00000000
 .rodata.packetbuf
                0x00010960        0x4 contiki-srf06-cc26xx.a(packetbuf.o)
 .rodata.str1.4
                0x00010964        0x5 contiki-srf06-cc26xx.a(csma.o)
                                  0x8 (size before relaxing)
 *fill*         0x00010969        0x3 00000000
 .rodata.csma_driver
                0x0001096c       0x1c contiki-srf06-cc26xx.a(csma.o)
                0x0001096c                csma_driver
 .rodata.framer_802154
                0x00010988        0xc contiki-srf06-cc26xx.a(framer-802154.o)
                0x00010988                framer_802154
 .rodata.str1.4
                0x00010994        0xb contiki-srf06-cc26xx.a(contikimac.o)
                                  0xc (size before relaxing)
 *fill*         0x0001099f        0x1 00000000
 .rodata.contikimac_driver
                0x000109a0       0x20 contiki-srf06-cc26xx.a(contikimac.o)
                0x000109a0                contikimac_driver
 .rodata.str1.4
                0x000109c0        0x8 contiki-srf06-cc26xx.a(nullsec.o)
 .rodata.nullsec_driver
                0x000109c8       0x10 contiki-srf06-cc26xx.a(nullsec.o)
                0x000109c8                nullsec_driver
 .rodata.wbuf.5321
                0x000109d8        0x4 contiki-srf06-cc26xx.a(ext-flash.o)
 .rodata.C.39.5324
                0x000109dc        0x2 contiki-srf06-cc26xx.a(ext-flash.o)
 .rodata.ttl_values
                0x000109de        0x4 contiki-srf06-cc26xx.a(sicslowpan.o)
 .rodata.unc_llconf
                0x000109e2        0x4 contiki-srf06-cc26xx.a(sicslowpan.o)
                0x000109e2                unc_llconf
 .rodata.llprefix
                0x000109e6        0x2 contiki-srf06-cc26xx.a(sicslowpan.o)
                0x000109e6                llprefix
 .rodata.C.62.4819
                0x000109e8        0x2 contiki-srf06-cc26xx.a(sicslowpan.o)
 .rodata.unc_mxconf
                0x000109ea        0x4 contiki-srf06-cc26xx.a(sicslowpan.o)
                0x000109ea                unc_mxconf
 .rodata.unc_ctxconf
                0x000109ee        0x4 contiki-srf06-cc26xx.a(sicslowpan.o)
                0x000109ee                unc_ctxconf
 .rodata.linkaddr_null
                0x000109f2        0x8 contiki-srf06-cc26xx.a(linkaddr.o)
                0x000109f2                linkaddr_null
 .rodata.C.55.4259
                0x000109fa        0x3 contiki-srf06-cc26xx.a(contikimac.o)
 .rodata        0x000109fd      0x100 /home/user/CodeSourcery/Sourcery_G++_Lite/bin/../lib/gcc/arm-none-eabi/4.3.2/thumb2/libgcc.a(_clz.o)
                0x000109fd                __clz_tab
                0x00010afd                _etext = .

.glue_7         0x00010b00        0x0 load address 0x00010afd
 .glue_7        0x00010b00        0x0 obj_srf06-cc26xx/fault-handlers.o
 .glue_7        0x00010b00        0x0 obj_srf06-cc26xx/ccfg.o
 .glue_7        0x00010b00        0x0 obj_srf06-cc26xx/startup_gcc.o
 .glue_7        0x00010b00        0x0 broadcast-example.co
 .glue_7        0x00010b00        0x0 contiki-srf06-cc26xx.a(contiki-main.o)
 .glue_7        0x00010b00        0x0 contiki-srf06-cc26xx.a(sensors.o)
 .glue_7        0x00010b00        0x0 contiki-srf06-cc26xx.a(leds.o)
 .glue_7        0x00010b00        0x0 contiki-srf06-cc26xx.a(board.o)
 .glue_7        0x00010b00        0x0 contiki-srf06-cc26xx.a(launchpad-senso)
 .glue_7        0x00010b00        0x0 contiki-srf06-cc26xx.a(leds-arch.o)
 .glue_7        0x00010b00        0x0 contiki-srf06-cc26xx.a(button-sensor.o)
 .glue_7        0x00010b00        0x0 contiki-srf06-cc26xx.a(ext-flash.o)
 .glue_7        0x00010b00        0x0 contiki-srf06-cc26xx.a(board-spi.o)
 .glue_7        0x00010b00        0x0 contiki-srf06-cc26xx.a(prop-mode.o)
 .glue_7        0x00010b00        0x0 contiki-srf06-cc26xx.a(prop-mode-tx-po)
 .glue_7        0x00010b00        0x0 contiki-srf06-cc26xx.a(clock.o)
 .glue_7        0x00010b00        0x0 contiki-srf06-cc26xx.a(rtimer-arch.o)
 .glue_7        0x00010b00        0x0 contiki-srf06-cc26xx.a(soc-rtc.o)
 .glue_7        0x00010b00        0x0 contiki-srf06-cc26xx.a(contiki-watchdo)
 .glue_7        0x00010b00        0x0 contiki-srf06-cc26xx.a(putchar.o)
 .glue_7        0x00010b00        0x0 contiki-srf06-cc26xx.a(ieee-addr.o)
 .glue_7        0x00010b00        0x0 contiki-srf06-cc26xx.a(cc26xx-uart.o)
 .glue_7        0x00010b00        0x0 contiki-srf06-cc26xx.a(lpm.o)
 .glue_7        0x00010b00        0x0 contiki-srf06-cc26xx.a(gpio-interrupt.)
 .glue_7        0x00010b00        0x0 contiki-srf06-cc26xx.a(oscillators.o)
 .glue_7        0x00010b00        0x0 contiki-srf06-cc26xx.a(rf-core.o)
 .glue_7        0x00010b00        0x0 contiki-srf06-cc26xx.a(rf-ble.o)
 .glue_7        0x00010b00        0x0 contiki-srf06-cc26xx.a(random.o)
 .glue_7        0x00010b00        0x0 contiki-srf06-cc26xx.a(soc-trng.o)
 .glue_7        0x00010b00        0x0 contiki-srf06-cc26xx.a(dbg-printf.o)
 .glue_7        0x00010b00        0x0 contiki-srf06-cc26xx.a(strformat.o)
 .glue_7        0x00010b00        0x0 contiki-srf06-cc26xx.a(autostart.o)
 .glue_7        0x00010b00        0x0 contiki-srf06-cc26xx.a(ctimer.o)
 .glue_7        0x00010b00        0x0 contiki-srf06-cc26xx.a(energest.o)
 .glue_7        0x00010b00        0x0 contiki-srf06-cc26xx.a(etimer.o)
 .glue_7        0x00010b00        0x0 contiki-srf06-cc26xx.a(process.o)
 .glue_7        0x00010b00        0x0 contiki-srf06-cc26xx.a(rtimer.o)
 .glue_7        0x00010b00        0x0 contiki-srf06-cc26xx.a(timer.o)
 .glue_7        0x00010b00        0x0 contiki-srf06-cc26xx.a(serial-line.o)
 .glue_7        0x00010b00        0x0 contiki-srf06-cc26xx.a(list.o)
 .glue_7        0x00010b00        0x0 contiki-srf06-cc26xx.a(ringbuf.o)
 .glue_7        0x00010b00        0x0 contiki-srf06-cc26xx.a(sicslowpan.o)
 .glue_7        0x00010b00        0x0 contiki-srf06-cc26xx.a(uip6.o)
 .glue_7        0x00010b00        0x0 contiki-srf06-cc26xx.a(uip-ds6.o)
 .glue_7        0x00010b00        0x0 contiki-srf06-cc26xx.a(uip-ds6-nbr.o)
 .glue_7        0x00010b00        0x0 contiki-srf06-cc26xx.a(uip-ds6-route.o)
 .glue_7        0x00010b00        0x0 contiki-srf06-cc26xx.a(uip-icmp6.o)
 .glue_7        0x00010b00        0x0 contiki-srf06-cc26xx.a(uip-nd6.o)
 .glue_7        0x00010b00        0x0 contiki-srf06-cc26xx.a(simple-udp.o)
 .glue_7        0x00010b00        0x0 contiki-srf06-cc26xx.a(tcpip.o)
 .glue_7        0x00010b00        0x0 contiki-srf06-cc26xx.a(uip-debug.o)
 .glue_7        0x00010b00        0x0 contiki-srf06-cc26xx.a(uip-udp-packet.)
 .glue_7        0x00010b00        0x0 contiki-srf06-cc26xx.a(rpl.o)
 .glue_7        0x00010b00        0x0 contiki-srf06-cc26xx.a(rpl-dag.o)
 .glue_7        0x00010b00        0x0 contiki-srf06-cc26xx.a(rpl-ext-header.)
 .glue_7        0x00010b00        0x0 contiki-srf06-cc26xx.a(rpl-icmp6.o)
 .glue_7        0x00010b00        0x0 contiki-srf06-cc26xx.a(rpl-mrhof.o)
 .glue_7        0x00010b00        0x0 contiki-srf06-cc26xx.a(rpl-timers.o)
 .glue_7        0x00010b00        0x0 contiki-srf06-cc26xx.a(adi.o)
 .glue_7        0x00010b00        0x0 contiki-srf06-cc26xx.a(aon_rtc.o)
 .glue_7        0x00010b00        0x0 contiki-srf06-cc26xx.a(chipinfo.o)
 .glue_7        0x00010b00        0x0 contiki-srf06-cc26xx.a(cpu.o)
 .glue_7        0x00010b00        0x0 contiki-srf06-cc26xx.a(osc.o)
 .glue_7        0x00010b00        0x0 contiki-srf06-cc26xx.a(pwr_ctrl.o)
 .glue_7        0x00010b00        0x0 contiki-srf06-cc26xx.a(rfc.o)
 .glue_7        0x00010b00        0x0 contiki-srf06-cc26xx.a(setup.o)
 .glue_7        0x00010b00        0x0 contiki-srf06-cc26xx.a(setup_rom.o)
 .glue_7        0x00010b00        0x0 contiki-srf06-cc26xx.a(sys_ctrl.o)
 .glue_7        0x00010b00        0x0 contiki-srf06-cc26xx.a(trng.o)
 .glue_7        0x00010b00        0x0 contiki-srf06-cc26xx.a(linkaddr.o)
 .glue_7        0x00010b00        0x0 contiki-srf06-cc26xx.a(link-stats.o)
 .glue_7        0x00010b00        0x0 contiki-srf06-cc26xx.a(nbr-table.o)
 .glue_7        0x00010b00        0x0 contiki-srf06-cc26xx.a(netstack.o)
 .glue_7        0x00010b00        0x0 contiki-srf06-cc26xx.a(packetbuf.o)
 .glue_7        0x00010b00        0x0 contiki-srf06-cc26xx.a(queuebuf.o)
 .glue_7        0x00010b00        0x0 contiki-srf06-cc26xx.a(csma.o)
 .glue_7        0x00010b00        0x0 contiki-srf06-cc26xx.a(framer-802154.o)
 .glue_7        0x00010b00        0x0 contiki-srf06-cc26xx.a(mac.o)
 .glue_7        0x00010b00        0x0 contiki-srf06-cc26xx.a(contikimac.o)
 .glue_7        0x00010b00        0x0 contiki-srf06-cc26xx.a(nullsec.o)
 .glue_7        0x00010b00        0x0 contiki-srf06-cc26xx.a(smartrf-setting)
 .glue_7        0x00010b00        0x0 contiki-srf06-cc26xx.a(aux-ctrl.o)
 .glue_7        0x00010b00        0x0 contiki-srf06-cc26xx.a(stimer.o)
 .glue_7        0x00010b00        0x0 contiki-srf06-cc26xx.a(memb.o)
 .glue_7        0x00010b00        0x0 contiki-srf06-cc26xx.a(rpl-nbr-policy.)
 .glue_7        0x00010b00        0x0 contiki-srf06-cc26xx.a(aon_batmon.o)
 .glue_7        0x00010b00        0x0 contiki-srf06-cc26xx.a(ddi.o)
 .glue_7        0x00010b00        0x0 contiki-srf06-cc26xx.a(frame802154.o)
 .glue_7        0x00010b00        0x0 contiki-srf06-cc26xx.a(mac-sequence.o)
 .glue_7        0x00010b00        0x0 /home/user/CodeSourcery/Sourcery_G++_Lite/bin/../lib/gcc/arm-none-eabi/4.3.2/thumb2/libgcc.a(_aeabi_uldivmod.o)
 .glue_7        0x00010b00        0x0 /home/user/CodeSourcery/Sourcery_G++_Lite/bin/../lib/gcc/arm-none-eabi/4.3.2/thumb2/libgcc.a(bpabi.o)
 .glue_7        0x00010b00        0x0 /home/user/CodeSourcery/Sourcery_G++_Lite/bin/../lib/gcc/arm-none-eabi/4.3.2/thumb2/libgcc.a(_dvmd_tls.o)
 .glue_7        0x00010b00        0x0 /home/user/CodeSourcery/Sourcery_G++_Lite/bin/../lib/gcc/arm-none-eabi/4.3.2/thumb2/libgcc.a(_divdi3.o)
 .glue_7        0x00010b00        0x0 /home/user/CodeSourcery/Sourcery_G++_Lite/bin/../lib/gcc/arm-none-eabi/4.3.2/thumb2/libgcc.a(_udivdi3.o)
 .glue_7        0x00010b00        0x0 /home/user/CodeSourcery/Sourcery_G++_Lite/bin/../lib/gcc/arm-none-eabi/4.3.2/thumb2/libgcc.a(_udivsi3.o)
 .glue_7        0x00010b00        0x0 /home/user/CodeSourcery/Sourcery_G++_Lite/bin/../lib/gcc/arm-none-eabi/4.3.2/thumb2/libgcc.a(_clz.o)
 .glue_7        0x00010b00        0x0 /home/user/CodeSourcery/Sourcery_G++_Lite/bin/../lib/gcc/arm-none-eabi/4.3.2/../../../../arm-none-eabi/lib/thumb2/libc.a(lib_a-memcmp.o)
 .glue_7        0x00010b00        0x0 /home/user/CodeSourcery/Sourcery_G++_Lite/bin/../lib/gcc/arm-none-eabi/4.3.2/../../../../arm-none-eabi/lib/thumb2/libc.a(lib_a-memcpy.o)
 .glue_7        0x00010b00        0x0 /home/user/CodeSourcery/Sourcery_G++_Lite/bin/../lib/gcc/arm-none-eabi/4.3.2/../../../../arm-none-eabi/lib/thumb2/libc.a(lib_a-memmove.o)
 .glue_7        0x00010b00        0x0 /home/user/CodeSourcery/Sourcery_G++_Lite/bin/../lib/gcc/arm-none-eabi/4.3.2/../../../../arm-none-eabi/lib/thumb2/libc.a(lib_a-memset.o)
 .glue_7        0x00010b00        0x0 /home/user/CodeSourcery/Sourcery_G++_Lite/bin/../lib/gcc/arm-none-eabi/4.3.2/../../../../arm-none-eabi/lib/thumb2/libc.a(lib_a-strlen.o)
 .glue_7        0x00010b00        0x0 /home/user/CodeSourcery/Sourcery_G++_Lite/bin/../lib/gcc/arm-none-eabi/4.3.2/../../../../arm-none-eabi/lib/thumb2/libc.a(lib_a-strncmp.o)

.glue_7t        0x00010b00        0x0 load address 0x00010afd
 .glue_7t       0x00010b00        0x0 obj_srf06-cc26xx/fault-handlers.o
 .glue_7t       0x00010b00        0x0 obj_srf06-cc26xx/ccfg.o
 .glue_7t       0x00010b00        0x0 obj_srf06-cc26xx/startup_gcc.o
 .glue_7t       0x00010b00        0x0 broadcast-example.co
 .glue_7t       0x00010b00        0x0 contiki-srf06-cc26xx.a(contiki-main.o)
 .glue_7t       0x00010b00        0x0 contiki-srf06-cc26xx.a(sensors.o)
 .glue_7t       0x00010b00        0x0 contiki-srf06-cc26xx.a(leds.o)
 .glue_7t       0x00010b00        0x0 contiki-srf06-cc26xx.a(board.o)
 .glue_7t       0x00010b00        0x0 contiki-srf06-cc26xx.a(launchpad-senso)
 .glue_7t       0x00010b00        0x0 contiki-srf06-cc26xx.a(leds-arch.o)
 .glue_7t       0x00010b00        0x0 contiki-srf06-cc26xx.a(button-sensor.o)
 .glue_7t       0x00010b00        0x0 contiki-srf06-cc26xx.a(ext-flash.o)
 .glue_7t       0x00010b00        0x0 contiki-srf06-cc26xx.a(board-spi.o)
 .glue_7t       0x00010b00        0x0 contiki-srf06-cc26xx.a(prop-mode.o)
 .glue_7t       0x00010b00        0x0 contiki-srf06-cc26xx.a(prop-mode-tx-po)
 .glue_7t       0x00010b00        0x0 contiki-srf06-cc26xx.a(clock.o)
 .glue_7t       0x00010b00        0x0 contiki-srf06-cc26xx.a(rtimer-arch.o)
 .glue_7t       0x00010b00        0x0 contiki-srf06-cc26xx.a(soc-rtc.o)
 .glue_7t       0x00010b00        0x0 contiki-srf06-cc26xx.a(contiki-watchdo)
 .glue_7t       0x00010b00        0x0 contiki-srf06-cc26xx.a(putchar.o)
 .glue_7t       0x00010b00        0x0 contiki-srf06-cc26xx.a(ieee-addr.o)
 .glue_7t       0x00010b00        0x0 contiki-srf06-cc26xx.a(cc26xx-uart.o)
 .glue_7t       0x00010b00        0x0 contiki-srf06-cc26xx.a(lpm.o)
 .glue_7t       0x00010b00        0x0 contiki-srf06-cc26xx.a(gpio-interrupt.)
 .glue_7t       0x00010b00        0x0 contiki-srf06-cc26xx.a(oscillators.o)
 .glue_7t       0x00010b00        0x0 contiki-srf06-cc26xx.a(rf-core.o)
 .glue_7t       0x00010b00        0x0 contiki-srf06-cc26xx.a(rf-ble.o)
 .glue_7t       0x00010b00        0x0 contiki-srf06-cc26xx.a(random.o)
 .glue_7t       0x00010b00        0x0 contiki-srf06-cc26xx.a(soc-trng.o)
 .glue_7t       0x00010b00        0x0 contiki-srf06-cc26xx.a(dbg-printf.o)
 .glue_7t       0x00010b00        0x0 contiki-srf06-cc26xx.a(strformat.o)
 .glue_7t       0x00010b00        0x0 contiki-srf06-cc26xx.a(autostart.o)
 .glue_7t       0x00010b00        0x0 contiki-srf06-cc26xx.a(ctimer.o)
 .glue_7t       0x00010b00        0x0 contiki-srf06-cc26xx.a(energest.o)
 .glue_7t       0x00010b00        0x0 contiki-srf06-cc26xx.a(etimer.o)
 .glue_7t       0x00010b00        0x0 contiki-srf06-cc26xx.a(process.o)
 .glue_7t       0x00010b00        0x0 contiki-srf06-cc26xx.a(rtimer.o)
 .glue_7t       0x00010b00        0x0 contiki-srf06-cc26xx.a(timer.o)
 .glue_7t       0x00010b00        0x0 contiki-srf06-cc26xx.a(serial-line.o)
 .glue_7t       0x00010b00        0x0 contiki-srf06-cc26xx.a(list.o)
 .glue_7t       0x00010b00        0x0 contiki-srf06-cc26xx.a(ringbuf.o)
 .glue_7t       0x00010b00        0x0 contiki-srf06-cc26xx.a(sicslowpan.o)
 .glue_7t       0x00010b00        0x0 contiki-srf06-cc26xx.a(uip6.o)
 .glue_7t       0x00010b00        0x0 contiki-srf06-cc26xx.a(uip-ds6.o)
 .glue_7t       0x00010b00        0x0 contiki-srf06-cc26xx.a(uip-ds6-nbr.o)
 .glue_7t       0x00010b00        0x0 contiki-srf06-cc26xx.a(uip-ds6-route.o)
 .glue_7t       0x00010b00        0x0 contiki-srf06-cc26xx.a(uip-icmp6.o)
 .glue_7t       0x00010b00        0x0 contiki-srf06-cc26xx.a(uip-nd6.o)
 .glue_7t       0x00010b00        0x0 contiki-srf06-cc26xx.a(simple-udp.o)
 .glue_7t       0x00010b00        0x0 contiki-srf06-cc26xx.a(tcpip.o)
 .glue_7t       0x00010b00        0x0 contiki-srf06-cc26xx.a(uip-debug.o)
 .glue_7t       0x00010b00        0x0 contiki-srf06-cc26xx.a(uip-udp-packet.)
 .glue_7t       0x00010b00        0x0 contiki-srf06-cc26xx.a(rpl.o)
 .glue_7t       0x00010b00        0x0 contiki-srf06-cc26xx.a(rpl-dag.o)
 .glue_7t       0x00010b00        0x0 contiki-srf06-cc26xx.a(rpl-ext-header.)
 .glue_7t       0x00010b00        0x0 contiki-srf06-cc26xx.a(rpl-icmp6.o)
 .glue_7t       0x00010b00        0x0 contiki-srf06-cc26xx.a(rpl-mrhof.o)
 .glue_7t       0x00010b00        0x0 contiki-srf06-cc26xx.a(rpl-timers.o)
 .glue_7t       0x00010b00        0x0 contiki-srf06-cc26xx.a(adi.o)
 .glue_7t       0x00010b00        0x0 contiki-srf06-cc26xx.a(aon_rtc.o)
 .glue_7t       0x00010b00        0x0 contiki-srf06-cc26xx.a(chipinfo.o)
 .glue_7t       0x00010b00        0x0 contiki-srf06-cc26xx.a(cpu.o)
 .glue_7t       0x00010b00        0x0 contiki-srf06-cc26xx.a(osc.o)
 .glue_7t       0x00010b00        0x0 contiki-srf06-cc26xx.a(pwr_ctrl.o)
 .glue_7t       0x00010b00        0x0 contiki-srf06-cc26xx.a(rfc.o)
 .glue_7t       0x00010b00        0x0 contiki-srf06-cc26xx.a(setup.o)
 .glue_7t       0x00010b00        0x0 contiki-srf06-cc26xx.a(setup_rom.o)
 .glue_7t       0x00010b00        0x0 contiki-srf06-cc26xx.a(sys_ctrl.o)
 .glue_7t       0x00010b00        0x0 contiki-srf06-cc26xx.a(trng.o)
 .glue_7t       0x00010b00        0x0 contiki-srf06-cc26xx.a(linkaddr.o)
 .glue_7t       0x00010b00        0x0 contiki-srf06-cc26xx.a(link-stats.o)
 .glue_7t       0x00010b00        0x0 contiki-srf06-cc26xx.a(nbr-table.o)
 .glue_7t       0x00010b00        0x0 contiki-srf06-cc26xx.a(netstack.o)
 .glue_7t       0x00010b00        0x0 contiki-srf06-cc26xx.a(packetbuf.o)
 .glue_7t       0x00010b00        0x0 contiki-srf06-cc26xx.a(queuebuf.o)
 .glue_7t       0x00010b00        0x0 contiki-srf06-cc26xx.a(csma.o)
 .glue_7t       0x00010b00        0x0 contiki-srf06-cc26xx.a(framer-802154.o)
 .glue_7t       0x00010b00        0x0 contiki-srf06-cc26xx.a(mac.o)
 .glue_7t       0x00010b00        0x0 contiki-srf06-cc26xx.a(contikimac.o)
 .glue_7t       0x00010b00        0x0 contiki-srf06-cc26xx.a(nullsec.o)
 .glue_7t       0x00010b00        0x0 contiki-srf06-cc26xx.a(smartrf-setting)
 .glue_7t       0x00010b00        0x0 contiki-srf06-cc26xx.a(aux-ctrl.o)
 .glue_7t       0x00010b00        0x0 contiki-srf06-cc26xx.a(stimer.o)
 .glue_7t       0x00010b00        0x0 contiki-srf06-cc26xx.a(memb.o)
 .glue_7t       0x00010b00        0x0 contiki-srf06-cc26xx.a(rpl-nbr-policy.)
 .glue_7t       0x00010b00        0x0 contiki-srf06-cc26xx.a(aon_batmon.o)
 .glue_7t       0x00010b00        0x0 contiki-srf06-cc26xx.a(ddi.o)
 .glue_7t       0x00010b00        0x0 contiki-srf06-cc26xx.a(frame802154.o)
 .glue_7t       0x00010b00        0x0 contiki-srf06-cc26xx.a(mac-sequence.o)
 .glue_7t       0x00010b00        0x0 /home/user/CodeSourcery/Sourcery_G++_Lite/bin/../lib/gcc/arm-none-eabi/4.3.2/thumb2/libgcc.a(_aeabi_uldivmod.o)
 .glue_7t       0x00010b00        0x0 /home/user/CodeSourcery/Sourcery_G++_Lite/bin/../lib/gcc/arm-none-eabi/4.3.2/thumb2/libgcc.a(bpabi.o)
 .glue_7t       0x00010b00        0x0 /home/user/CodeSourcery/Sourcery_G++_Lite/bin/../lib/gcc/arm-none-eabi/4.3.2/thumb2/libgcc.a(_dvmd_tls.o)
 .glue_7t       0x00010b00        0x0 /home/user/CodeSourcery/Sourcery_G++_Lite/bin/../lib/gcc/arm-none-eabi/4.3.2/thumb2/libgcc.a(_divdi3.o)
 .glue_7t       0x00010b00        0x0 /home/user/CodeSourcery/Sourcery_G++_Lite/bin/../lib/gcc/arm-none-eabi/4.3.2/thumb2/libgcc.a(_udivdi3.o)
 .glue_7t       0x00010b00        0x0 /home/user/CodeSourcery/Sourcery_G++_Lite/bin/../lib/gcc/arm-none-eabi/4.3.2/thumb2/libgcc.a(_udivsi3.o)
 .glue_7t       0x00010b00        0x0 /home/user/CodeSourcery/Sourcery_G++_Lite/bin/../lib/gcc/arm-none-eabi/4.3.2/thumb2/libgcc.a(_clz.o)
 .glue_7t       0x00010b00        0x0 /home/user/CodeSourcery/Sourcery_G++_Lite/bin/../lib/gcc/arm-none-eabi/4.3.2/../../../../arm-none-eabi/lib/thumb2/libc.a(lib_a-memcmp.o)
 .glue_7t       0x00010b00        0x0 /home/user/CodeSourcery/Sourcery_G++_Lite/bin/../lib/gcc/arm-none-eabi/4.3.2/../../../../arm-none-eabi/lib/thumb2/libc.a(lib_a-memcpy.o)
 .glue_7t       0x00010b00        0x0 /home/user/CodeSourcery/Sourcery_G++_Lite/bin/../lib/gcc/arm-none-eabi/4.3.2/../../../../arm-none-eabi/lib/thumb2/libc.a(lib_a-memmove.o)
 .glue_7t       0x00010b00        0x0 /home/user/CodeSourcery/Sourcery_G++_Lite/bin/../lib/gcc/arm-none-eabi/4.3.2/../../../../arm-none-eabi/lib/thumb2/libc.a(lib_a-memset.o)
 .glue_7t       0x00010b00        0x0 /home/user/CodeSourcery/Sourcery_G++_Lite/bin/../lib/gcc/arm-none-eabi/4.3.2/../../../../arm-none-eabi/lib/thumb2/libc.a(lib_a-strlen.o)
 .glue_7t       0x00010b00        0x0 /home/user/CodeSourcery/Sourcery_G++_Lite/bin/../lib/gcc/arm-none-eabi/4.3.2/../../../../arm-none-eabi/lib/thumb2/libc.a(lib_a-strncmp.o)

.vfp11_veneer   0x00010b00        0x0 load address 0x00010afd
 .vfp11_veneer  0x00010b00        0x0 obj_srf06-cc26xx/fault-handlers.o
 .vfp11_veneer  0x00010b00        0x0 obj_srf06-cc26xx/ccfg.o
 .vfp11_veneer  0x00010b00        0x0 obj_srf06-cc26xx/startup_gcc.o
 .vfp11_veneer  0x00010b00        0x0 broadcast-example.co
 .vfp11_veneer  0x00010b00        0x0 contiki-srf06-cc26xx.a(contiki-main.o)
 .vfp11_veneer  0x00010b00        0x0 contiki-srf06-cc26xx.a(sensors.o)
 .vfp11_veneer  0x00010b00        0x0 contiki-srf06-cc26xx.a(leds.o)
 .vfp11_veneer  0x00010b00        0x0 contiki-srf06-cc26xx.a(board.o)
 .vfp11_veneer  0x00010b00        0x0 contiki-srf06-cc26xx.a(launchpad-senso)
 .vfp11_veneer  0x00010b00        0x0 contiki-srf06-cc26xx.a(leds-arch.o)
 .vfp11_veneer  0x00010b00        0x0 contiki-srf06-cc26xx.a(button-sensor.o)
 .vfp11_veneer  0x00010b00        0x0 contiki-srf06-cc26xx.a(ext-flash.o)
 .vfp11_veneer  0x00010b00        0x0 contiki-srf06-cc26xx.a(board-spi.o)
 .vfp11_veneer  0x00010b00        0x0 contiki-srf06-cc26xx.a(prop-mode.o)
 .vfp11_veneer  0x00010b00        0x0 contiki-srf06-cc26xx.a(prop-mode-tx-po)
 .vfp11_veneer  0x00010b00        0x0 contiki-srf06-cc26xx.a(clock.o)
 .vfp11_veneer  0x00010b00        0x0 contiki-srf06-cc26xx.a(rtimer-arch.o)
 .vfp11_veneer  0x00010b00        0x0 contiki-srf06-cc26xx.a(soc-rtc.o)
 .vfp11_veneer  0x00010b00        0x0 contiki-srf06-cc26xx.a(contiki-watchdo)
 .vfp11_veneer  0x00010b00        0x0 contiki-srf06-cc26xx.a(putchar.o)
 .vfp11_veneer  0x00010b00        0x0 contiki-srf06-cc26xx.a(ieee-addr.o)
 .vfp11_veneer  0x00010b00        0x0 contiki-srf06-cc26xx.a(cc26xx-uart.o)
 .vfp11_veneer  0x00010b00        0x0 contiki-srf06-cc26xx.a(lpm.o)
 .vfp11_veneer  0x00010b00        0x0 contiki-srf06-cc26xx.a(gpio-interrupt.)
 .vfp11_veneer  0x00010b00        0x0 contiki-srf06-cc26xx.a(oscillators.o)
 .vfp11_veneer  0x00010b00        0x0 contiki-srf06-cc26xx.a(rf-core.o)
 .vfp11_veneer  0x00010b00        0x0 contiki-srf06-cc26xx.a(rf-ble.o)
 .vfp11_veneer  0x00010b00        0x0 contiki-srf06-cc26xx.a(random.o)
 .vfp11_veneer  0x00010b00        0x0 contiki-srf06-cc26xx.a(soc-trng.o)
 .vfp11_veneer  0x00010b00        0x0 contiki-srf06-cc26xx.a(dbg-printf.o)
 .vfp11_veneer  0x00010b00        0x0 contiki-srf06-cc26xx.a(strformat.o)
 .vfp11_veneer  0x00010b00        0x0 contiki-srf06-cc26xx.a(autostart.o)
 .vfp11_veneer  0x00010b00        0x0 contiki-srf06-cc26xx.a(ctimer.o)
 .vfp11_veneer  0x00010b00        0x0 contiki-srf06-cc26xx.a(energest.o)
 .vfp11_veneer  0x00010b00        0x0 contiki-srf06-cc26xx.a(etimer.o)
 .vfp11_veneer  0x00010b00        0x0 contiki-srf06-cc26xx.a(process.o)
 .vfp11_veneer  0x00010b00        0x0 contiki-srf06-cc26xx.a(rtimer.o)
 .vfp11_veneer  0x00010b00        0x0 contiki-srf06-cc26xx.a(timer.o)
 .vfp11_veneer  0x00010b00        0x0 contiki-srf06-cc26xx.a(serial-line.o)
 .vfp11_veneer  0x00010b00        0x0 contiki-srf06-cc26xx.a(list.o)
 .vfp11_veneer  0x00010b00        0x0 contiki-srf06-cc26xx.a(ringbuf.o)
 .vfp11_veneer  0x00010b00        0x0 contiki-srf06-cc26xx.a(sicslowpan.o)
 .vfp11_veneer  0x00010b00        0x0 contiki-srf06-cc26xx.a(uip6.o)
 .vfp11_veneer  0x00010b00        0x0 contiki-srf06-cc26xx.a(uip-ds6.o)
 .vfp11_veneer  0x00010b00        0x0 contiki-srf06-cc26xx.a(uip-ds6-nbr.o)
 .vfp11_veneer  0x00010b00        0x0 contiki-srf06-cc26xx.a(uip-ds6-route.o)
 .vfp11_veneer  0x00010b00        0x0 contiki-srf06-cc26xx.a(uip-icmp6.o)
 .vfp11_veneer  0x00010b00        0x0 contiki-srf06-cc26xx.a(uip-nd6.o)
 .vfp11_veneer  0x00010b00        0x0 contiki-srf06-cc26xx.a(simple-udp.o)
 .vfp11_veneer  0x00010b00        0x0 contiki-srf06-cc26xx.a(tcpip.o)
 .vfp11_veneer  0x00010b00        0x0 contiki-srf06-cc26xx.a(uip-debug.o)
 .vfp11_veneer  0x00010b00        0x0 contiki-srf06-cc26xx.a(uip-udp-packet.)
 .vfp11_veneer  0x00010b00        0x0 contiki-srf06-cc26xx.a(rpl.o)
 .vfp11_veneer  0x00010b00        0x0 contiki-srf06-cc26xx.a(rpl-dag.o)
 .vfp11_veneer  0x00010b00        0x0 contiki-srf06-cc26xx.a(rpl-ext-header.)
 .vfp11_veneer  0x00010b00        0x0 contiki-srf06-cc26xx.a(rpl-icmp6.o)
 .vfp11_veneer  0x00010b00        0x0 contiki-srf06-cc26xx.a(rpl-mrhof.o)
 .vfp11_veneer  0x00010b00        0x0 contiki-srf06-cc26xx.a(rpl-timers.o)
 .vfp11_veneer  0x00010b00        0x0 contiki-srf06-cc26xx.a(adi.o)
 .vfp11_veneer  0x00010b00        0x0 contiki-srf06-cc26xx.a(aon_rtc.o)
 .vfp11_veneer  0x00010b00        0x0 contiki-srf06-cc26xx.a(chipinfo.o)
 .vfp11_veneer  0x00010b00        0x0 contiki-srf06-cc26xx.a(cpu.o)
 .vfp11_veneer  0x00010b00        0x0 contiki-srf06-cc26xx.a(osc.o)
 .vfp11_veneer  0x00010b00        0x0 contiki-srf06-cc26xx.a(pwr_ctrl.o)
 .vfp11_veneer  0x00010b00        0x0 contiki-srf06-cc26xx.a(rfc.o)
 .vfp11_veneer  0x00010b00        0x0 contiki-srf06-cc26xx.a(setup.o)
 .vfp11_veneer  0x00010b00        0x0 contiki-srf06-cc26xx.a(setup_rom.o)
 .vfp11_veneer  0x00010b00        0x0 contiki-srf06-cc26xx.a(sys_ctrl.o)
 .vfp11_veneer  0x00010b00        0x0 contiki-srf06-cc26xx.a(trng.o)
 .vfp11_veneer  0x00010b00        0x0 contiki-srf06-cc26xx.a(linkaddr.o)
 .vfp11_veneer  0x00010b00        0x0 contiki-srf06-cc26xx.a(link-stats.o)
 .vfp11_veneer  0x00010b00        0x0 contiki-srf06-cc26xx.a(nbr-table.o)
 .vfp11_veneer  0x00010b00        0x0 contiki-srf06-cc26xx.a(netstack.o)
 .vfp11_veneer  0x00010b00        0x0 contiki-srf06-cc26xx.a(packetbuf.o)
 .vfp11_veneer  0x00010b00        0x0 contiki-srf06-cc26xx.a(queuebuf.o)
 .vfp11_veneer  0x00010b00        0x0 contiki-srf06-cc26xx.a(csma.o)
 .vfp11_veneer  0x00010b00        0x0 contiki-srf06-cc26xx.a(framer-802154.o)
 .vfp11_veneer  0x00010b00        0x0 contiki-srf06-cc26xx.a(mac.o)
 .vfp11_veneer  0x00010b00        0x0 contiki-srf06-cc26xx.a(contikimac.o)
 .vfp11_veneer  0x00010b00        0x0 contiki-srf06-cc26xx.a(nullsec.o)
 .vfp11_veneer  0x00010b00        0x0 contiki-srf06-cc26xx.a(smartrf-setting)
 .vfp11_veneer  0x00010b00        0x0 contiki-srf06-cc26xx.a(aux-ctrl.o)
 .vfp11_veneer  0x00010b00        0x0 contiki-srf06-cc26xx.a(stimer.o)
 .vfp11_veneer  0x00010b00        0x0 contiki-srf06-cc26xx.a(memb.o)
 .vfp11_veneer  0x00010b00        0x0 contiki-srf06-cc26xx.a(rpl-nbr-policy.)
 .vfp11_veneer  0x00010b00        0x0 contiki-srf06-cc26xx.a(aon_batmon.o)
 .vfp11_veneer  0x00010b00        0x0 contiki-srf06-cc26xx.a(ddi.o)
 .vfp11_veneer  0x00010b00        0x0 contiki-srf06-cc26xx.a(frame802154.o)
 .vfp11_veneer  0x00010b00        0x0 contiki-srf06-cc26xx.a(mac-sequence.o)
 .vfp11_veneer  0x00010b00        0x0 /home/user/CodeSourcery/Sourcery_G++_Lite/bin/../lib/gcc/arm-none-eabi/4.3.2/thumb2/libgcc.a(_aeabi_uldivmod.o)
 .vfp11_veneer  0x00010b00        0x0 /home/user/CodeSourcery/Sourcery_G++_Lite/bin/../lib/gcc/arm-none-eabi/4.3.2/thumb2/libgcc.a(bpabi.o)
 .vfp11_veneer  0x00010b00        0x0 /home/user/CodeSourcery/Sourcery_G++_Lite/bin/../lib/gcc/arm-none-eabi/4.3.2/thumb2/libgcc.a(_dvmd_tls.o)
 .vfp11_veneer  0x00010b00        0x0 /home/user/CodeSourcery/Sourcery_G++_Lite/bin/../lib/gcc/arm-none-eabi/4.3.2/thumb2/libgcc.a(_divdi3.o)
 .vfp11_veneer  0x00010b00        0x0 /home/user/CodeSourcery/Sourcery_G++_Lite/bin/../lib/gcc/arm-none-eabi/4.3.2/thumb2/libgcc.a(_udivdi3.o)
 .vfp11_veneer  0x00010b00        0x0 /home/user/CodeSourcery/Sourcery_G++_Lite/bin/../lib/gcc/arm-none-eabi/4.3.2/thumb2/libgcc.a(_udivsi3.o)
 .vfp11_veneer  0x00010b00        0x0 /home/user/CodeSourcery/Sourcery_G++_Lite/bin/../lib/gcc/arm-none-eabi/4.3.2/thumb2/libgcc.a(_clz.o)
 .vfp11_veneer  0x00010b00        0x0 /home/user/CodeSourcery/Sourcery_G++_Lite/bin/../lib/gcc/arm-none-eabi/4.3.2/../../../../arm-none-eabi/lib/thumb2/libc.a(lib_a-memcmp.o)
 .vfp11_veneer  0x00010b00        0x0 /home/user/CodeSourcery/Sourcery_G++_Lite/bin/../lib/gcc/arm-none-eabi/4.3.2/../../../../arm-none-eabi/lib/thumb2/libc.a(lib_a-memcpy.o)
 .vfp11_veneer  0x00010b00        0x0 /home/user/CodeSourcery/Sourcery_G++_Lite/bin/../lib/gcc/arm-none-eabi/4.3.2/../../../../arm-none-eabi/lib/thumb2/libc.a(lib_a-memmove.o)
 .vfp11_veneer  0x00010b00        0x0 /home/user/CodeSourcery/Sourcery_G++_Lite/bin/../lib/gcc/arm-none-eabi/4.3.2/../../../../arm-none-eabi/lib/thumb2/libc.a(lib_a-memset.o)
 .vfp11_veneer  0x00010b00        0x0 /home/user/CodeSourcery/Sourcery_G++_Lite/bin/../lib/gcc/arm-none-eabi/4.3.2/../../../../arm-none-eabi/lib/thumb2/libc.a(lib_a-strlen.o)
 .vfp11_veneer  0x00010b00        0x0 /home/user/CodeSourcery/Sourcery_G++_Lite/bin/../lib/gcc/arm-none-eabi/4.3.2/../../../../arm-none-eabi/lib/thumb2/libc.a(lib_a-strncmp.o)

.janus_2cc_veneer
                0x00010b00        0x0 load address 0x00010afd
 .janus_2cc_veneer
                0x00010b00        0x0 obj_srf06-cc26xx/fault-handlers.o
 .janus_2cc_veneer
                0x00010b00        0x0 obj_srf06-cc26xx/ccfg.o
 .janus_2cc_veneer
                0x00010b00        0x0 obj_srf06-cc26xx/startup_gcc.o
 .janus_2cc_veneer
                0x00010b00        0x0 broadcast-example.co
 .janus_2cc_veneer
                0x00010b00        0x0 contiki-srf06-cc26xx.a(contiki-main.o)
 .janus_2cc_veneer
                0x00010b00        0x0 contiki-srf06-cc26xx.a(sensors.o)
 .janus_2cc_veneer
                0x00010b00        0x0 contiki-srf06-cc26xx.a(leds.o)
 .janus_2cc_veneer
                0x00010b00        0x0 contiki-srf06-cc26xx.a(board.o)
 .janus_2cc_veneer
                0x00010b00        0x0 contiki-srf06-cc26xx.a(launchpad-senso)
 .janus_2cc_veneer
                0x00010b00        0x0 contiki-srf06-cc26xx.a(leds-arch.o)
 .janus_2cc_veneer
                0x00010b00        0x0 contiki-srf06-cc26xx.a(button-sensor.o)
 .janus_2cc_veneer
                0x00010b00        0x0 contiki-srf06-cc26xx.a(ext-flash.o)
 .janus_2cc_veneer
                0x00010b00        0x0 contiki-srf06-cc26xx.a(board-spi.o)
 .janus_2cc_veneer
                0x00010b00        0x0 contiki-srf06-cc26xx.a(prop-mode.o)
 .janus_2cc_veneer
                0x00010b00        0x0 contiki-srf06-cc26xx.a(prop-mode-tx-po)
 .janus_2cc_veneer
                0x00010b00        0x0 contiki-srf06-cc26xx.a(clock.o)
 .janus_2cc_veneer
                0x00010b00        0x0 contiki-srf06-cc26xx.a(rtimer-arch.o)
 .janus_2cc_veneer
                0x00010b00        0x0 contiki-srf06-cc26xx.a(soc-rtc.o)
 .janus_2cc_veneer
                0x00010b00        0x0 contiki-srf06-cc26xx.a(contiki-watchdo)
 .janus_2cc_veneer
                0x00010b00        0x0 contiki-srf06-cc26xx.a(putchar.o)
 .janus_2cc_veneer
                0x00010b00        0x0 contiki-srf06-cc26xx.a(ieee-addr.o)
 .janus_2cc_veneer
                0x00010b00        0x0 contiki-srf06-cc26xx.a(cc26xx-uart.o)
 .janus_2cc_veneer
                0x00010b00        0x0 contiki-srf06-cc26xx.a(lpm.o)
 .janus_2cc_veneer
                0x00010b00        0x0 contiki-srf06-cc26xx.a(gpio-interrupt.)
 .janus_2cc_veneer
                0x00010b00        0x0 contiki-srf06-cc26xx.a(oscillators.o)
 .janus_2cc_veneer
                0x00010b00        0x0 contiki-srf06-cc26xx.a(rf-core.o)
 .janus_2cc_veneer
                0x00010b00        0x0 contiki-srf06-cc26xx.a(rf-ble.o)
 .janus_2cc_veneer
                0x00010b00        0x0 contiki-srf06-cc26xx.a(random.o)
 .janus_2cc_veneer
                0x00010b00        0x0 contiki-srf06-cc26xx.a(soc-trng.o)
 .janus_2cc_veneer
                0x00010b00        0x0 contiki-srf06-cc26xx.a(dbg-printf.o)
 .janus_2cc_veneer
                0x00010b00        0x0 contiki-srf06-cc26xx.a(strformat.o)
 .janus_2cc_veneer
                0x00010b00        0x0 contiki-srf06-cc26xx.a(autostart.o)
 .janus_2cc_veneer
                0x00010b00        0x0 contiki-srf06-cc26xx.a(ctimer.o)
 .janus_2cc_veneer
                0x00010b00        0x0 contiki-srf06-cc26xx.a(energest.o)
 .janus_2cc_veneer
                0x00010b00        0x0 contiki-srf06-cc26xx.a(etimer.o)
 .janus_2cc_veneer
                0x00010b00        0x0 contiki-srf06-cc26xx.a(process.o)
 .janus_2cc_veneer
                0x00010b00        0x0 contiki-srf06-cc26xx.a(rtimer.o)
 .janus_2cc_veneer
                0x00010b00        0x0 contiki-srf06-cc26xx.a(timer.o)
 .janus_2cc_veneer
                0x00010b00        0x0 contiki-srf06-cc26xx.a(serial-line.o)
 .janus_2cc_veneer
                0x00010b00        0x0 contiki-srf06-cc26xx.a(list.o)
 .janus_2cc_veneer
                0x00010b00        0x0 contiki-srf06-cc26xx.a(ringbuf.o)
 .janus_2cc_veneer
                0x00010b00        0x0 contiki-srf06-cc26xx.a(sicslowpan.o)
 .janus_2cc_veneer
                0x00010b00        0x0 contiki-srf06-cc26xx.a(uip6.o)
 .janus_2cc_veneer
                0x00010b00        0x0 contiki-srf06-cc26xx.a(uip-ds6.o)
 .janus_2cc_veneer
                0x00010b00        0x0 contiki-srf06-cc26xx.a(uip-ds6-nbr.o)
 .janus_2cc_veneer
                0x00010b00        0x0 contiki-srf06-cc26xx.a(uip-ds6-route.o)
 .janus_2cc_veneer
                0x00010b00        0x0 contiki-srf06-cc26xx.a(uip-icmp6.o)
 .janus_2cc_veneer
                0x00010b00        0x0 contiki-srf06-cc26xx.a(uip-nd6.o)
 .janus_2cc_veneer
                0x00010b00        0x0 contiki-srf06-cc26xx.a(simple-udp.o)
 .janus_2cc_veneer
                0x00010b00        0x0 contiki-srf06-cc26xx.a(tcpip.o)
 .janus_2cc_veneer
                0x00010b00        0x0 contiki-srf06-cc26xx.a(uip-debug.o)
 .janus_2cc_veneer
                0x00010b00        0x0 contiki-srf06-cc26xx.a(uip-udp-packet.)
 .janus_2cc_veneer
                0x00010b00        0x0 contiki-srf06-cc26xx.a(rpl.o)
 .janus_2cc_veneer
                0x00010b00        0x0 contiki-srf06-cc26xx.a(rpl-dag.o)
 .janus_2cc_veneer
                0x00010b00        0x0 contiki-srf06-cc26xx.a(rpl-ext-header.)
 .janus_2cc_veneer
                0x00010b00        0x0 contiki-srf06-cc26xx.a(rpl-icmp6.o)
 .janus_2cc_veneer
                0x00010b00        0x0 contiki-srf06-cc26xx.a(rpl-mrhof.o)
 .janus_2cc_veneer
                0x00010b00        0x0 contiki-srf06-cc26xx.a(rpl-timers.o)
 .janus_2cc_veneer
                0x00010b00        0x0 contiki-srf06-cc26xx.a(adi.o)
 .janus_2cc_veneer
                0x00010b00        0x0 contiki-srf06-cc26xx.a(aon_rtc.o)
 .janus_2cc_veneer
                0x00010b00        0x0 contiki-srf06-cc26xx.a(chipinfo.o)
 .janus_2cc_veneer
                0x00010b00        0x0 contiki-srf06-cc26xx.a(cpu.o)
 .janus_2cc_veneer
                0x00010b00        0x0 contiki-srf06-cc26xx.a(osc.o)
 .janus_2cc_veneer
                0x00010b00        0x0 contiki-srf06-cc26xx.a(pwr_ctrl.o)
 .janus_2cc_veneer
                0x00010b00        0x0 contiki-srf06-cc26xx.a(rfc.o)
 .janus_2cc_veneer
                0x00010b00        0x0 contiki-srf06-cc26xx.a(setup.o)
 .janus_2cc_veneer
                0x00010b00        0x0 contiki-srf06-cc26xx.a(setup_rom.o)
 .janus_2cc_veneer
                0x00010b00        0x0 contiki-srf06-cc26xx.a(sys_ctrl.o)
 .janus_2cc_veneer
                0x00010b00        0x0 contiki-srf06-cc26xx.a(trng.o)
 .janus_2cc_veneer
                0x00010b00        0x0 contiki-srf06-cc26xx.a(linkaddr.o)
 .janus_2cc_veneer
                0x00010b00        0x0 contiki-srf06-cc26xx.a(link-stats.o)
 .janus_2cc_veneer
                0x00010b00        0x0 contiki-srf06-cc26xx.a(nbr-table.o)
 .janus_2cc_veneer
                0x00010b00        0x0 contiki-srf06-cc26xx.a(netstack.o)
 .janus_2cc_veneer
                0x00010b00        0x0 contiki-srf06-cc26xx.a(packetbuf.o)
 .janus_2cc_veneer
                0x00010b00        0x0 contiki-srf06-cc26xx.a(queuebuf.o)
 .janus_2cc_veneer
                0x00010b00        0x0 contiki-srf06-cc26xx.a(csma.o)
 .janus_2cc_veneer
                0x00010b00        0x0 contiki-srf06-cc26xx.a(framer-802154.o)
 .janus_2cc_veneer
                0x00010b00        0x0 contiki-srf06-cc26xx.a(mac.o)
 .janus_2cc_veneer
                0x00010b00        0x0 contiki-srf06-cc26xx.a(contikimac.o)
 .janus_2cc_veneer
                0x00010b00        0x0 contiki-srf06-cc26xx.a(nullsec.o)
 .janus_2cc_veneer
                0x00010b00        0x0 contiki-srf06-cc26xx.a(smartrf-setting)
 .janus_2cc_veneer
                0x00010b00        0x0 contiki-srf06-cc26xx.a(aux-ctrl.o)
 .janus_2cc_veneer
                0x00010b00        0x0 contiki-srf06-cc26xx.a(stimer.o)
 .janus_2cc_veneer
                0x00010b00        0x0 contiki-srf06-cc26xx.a(memb.o)
 .janus_2cc_veneer
                0x00010b00        0x0 contiki-srf06-cc26xx.a(rpl-nbr-policy.)
 .janus_2cc_veneer
                0x00010b00        0x0 contiki-srf06-cc26xx.a(aon_batmon.o)
 .janus_2cc_veneer
                0x00010b00        0x0 contiki-srf06-cc26xx.a(ddi.o)
 .janus_2cc_veneer
                0x00010b00        0x0 contiki-srf06-cc26xx.a(frame802154.o)
 .janus_2cc_veneer
                0x00010b00        0x0 contiki-srf06-cc26xx.a(mac-sequence.o)
 .janus_2cc_veneer
                0x00010b00        0x0 /home/user/CodeSourcery/Sourcery_G++_Lite/bin/../lib/gcc/arm-none-eabi/4.3.2/thumb2/libgcc.a(_aeabi_uldivmod.o)
 .janus_2cc_veneer
                0x00010b00        0x0 /home/user/CodeSourcery/Sourcery_G++_Lite/bin/../lib/gcc/arm-none-eabi/4.3.2/thumb2/libgcc.a(bpabi.o)
 .janus_2cc_veneer
                0x00010b00        0x0 /home/user/CodeSourcery/Sourcery_G++_Lite/bin/../lib/gcc/arm-none-eabi/4.3.2/thumb2/libgcc.a(_dvmd_tls.o)
 .janus_2cc_veneer
                0x00010b00        0x0 /home/user/CodeSourcery/Sourcery_G++_Lite/bin/../lib/gcc/arm-none-eabi/4.3.2/thumb2/libgcc.a(_divdi3.o)
 .janus_2cc_veneer
                0x00010b00        0x0 /home/user/CodeSourcery/Sourcery_G++_Lite/bin/../lib/gcc/arm-none-eabi/4.3.2/thumb2/libgcc.a(_udivdi3.o)
 .janus_2cc_veneer
                0x00010b00        0x0 /home/user/CodeSourcery/Sourcery_G++_Lite/bin/../lib/gcc/arm-none-eabi/4.3.2/thumb2/libgcc.a(_udivsi3.o)
 .janus_2cc_veneer
                0x00010b00        0x0 /home/user/CodeSourcery/Sourcery_G++_Lite/bin/../lib/gcc/arm-none-eabi/4.3.2/thumb2/libgcc.a(_clz.o)
 .janus_2cc_veneer
                0x00010b00        0x0 /home/user/CodeSourcery/Sourcery_G++_Lite/bin/../lib/gcc/arm-none-eabi/4.3.2/../../../../arm-none-eabi/lib/thumb2/libc.a(lib_a-memcmp.o)
 .janus_2cc_veneer
                0x00010b00        0x0 /home/user/CodeSourcery/Sourcery_G++_Lite/bin/../lib/gcc/arm-none-eabi/4.3.2/../../../../arm-none-eabi/lib/thumb2/libc.a(lib_a-memcpy.o)
 .janus_2cc_veneer
                0x00010b00        0x0 /home/user/CodeSourcery/Sourcery_G++_Lite/bin/../lib/gcc/arm-none-eabi/4.3.2/../../../../arm-none-eabi/lib/thumb2/libc.a(lib_a-memmove.o)
 .janus_2cc_veneer
                0x00010b00        0x0 /home/user/CodeSourcery/Sourcery_G++_Lite/bin/../lib/gcc/arm-none-eabi/4.3.2/../../../../arm-none-eabi/lib/thumb2/libc.a(lib_a-memset.o)
 .janus_2cc_veneer
                0x00010b00        0x0 /home/user/CodeSourcery/Sourcery_G++_Lite/bin/../lib/gcc/arm-none-eabi/4.3.2/../../../../arm-none-eabi/lib/thumb2/libc.a(lib_a-strlen.o)
 .janus_2cc_veneer
                0x00010b00        0x0 /home/user/CodeSourcery/Sourcery_G++_Lite/bin/../lib/gcc/arm-none-eabi/4.3.2/../../../../arm-none-eabi/lib/thumb2/libc.a(lib_a-strncmp.o)

.v4_bx          0x00010b00        0x0 load address 0x00010afd
 .v4_bx         0x00010b00        0x0 obj_srf06-cc26xx/fault-handlers.o
 .v4_bx         0x00010b00        0x0 obj_srf06-cc26xx/ccfg.o
 .v4_bx         0x00010b00        0x0 obj_srf06-cc26xx/startup_gcc.o
 .v4_bx         0x00010b00        0x0 broadcast-example.co
 .v4_bx         0x00010b00        0x0 contiki-srf06-cc26xx.a(contiki-main.o)
 .v4_bx         0x00010b00        0x0 contiki-srf06-cc26xx.a(sensors.o)
 .v4_bx         0x00010b00        0x0 contiki-srf06-cc26xx.a(leds.o)
 .v4_bx         0x00010b00        0x0 contiki-srf06-cc26xx.a(board.o)
 .v4_bx         0x00010b00        0x0 contiki-srf06-cc26xx.a(launchpad-senso)
 .v4_bx         0x00010b00        0x0 contiki-srf06-cc26xx.a(leds-arch.o)
 .v4_bx         0x00010b00        0x0 contiki-srf06-cc26xx.a(button-sensor.o)
 .v4_bx         0x00010b00        0x0 contiki-srf06-cc26xx.a(ext-flash.o)
 .v4_bx         0x00010b00        0x0 contiki-srf06-cc26xx.a(board-spi.o)
 .v4_bx         0x00010b00        0x0 contiki-srf06-cc26xx.a(prop-mode.o)
 .v4_bx         0x00010b00        0x0 contiki-srf06-cc26xx.a(prop-mode-tx-po)
 .v4_bx         0x00010b00        0x0 contiki-srf06-cc26xx.a(clock.o)
 .v4_bx         0x00010b00        0x0 contiki-srf06-cc26xx.a(rtimer-arch.o)
 .v4_bx         0x00010b00        0x0 contiki-srf06-cc26xx.a(soc-rtc.o)
 .v4_bx         0x00010b00        0x0 contiki-srf06-cc26xx.a(contiki-watchdo)
 .v4_bx         0x00010b00        0x0 contiki-srf06-cc26xx.a(putchar.o)
 .v4_bx         0x00010b00        0x0 contiki-srf06-cc26xx.a(ieee-addr.o)
 .v4_bx         0x00010b00        0x0 contiki-srf06-cc26xx.a(cc26xx-uart.o)
 .v4_bx         0x00010b00        0x0 contiki-srf06-cc26xx.a(lpm.o)
 .v4_bx         0x00010b00        0x0 contiki-srf06-cc26xx.a(gpio-interrupt.)
 .v4_bx         0x00010b00        0x0 contiki-srf06-cc26xx.a(oscillators.o)
 .v4_bx         0x00010b00        0x0 contiki-srf06-cc26xx.a(rf-core.o)
 .v4_bx         0x00010b00        0x0 contiki-srf06-cc26xx.a(rf-ble.o)
 .v4_bx         0x00010b00        0x0 contiki-srf06-cc26xx.a(random.o)
 .v4_bx         0x00010b00        0x0 contiki-srf06-cc26xx.a(soc-trng.o)
 .v4_bx         0x00010b00        0x0 contiki-srf06-cc26xx.a(dbg-printf.o)
 .v4_bx         0x00010b00        0x0 contiki-srf06-cc26xx.a(strformat.o)
 .v4_bx         0x00010b00        0x0 contiki-srf06-cc26xx.a(autostart.o)
 .v4_bx         0x00010b00        0x0 contiki-srf06-cc26xx.a(ctimer.o)
 .v4_bx         0x00010b00        0x0 contiki-srf06-cc26xx.a(energest.o)
 .v4_bx         0x00010b00        0x0 contiki-srf06-cc26xx.a(etimer.o)
 .v4_bx         0x00010b00        0x0 contiki-srf06-cc26xx.a(process.o)
 .v4_bx         0x00010b00        0x0 contiki-srf06-cc26xx.a(rtimer.o)
 .v4_bx         0x00010b00        0x0 contiki-srf06-cc26xx.a(timer.o)
 .v4_bx         0x00010b00        0x0 contiki-srf06-cc26xx.a(serial-line.o)
 .v4_bx         0x00010b00        0x0 contiki-srf06-cc26xx.a(list.o)
 .v4_bx         0x00010b00        0x0 contiki-srf06-cc26xx.a(ringbuf.o)
 .v4_bx         0x00010b00        0x0 contiki-srf06-cc26xx.a(sicslowpan.o)
 .v4_bx         0x00010b00        0x0 contiki-srf06-cc26xx.a(uip6.o)
 .v4_bx         0x00010b00        0x0 contiki-srf06-cc26xx.a(uip-ds6.o)
 .v4_bx         0x00010b00        0x0 contiki-srf06-cc26xx.a(uip-ds6-nbr.o)
 .v4_bx         0x00010b00        0x0 contiki-srf06-cc26xx.a(uip-ds6-route.o)
 .v4_bx         0x00010b00        0x0 contiki-srf06-cc26xx.a(uip-icmp6.o)
 .v4_bx         0x00010b00        0x0 contiki-srf06-cc26xx.a(uip-nd6.o)
 .v4_bx         0x00010b00        0x0 contiki-srf06-cc26xx.a(simple-udp.o)
 .v4_bx         0x00010b00        0x0 contiki-srf06-cc26xx.a(tcpip.o)
 .v4_bx         0x00010b00        0x0 contiki-srf06-cc26xx.a(uip-debug.o)
 .v4_bx         0x00010b00        0x0 contiki-srf06-cc26xx.a(uip-udp-packet.)
 .v4_bx         0x00010b00        0x0 contiki-srf06-cc26xx.a(rpl.o)
 .v4_bx         0x00010b00        0x0 contiki-srf06-cc26xx.a(rpl-dag.o)
 .v4_bx         0x00010b00        0x0 contiki-srf06-cc26xx.a(rpl-ext-header.)
 .v4_bx         0x00010b00        0x0 contiki-srf06-cc26xx.a(rpl-icmp6.o)
 .v4_bx         0x00010b00        0x0 contiki-srf06-cc26xx.a(rpl-mrhof.o)
 .v4_bx         0x00010b00        0x0 contiki-srf06-cc26xx.a(rpl-timers.o)
 .v4_bx         0x00010b00        0x0 contiki-srf06-cc26xx.a(adi.o)
 .v4_bx         0x00010b00        0x0 contiki-srf06-cc26xx.a(aon_rtc.o)
 .v4_bx         0x00010b00        0x0 contiki-srf06-cc26xx.a(chipinfo.o)
 .v4_bx         0x00010b00        0x0 contiki-srf06-cc26xx.a(cpu.o)
 .v4_bx         0x00010b00        0x0 contiki-srf06-cc26xx.a(osc.o)
 .v4_bx         0x00010b00        0x0 contiki-srf06-cc26xx.a(pwr_ctrl.o)
 .v4_bx         0x00010b00        0x0 contiki-srf06-cc26xx.a(rfc.o)
 .v4_bx         0x00010b00        0x0 contiki-srf06-cc26xx.a(setup.o)
 .v4_bx         0x00010b00        0x0 contiki-srf06-cc26xx.a(setup_rom.o)
 .v4_bx         0x00010b00        0x0 contiki-srf06-cc26xx.a(sys_ctrl.o)
 .v4_bx         0x00010b00        0x0 contiki-srf06-cc26xx.a(trng.o)
 .v4_bx         0x00010b00        0x0 contiki-srf06-cc26xx.a(linkaddr.o)
 .v4_bx         0x00010b00        0x0 contiki-srf06-cc26xx.a(link-stats.o)
 .v4_bx         0x00010b00        0x0 contiki-srf06-cc26xx.a(nbr-table.o)
 .v4_bx         0x00010b00        0x0 contiki-srf06-cc26xx.a(netstack.o)
 .v4_bx         0x00010b00        0x0 contiki-srf06-cc26xx.a(packetbuf.o)
 .v4_bx         0x00010b00        0x0 contiki-srf06-cc26xx.a(queuebuf.o)
 .v4_bx         0x00010b00        0x0 contiki-srf06-cc26xx.a(csma.o)
 .v4_bx         0x00010b00        0x0 contiki-srf06-cc26xx.a(framer-802154.o)
 .v4_bx         0x00010b00        0x0 contiki-srf06-cc26xx.a(mac.o)
 .v4_bx         0x00010b00        0x0 contiki-srf06-cc26xx.a(contikimac.o)
 .v4_bx         0x00010b00        0x0 contiki-srf06-cc26xx.a(nullsec.o)
 .v4_bx         0x00010b00        0x0 contiki-srf06-cc26xx.a(smartrf-setting)
 .v4_bx         0x00010b00        0x0 contiki-srf06-cc26xx.a(aux-ctrl.o)
 .v4_bx         0x00010b00        0x0 contiki-srf06-cc26xx.a(stimer.o)
 .v4_bx         0x00010b00        0x0 contiki-srf06-cc26xx.a(memb.o)
 .v4_bx         0x00010b00        0x0 contiki-srf06-cc26xx.a(rpl-nbr-policy.)
 .v4_bx         0x00010b00        0x0 contiki-srf06-cc26xx.a(aon_batmon.o)
 .v4_bx         0x00010b00        0x0 contiki-srf06-cc26xx.a(ddi.o)
 .v4_bx         0x00010b00        0x0 contiki-srf06-cc26xx.a(frame802154.o)
 .v4_bx         0x00010b00        0x0 contiki-srf06-cc26xx.a(mac-sequence.o)
 .v4_bx         0x00010b00        0x0 /home/user/CodeSourcery/Sourcery_G++_Lite/bin/../lib/gcc/arm-none-eabi/4.3.2/thumb2/libgcc.a(_aeabi_uldivmod.o)
 .v4_bx         0x00010b00        0x0 /home/user/CodeSourcery/Sourcery_G++_Lite/bin/../lib/gcc/arm-none-eabi/4.3.2/thumb2/libgcc.a(bpabi.o)
 .v4_bx         0x00010b00        0x0 /home/user/CodeSourcery/Sourcery_G++_Lite/bin/../lib/gcc/arm-none-eabi/4.3.2/thumb2/libgcc.a(_dvmd_tls.o)
 .v4_bx         0x00010b00        0x0 /home/user/CodeSourcery/Sourcery_G++_Lite/bin/../lib/gcc/arm-none-eabi/4.3.2/thumb2/libgcc.a(_divdi3.o)
 .v4_bx         0x00010b00        0x0 /home/user/CodeSourcery/Sourcery_G++_Lite/bin/../lib/gcc/arm-none-eabi/4.3.2/thumb2/libgcc.a(_udivdi3.o)
 .v4_bx         0x00010b00        0x0 /home/user/CodeSourcery/Sourcery_G++_Lite/bin/../lib/gcc/arm-none-eabi/4.3.2/thumb2/libgcc.a(_udivsi3.o)
 .v4_bx         0x00010b00        0x0 /home/user/CodeSourcery/Sourcery_G++_Lite/bin/../lib/gcc/arm-none-eabi/4.3.2/thumb2/libgcc.a(_clz.o)
 .v4_bx         0x00010b00        0x0 /home/user/CodeSourcery/Sourcery_G++_Lite/bin/../lib/gcc/arm-none-eabi/4.3.2/../../../../arm-none-eabi/lib/thumb2/libc.a(lib_a-memcmp.o)
 .v4_bx         0x00010b00        0x0 /home/user/CodeSourcery/Sourcery_G++_Lite/bin/../lib/gcc/arm-none-eabi/4.3.2/../../../../arm-none-eabi/lib/thumb2/libc.a(lib_a-memcpy.o)
 .v4_bx         0x00010b00        0x0 /home/user/CodeSourcery/Sourcery_G++_Lite/bin/../lib/gcc/arm-none-eabi/4.3.2/../../../../arm-none-eabi/lib/thumb2/libc.a(lib_a-memmove.o)
 .v4_bx         0x00010b00        0x0 /home/user/CodeSourcery/Sourcery_G++_Lite/bin/../lib/gcc/arm-none-eabi/4.3.2/../../../../arm-none-eabi/lib/thumb2/libc.a(lib_a-memset.o)
 .v4_bx         0x00010b00        0x0 /home/user/CodeSourcery/Sourcery_G++_Lite/bin/../lib/gcc/arm-none-eabi/4.3.2/../../../../arm-none-eabi/lib/thumb2/libc.a(lib_a-strlen.o)
 .v4_bx         0x00010b00        0x0 /home/user/CodeSourcery/Sourcery_G++_Lite/bin/../lib/gcc/arm-none-eabi/4.3.2/../../../../arm-none-eabi/lib/thumb2/libc.a(lib_a-strncmp.o)

.data           0x20000000      0x32d load address 0x00010afd
                0x20000000                _data = .
 *(SORT(vtable))
 *(SORT(.data*))
 .data.broadcast_example_process
                0x20000000       0x10 broadcast-example.co
                0x20000000                broadcast_example_process
 .data.controlTime
                0x20000010        0x4 broadcast-example.co
                0x20000010                controlTime
 .data.httpTime
                0x20000014        0x4 broadcast-example.co
                0x20000014                httpTime
 .data.motionTime
                0x20000018        0x4 broadcast-example.co
                0x20000018                motionTime
 .data.sensors_process
                0x2000001c       0x10 contiki-srf06-cc26xx.a(sensors.o)
                0x2000001c                sensors_process
 .data.launchpad_module
                0x2000002c       0x14 contiki-srf06-cc26xx.a(board.o)
 .data.sensors  0x20000040        0xc contiki-srf06-cc26xx.a(launchpad-senso)
                0x20000040                sensors
 .data.prop_lpm_module
                0x2000004c       0x14 contiki-srf06-cc26xx.a(prop-mode.o)
 .data.tx_power_current
                0x20000060        0x4 contiki-srf06-cc26xx.a(prop-mode.o)
                0x20000060                tx_power_current
 .data.uart_module
                0x20000064       0x14 contiki-srf06-cc26xx.a(cc26xx-uart.o)
 .data.rf_core_process
                0x20000078       0x10 contiki-srf06-cc26xx.a(rf-core.o)
                0x20000078                rf_core_process
 .data.rng_module
                0x20000088       0x14 contiki-srf06-cc26xx.a(soc-trng.o)
 .data.soc_trng_process
                0x2000009c       0x10 contiki-srf06-cc26xx.a(soc-trng.o)
                0x2000009c                soc_trng_process
 .data.ctxt     0x200000ac        0x8 contiki-srf06-cc26xx.a(dbg-printf.o)
 .data.ctimer_process
                0x200000b4       0x10 contiki-srf06-cc26xx.a(ctimer.o)
                0x200000b4                ctimer_process
 .data.etimer_process
                0x200000c4       0x10 contiki-srf06-cc26xx.a(etimer.o)
                0x200000c4                etimer_process
 .data.serial_line_process
                0x200000d4       0x10 contiki-srf06-cc26xx.a(serial-line.o)
                0x200000d4                serial_line_process
 .data.ds6_neighbors
                0x200000e4        0x4 contiki-srf06-cc26xx.a(uip-ds6-nbr.o)
                0x200000e4                ds6_neighbors
 .data.ds6_neighbors_struct
                0x200000e8       0x10 contiki-srf06-cc26xx.a(uip-ds6-nbr.o)
 .data.defaultroutermemb
                0x200000f8        0xc contiki-srf06-cc26xx.a(uip-ds6-route.o)
 .data.nbr_routes_struct
                0x20000104       0x10 contiki-srf06-cc26xx.a(uip-ds6-route.o)
 .data.nbr_routes
                0x20000114        0x4 contiki-srf06-cc26xx.a(uip-ds6-route.o)
                0x20000114                nbr_routes
 .data.routememb
                0x20000118        0xc contiki-srf06-cc26xx.a(uip-ds6-route.o)
 .data.neighborroutememb
                0x20000124        0xc contiki-srf06-cc26xx.a(uip-ds6-route.o)
 .data.echo_request_handler
                0x20000130        0xc contiki-srf06-cc26xx.a(uip-icmp6.o)
 .data.echo_reply_handler
                0x2000013c        0xc contiki-srf06-cc26xx.a(uip-icmp6.o)
 .data.ns_input_handler
                0x20000148        0xc contiki-srf06-cc26xx.a(uip-nd6.o)
 .data.simple_udp_process
                0x20000154       0x10 contiki-srf06-cc26xx.a(simple-udp.o)
                0x20000154                simple_udp_process
 .data.tcpip_process
                0x20000164       0x10 contiki-srf06-cc26xx.a(tcpip.o)
                0x20000164                tcpip_process
 .data.rpl_parents
                0x20000174        0x4 contiki-srf06-cc26xx.a(rpl-dag.o)
                0x20000174                rpl_parents
 .data.rpl_parents_struct
                0x20000178       0x10 contiki-srf06-cc26xx.a(rpl-dag.o)
 .data.dao_ack_handler
                0x20000188        0xc contiki-srf06-cc26xx.a(rpl-icmp6.o)
 .data.dis_handler
                0x20000194        0xc contiki-srf06-cc26xx.a(rpl-icmp6.o)
 .data.dao_handler
                0x200001a0        0xc contiki-srf06-cc26xx.a(rpl-icmp6.o)
 .data.dio_handler
                0x200001ac        0xc contiki-srf06-cc26xx.a(rpl-icmp6.o)
 .data.rpl_mrhof
                0x200001b8       0x24 contiki-srf06-cc26xx.a(rpl-mrhof.o)
                0x200001b8                rpl_mrhof
 .data.link_stats_struct
                0x200001dc       0x10 contiki-srf06-cc26xx.a(link-stats.o)
 .data.neighbor_addr_mem
                0x200001ec        0xc contiki-srf06-cc26xx.a(nbr-table.o)
 .data.bufmem   0x200001f8        0xc contiki-srf06-cc26xx.a(queuebuf.o)
 .data.buframmem
                0x20000204        0xc contiki-srf06-cc26xx.a(queuebuf.o)
 .data.metadata_memb
                0x20000210        0xc contiki-srf06-cc26xx.a(csma.o)
 .data.neighbor_memb
                0x2000021c        0xc contiki-srf06-cc26xx.a(csma.o)
 .data.packet_memb
                0x20000228        0xc contiki-srf06-cc26xx.a(csma.o)
 .data.smartrf_settings_cmd_prop_rx_adv
                0x20000234       0x30 contiki-srf06-cc26xx.a(smartrf-setting)
                0x20000234                smartrf_settings_cmd_prop_rx_adv
 .data.smartrf_settings_cmd_fs
                0x20000264       0x18 contiki-srf06-cc26xx.a(smartrf-setting)
                0x20000264                smartrf_settings_cmd_fs
 .data.smartrf_settings_cmd_prop_radio_div_setup
                0x2000027c       0x28 contiki-srf06-cc26xx.a(smartrf-setting)
                0x2000027c                smartrf_settings_cmd_prop_radio_div_setup
 .data.smartrf_settings_cmd_prop_tx_adv
                0x200002a4       0x20 contiki-srf06-cc26xx.a(smartrf-setting)
                0x200002a4                smartrf_settings_cmd_prop_tx_adv
 .data.overrides
                0x200002c4       0x60 contiki-srf06-cc26xx.a(smartrf-setting)
 .data.mac_pan_id
                0x20000324        0x2 contiki-srf06-cc26xx.a(frame802154.o)
 .data.prevEmpty
                0x20000326        0x1 broadcast-example.co
                0x20000326                prevEmpty
 .data.empty    0x20000327        0x1 broadcast-example.co
                0x20000327                empty
 .data.interface
                0x20000328        0x1 broadcast-example.co
 .data.init     0x20000329        0x1 broadcast-example.co
                0x20000329                init
 .data.rssi_threshold
                0x2000032a        0x1 contiki-srf06-cc26xx.a(prop-mode.o)
 .data.rng_ready_event
                0x2000032b        0x1 contiki-srf06-cc26xx.a(soc-trng.o)
 .data.dao_sequence
                0x2000032c        0x1 contiki-srf06-cc26xx.a(rpl-icmp6.o)
                0x2000032d                _edata = .

.ARM.exidx      0x00010e2c       0x10
 *(SORT(.ARM.exidx*))
 .ARM.exidx     0x00010e2c        0x8 /home/user/CodeSourcery/Sourcery_G++_Lite/bin/../lib/gcc/arm-none-eabi/4.3.2/thumb2/libgcc.a(_divdi3.o)
 .ARM.exidx     0x00010e34        0x8 /home/user/CodeSourcery/Sourcery_G++_Lite/bin/../lib/gcc/arm-none-eabi/4.3.2/thumb2/libgcc.a(_udivdi3.o)

.bss            0x20000330     0x3155
                0x20000330                _bss = .
 *(SORT(.bss*))
 .bss.count     0x20000330        0x8 contiki-srf06-cc26xx.a(clock.o)
 .bss.rands_cache
                0x20000338       0x20 contiki-srf06-cc26xx.a(soc-trng.o)
 .bss.broadcast_connection
                0x20000358       0x24 broadcast-example.co
 .bss.periodic_timer
                0x2000037c       0x10 broadcast-example.co
 .bss.i.2044    0x2000038c        0x4 contiki-srf06-cc26xx.a(sensors.o)
 .bss.events.2045
                0x20000390        0x4 contiki-srf06-cc26xx.a(sensors.o)
 .bss.inited    0x20000394        0x4 contiki-srf06-cc26xx.a(leds-arch.o)
 .bss.right_timer
                0x20000398       0x10 contiki-srf06-cc26xx.a(button-sensor.o)
 .bss.left_timer
                0x200003a8       0x10 contiki-srf06-cc26xx.a(button-sensor.o)
 .bss.rx_stats  0x200003b8        0xc contiki-srf06-cc26xx.a(prop-mode.o)
 .bss.rx_data_queue
                0x200003c4        0x8 contiki-srf06-cc26xx.a(prop-mode.o)
 .bss.rx_read_entry
                0x200003cc        0x4 contiki-srf06-cc26xx.a(prop-mode.o)
 .bss.tx_buf    0x200003d0       0xb8 contiki-srf06-cc26xx.a(prop-mode.o)
 .bss.rx_buf    0x20000488      0x230 contiki-srf06-cc26xx.a(prop-mode.o)
 .bss.last_isr_time
                0x200006b8        0x4 contiki-srf06-cc26xx.a(soc-rtc.o)
 .bss.input_handler
                0x200006bc        0x4 contiki-srf06-cc26xx.a(cc26xx-uart.o)
 .bss.modules_list_list
                0x200006c0        0x4 contiki-srf06-cc26xx.a(lpm.o)
 .bss.handlers  0x200006c4       0x80 contiki-srf06-cc26xx.a(gpio-interrupt.)
 .bss.last_radio_op
                0x20000744        0x4 contiki-srf06-cc26xx.a(rf-core.o)
 .bss.primary_mode
                0x20000748        0x4 contiki-srf06-cc26xx.a(rf-core.o)
 .bss.rat_offset
                0x2000074c        0x4 contiki-srf06-cc26xx.a(rf-core.o)
                0x2000074c                rat_offset
 .bss.notify_cb
                0x20000750        0x4 contiki-srf06-cc26xx.a(soc-trng.o)
 .bss.ctimer_list_list
                0x20000754        0x4 contiki-srf06-cc26xx.a(ctimer.o)
 .bss.timerlist
                0x20000758        0x4 contiki-srf06-cc26xx.a(etimer.o)
 .bss.next_expiration
                0x2000075c        0x4 contiki-srf06-cc26xx.a(etimer.o)
 .bss.process_current
                0x20000760        0x4 contiki-srf06-cc26xx.a(process.o)
                0x20000760                process_current
 .bss.process_list
                0x20000764        0x4 contiki-srf06-cc26xx.a(process.o)
                0x20000764                process_list
 .bss.events    0x20000768      0x180 contiki-srf06-cc26xx.a(process.o)
 .bss.next_rtimer
                0x200008e8        0x4 contiki-srf06-cc26xx.a(rtimer.o)
 .bss.rxbuf     0x200008ec        0x8 contiki-srf06-cc26xx.a(serial-line.o)
 .bss.ptr.2010  0x200008f4        0x4 contiki-srf06-cc26xx.a(serial-line.o)
 .bss.context   0x200008f8        0x4 contiki-srf06-cc26xx.a(sicslowpan.o)
 .bss.last_rssi
                0x200008fc        0x4 contiki-srf06-cc26xx.a(sicslowpan.o)
 .bss.hc06_ptr  0x20000900        0x4 contiki-srf06-cc26xx.a(sicslowpan.o)
 .bss.frag_info
                0x20000904      0x170 contiki-srf06-cc26xx.a(sicslowpan.o)
 .bss.packetbuf_ptr
                0x20000a74        0x4 contiki-srf06-cc26xx.a(sicslowpan.o)
 .bss.last_tx_status
                0x20000a78        0x4 contiki-srf06-cc26xx.a(sicslowpan.o)
 .bss.packetbuf_payload_len
                0x20000a7c        0x4 contiki-srf06-cc26xx.a(sicslowpan.o)
 .bss.callback  0x20000a80        0x4 contiki-srf06-cc26xx.a(sicslowpan.o)
 .bss.locmaddr  0x20000a84        0x4 contiki-srf06-cc26xx.a(uip-ds6.o)
 .bss.locprefix
                0x20000a88        0x4 contiki-srf06-cc26xx.a(uip-ds6.o)
 .bss.locaddr   0x20000a8c        0x4 contiki-srf06-cc26xx.a(uip-ds6.o)
 .bss._nbr_routes_mem
                0x20000a90       0xa0 contiki-srf06-cc26xx.a(uip-ds6-route.o)
 .bss.defaultroutermemb_memb_mem
                0x20000b30       0x40 contiki-srf06-cc26xx.a(uip-ds6-route.o)
 .bss.num_routes
                0x20000b70        0x4 contiki-srf06-cc26xx.a(uip-ds6-route.o)
 .bss.defaultrouterlist_list
                0x20000b74        0x4 contiki-srf06-cc26xx.a(uip-ds6-route.o)
 .bss.neighborroutememb_memb_mem
                0x20000b78       0xa0 contiki-srf06-cc26xx.a(uip-ds6-route.o)
 .bss.routememb_memb_mem
                0x20000c18      0x320 contiki-srf06-cc26xx.a(uip-ds6-route.o)
 .bss.notificationlist_list
                0x20000f38        0x4 contiki-srf06-cc26xx.a(uip-ds6-route.o)
 .bss.routelist_list
                0x20000f3c        0x4 contiki-srf06-cc26xx.a(uip-ds6-route.o)
 .bss.echo_reply_callback_list_list
                0x20000f40        0x4 contiki-srf06-cc26xx.a(uip-icmp6.o)
 .bss.input_handler_list_list
                0x20000f44        0x4 contiki-srf06-cc26xx.a(uip-icmp6.o)
 .bss.nbr       0x20000f48        0x4 contiki-srf06-cc26xx.a(uip-nd6.o)
 .bss.nd6_opt_llao
                0x20000f4c        0x4 contiki-srf06-cc26xx.a(uip-nd6.o)
 .bss.addr      0x20000f50        0x4 contiki-srf06-cc26xx.a(uip-nd6.o)
 .bss.s         0x20000f54       0xa4 contiki-srf06-cc26xx.a(tcpip.o)
 .bss.periodic  0x20000ff8       0x10 contiki-srf06-cc26xx.a(tcpip.o)
 .bss.outputfunc
                0x20001008        0x4 contiki-srf06-cc26xx.a(tcpip.o)
 .bss._rpl_parents_mem
                0x2000100c       0xa0 contiki-srf06-cc26xx.a(rpl-dag.o)
 .bss.periodic_timer
                0x200010ac       0x20 contiki-srf06-cc26xx.a(rpl-timers.o)
 .bss.powerQualGlobals
                0x200010cc        0x8 contiki-srf06-cc26xx.a(sys_ctrl.o)
 .bss._link_stats_mem
                0x200010d4       0xf0 contiki-srf06-cc26xx.a(link-stats.o)
 .bss.nbr_table_keys_list
                0x200011c4        0x4 contiki-srf06-cc26xx.a(nbr-table.o)
 .bss.num_tables
                0x200011c8        0x4 contiki-srf06-cc26xx.a(nbr-table.o)
 .bss.neighbor_addr_mem_memb_mem
                0x200011cc       0xf0 contiki-srf06-cc26xx.a(nbr-table.o)
 .bss.all_tables
                0x200012bc       0x20 contiki-srf06-cc26xx.a(nbr-table.o)
 .bss.packetbuf_aligned
                0x200012dc       0x80 contiki-srf06-cc26xx.a(packetbuf.o)
 .bss.bufmem_memb_mem
                0x2000135c       0x20 contiki-srf06-cc26xx.a(queuebuf.o)
 .bss.metadata_memb_memb_mem
                0x2000137c       0x60 contiki-srf06-cc26xx.a(csma.o)
 .bss.neighbor_list_list
                0x200013dc        0x4 contiki-srf06-cc26xx.a(csma.o)
 .bss.packet_memb_memb_mem
                0x200013e0       0x60 contiki-srf06-cc26xx.a(csma.o)
 .bss.neighbor_memb_memb_mem
                0x20001440       0x70 contiki-srf06-cc26xx.a(csma.o)
 .bss.cycle_start
                0x200014b0        0x4 contiki-srf06-cc26xx.a(contikimac.o)
 .bss.we_are_receiving_burst
                0x200014b4        0x4 contiki-srf06-cc26xx.a(contikimac.o)
 .bss.start.4024
                0x200014b8        0x4 contiki-srf06-cc26xx.a(contikimac.o)
 .bss.ct.4232   0x200014bc       0x20 contiki-srf06-cc26xx.a(contikimac.o)
 .bss.rt        0x200014dc        0xc contiki-srf06-cc26xx.a(contikimac.o)
 .bss.consumers_list_list
                0x200014e8        0x4 contiki-srf06-cc26xx.a(aux-ctrl.o)
 .bss.periodic_timer
                0x200014ec       0x20 contiki-srf06-cc26xx.a(rpl-nbr-policy.)
 .bss.timer_init
                0x2000150c        0x4 contiki-srf06-cc26xx.a(rpl-nbr-policy.)
 .bss.num_children
                0x20001510        0x4 contiki-srf06-cc26xx.a(rpl-nbr-policy.)
 .bss.worst_rank_nbr
                0x20001514        0x4 contiki-srf06-cc26xx.a(rpl-nbr-policy.)
 .bss.num_free  0x20001518        0x4 contiki-srf06-cc26xx.a(rpl-nbr-policy.)
 .bss.num_parents
                0x2000151c        0x4 contiki-srf06-cc26xx.a(rpl-nbr-policy.)
 .bss.received_seqnos
                0x20001520      0x100 contiki-srf06-cc26xx.a(mac-sequence.o)
 .bss.node_id   0x20001620        0x2 contiki-srf06-cc26xx.a(contiki-main.o)
                0x20001620                node_id
 .bss.my_tag    0x20001622        0x2 contiki-srf06-cc26xx.a(sicslowpan.o)
 .bss.lastport  0x20001624        0x2 contiki-srf06-cc26xx.a(uip6.o)
 .bss.loc_fipaddr
                0x20001626       0x10 contiki-srf06-cc26xx.a(uip-ds6.o)
 .bss._ds6_neighbors_mem
                0x20001636      0x168 contiki-srf06-cc26xx.a(uip-ds6-nbr.o)
 .bss.tmp_ipaddr
                0x2000179e       0x10 contiki-srf06-cc26xx.a(uip-icmp6.o)
 .bss.next_dis  0x200017ae        0x2 contiki-srf06-cc26xx.a(rpl-timers.o)
 .bss.buflen    0x200017b0        0x2 contiki-srf06-cc26xx.a(packetbuf.o)
 .bss.bufptr    0x200017b2        0x2 contiki-srf06-cc26xx.a(packetbuf.o)
 .bss.buframmem_memb_mem
                0x200017b4      0x580 contiki-srf06-cc26xx.a(queuebuf.o)
 .bss.seqno.3325
                0x20001d34        0x2 contiki-srf06-cc26xx.a(csma.o)
 .bss.pt        0x20001d36        0x2 contiki-srf06-cc26xx.a(contikimac.o)
 .bss.worst_rank
                0x20001d38        0x2 contiki-srf06-cc26xx.a(rpl-nbr-policy.)
 .bss.emptyRoom
                0x20001d3a        0x1 broadcast-example.co
                0x20001d3a                emptyRoom
 .bss.slave_addr
                0x20001d3b        0x1 broadcast-example.co
 .bss.lastEmpty
                0x20001d3c        0x1 broadcast-example.co
                0x20001d3c                lastEmpty
 .bss.num_sensors
                0x20001d3d        0x1 contiki-srf06-cc26xx.a(sensors.o)
 .bss.leds      0x20001d3e        0x1 contiki-srf06-cc26xx.a(leds.o)
 .bss.c         0x20001d3f        0x1 contiki-srf06-cc26xx.a(leds-arch.o)
 .bss.rat_offset_known
                0x20001d40        0x1 contiki-srf06-cc26xx.a(rf-core.o)
 .bss.ble_mode_on
                0x20001d41        0x1 contiki-srf06-cc26xx.a(rf-ble.o)
 .bss.rands_mask
                0x20001d42        0x4 contiki-srf06-cc26xx.a(soc-trng.o)
 .bss.initialized
                0x20001d46        0x1 contiki-srf06-cc26xx.a(ctimer.o)
 .bss.fevent    0x20001d47        0x1 contiki-srf06-cc26xx.a(process.o)
 .bss.nevents   0x20001d48        0x1 contiki-srf06-cc26xx.a(process.o)
 .bss.lastevent
                0x20001d49        0x1 contiki-srf06-cc26xx.a(process.o)
 .bss.poll_requested
                0x20001d4a        0x1 contiki-srf06-cc26xx.a(process.o)
 .bss.rxbuf_data
                0x20001d4b       0x80 contiki-srf06-cc26xx.a(serial-line.o)
 .bss.buf.2009  0x20001dcb       0x80 contiki-srf06-cc26xx.a(serial-line.o)
 .bss.addr_contexts
                0x20001e4b        0xa contiki-srf06-cc26xx.a(sicslowpan.o)
 .bss.frag_buf  0x20001e55      0x54c contiki-srf06-cc26xx.a(sicslowpan.o)
 .bss.uncomp_hdr_len
                0x200023a1        0x1 contiki-srf06-cc26xx.a(sicslowpan.o)
 .bss.packetbuf_hdr_len
                0x200023a2        0x1 contiki-srf06-cc26xx.a(sicslowpan.o)
 .bss.uip_ext_len
                0x200023a3        0x1 contiki-srf06-cc26xx.a(uip6.o)
                0x200023a3                uip_ext_len
 .bss.uip_ext_bitmap
                0x200023a4        0x1 contiki-srf06-cc26xx.a(uip6.o)
                0x200023a4                uip_ext_bitmap
 .bss.iss       0x200023a5        0x4 contiki-srf06-cc26xx.a(uip6.o)
 .bss.uip_ext_opt_offset
                0x200023a9        0x1 contiki-srf06-cc26xx.a(uip6.o)
                0x200023a9                uip_ext_opt_offset
 .bss.defaultroutermemb_memb_count
                0x200023aa        0x2 contiki-srf06-cc26xx.a(uip-ds6-route.o)
 .bss.neighborroutememb_memb_count
                0x200023ac       0x14 contiki-srf06-cc26xx.a(uip-ds6-route.o)
 .bss.routememb_memb_count
                0x200023c0       0x14 contiki-srf06-cc26xx.a(uip-ds6-route.o)
 .bss.nd6_opt_offset
                0x200023d4        0x1 contiki-srf06-cc26xx.a(uip-nd6.o)
 .bss.started   0x200023d5        0x1 contiki-srf06-cc26xx.a(simple-udp.o)
 .bss.databuffer
                0x200023d6      0x3e8 contiki-srf06-cc26xx.a(simple-udp.o)
 .bss.mode      0x200027be        0x1 contiki-srf06-cc26xx.a(rpl.o)
 .bss.dio_send_ok
                0x200027bf        0x1 contiki-srf06-cc26xx.a(rpl-timers.o)
 .bss.neighbor_addr_mem_memb_count
                0x200027c0       0x14 contiki-srf06-cc26xx.a(nbr-table.o)
 .bss.locked_map
                0x200027d4       0x14 contiki-srf06-cc26xx.a(nbr-table.o)
 .bss.used_map  0x200027e8       0x14 contiki-srf06-cc26xx.a(nbr-table.o)
 .bss.hdrlen    0x200027fc        0x1 contiki-srf06-cc26xx.a(packetbuf.o)
 .bss.buframmem_memb_count
                0x200027fd        0x8 contiki-srf06-cc26xx.a(queuebuf.o)
 .bss.bufmem_memb_count
                0x20002805        0x8 contiki-srf06-cc26xx.a(queuebuf.o)
 .bss.metadata_memb_memb_count
                0x2000280d        0x8 contiki-srf06-cc26xx.a(csma.o)
 .bss.packet_memb_memb_count
                0x20002815        0x8 contiki-srf06-cc26xx.a(csma.o)
 .bss.initialized.3324
                0x2000281d        0x1 contiki-srf06-cc26xx.a(csma.o)
 .bss.neighbor_memb_memb_count
                0x2000281e        0x2 contiki-srf06-cc26xx.a(csma.o)
 .bss.mac_dsn   0x20002820        0x1 contiki-srf06-cc26xx.a(framer-802154.o)
 .bss.initialized
                0x20002821        0x1 contiki-srf06-cc26xx.a(framer-802154.o)
 .bss.contikimac_keep_radio_on
                0x20002822        0x1 contiki-srf06-cc26xx.a(contikimac.o)
 .bss.radio_is_on
                0x20002823        0x1 contiki-srf06-cc26xx.a(contikimac.o)
 .bss.we_are_sending
                0x20002824        0x1 contiki-srf06-cc26xx.a(contikimac.o)
 .bss.packet_seen.4018
                0x20002825        0x1 contiki-srf06-cc26xx.a(contikimac.o)
 .bss.contikimac_is_on
                0x20002826        0x1 contiki-srf06-cc26xx.a(contikimac.o)
 .bss.count.4019
                0x20002827        0x1 contiki-srf06-cc26xx.a(contikimac.o)
 .bss.periods.4026
                0x20002828        0x1 contiki-srf06-cc26xx.a(contikimac.o)
 .bss.silence_periods.4025
                0x20002829        0x1 contiki-srf06-cc26xx.a(contikimac.o)
 *(SORT(COMMON))
 *fill*         0x2000282a        0x2 00
 COMMON         0x2000282c      0x1c9 broadcast-example.co
                0x2000282c                lastVals
                0x20002870                controlVals
                0x200028b4                buffer
                0x2000297c                addr
                0x2000298c                rxBuffer
                0x200029b0                temps
                0x200029f4                txBuffer
 *fill*         0x200029f5        0x3 00
 COMMON         0x200029f8      0x764 contiki-srf06-cc26xx.a(uip6.o)
                0x200029f8                uip_len
                0x200029fc                uip_sappdata
                0x20002a00                uip_acc32
                0x20002a04                uip_lladdr
                0x20002a0c                uip_aligned_buf
                0x20002df4                uip_flags
                0x20002df8                uip_next_hdr
                0x20002dfc                uip_udp_conn
                0x20002e00                uip_appdata
                0x20002e04                uip_conn
                0x20002e08                uip_conns
                0x20002fe8                uip_icmp6_conns
                0x20002ff0                uip_listenports
                0x20003018                uip_slen
                0x2000301c                uip_udp_conns
 COMMON         0x2000315c      0x174 contiki-srf06-cc26xx.a(uip-ds6.o)
                0x2000315c                uip_ds6_timer_ra
                0x20003164                uip_ds6_if
                0x2000325c                uip_ds6_netif_addr_list_offset
                0x2000325d                uip_ds6_addr_size
                0x20003260                uip_ds6_prefix_list
                0x200032c0                uip_ds6_timer_periodic
 COMMON         0x200032d0      0x158 contiki-srf06-cc26xx.a(rpl-dag.o)
                0x200032d0                default_instance
                0x200032d4                instance_table
 COMMON         0x20003428       0x20 contiki-srf06-cc26xx.a(link-stats.o)
                0x20003428                periodic_timer
 COMMON         0x20003448       0x2e contiki-srf06-cc26xx.a(packetbuf.o)
                0x20003448                packetbuf_addrs
                0x20003458                packetbuf_attrs
 COMMON         0x20003476        0x1 contiki-srf06-cc26xx.a(sensors.o)
                0x20003476                sensors_event
 COMMON         0x20003477        0x3 contiki-srf06-cc26xx.a(launchpad-senso)
                0x20003477                sensors_flags
 COMMON         0x2000347a        0x1 contiki-srf06-cc26xx.a(serial-line.o)
                0x2000347a                serial_line_event_message
 COMMON         0x2000347b        0x2 contiki-srf06-cc26xx.a(tcpip.o)
                0x2000347b                tcpip_event
                0x2000347c                tcpip_icmp6_event
 COMMON         0x2000347d        0x8 contiki-srf06-cc26xx.a(linkaddr.o)
                0x2000347d                linkaddr_node_addr
                0x20003485                _ebss = .

.ccfg           0x0001ffa8       0x58
 *(SORT(.ccfg))
 .ccfg          0x0001ffa8       0x58 obj_srf06-cc26xx/ccfg.o
                0x0001ffa8                __ccfg

._user_heap_stack
                0x20003485      0x103
                0x20003488                . = ALIGN (0x4)
 *fill*         0x20003485        0x3 00
                0x20003488                . = (. + _Min_Heap_Size)
                0x20003588                . = (. + _Min_Stack_Size)
 *fill*         0x20003488      0x100 00
                0x20003588                . = ALIGN (0x4)

.gpram
OUTPUT(broadcast-example.elf elf32-littlearm)

.comment        0x00000000      0xe9a
 .comment       0x00000000       0x2a obj_srf06-cc26xx/fault-handlers.o
 .comment       0x0000002a       0x2a obj_srf06-cc26xx/ccfg.o
 .comment       0x00000054       0x2a obj_srf06-cc26xx/startup_gcc.o
 .comment       0x0000007e       0x2a broadcast-example.co
 .comment       0x000000a8       0x2a contiki-srf06-cc26xx.a(contiki-main.o)
 .comment       0x000000d2       0x2a contiki-srf06-cc26xx.a(sensors.o)
 .comment       0x000000fc       0x2a contiki-srf06-cc26xx.a(leds.o)
 .comment       0x00000126       0x2a contiki-srf06-cc26xx.a(board.o)
 .comment       0x00000150       0x2a contiki-srf06-cc26xx.a(launchpad-senso)
 .comment       0x0000017a       0x2a contiki-srf06-cc26xx.a(leds-arch.o)
 .comment       0x000001a4       0x2a contiki-srf06-cc26xx.a(button-sensor.o)
 .comment       0x000001ce       0x2a contiki-srf06-cc26xx.a(ext-flash.o)
 .comment       0x000001f8       0x2a contiki-srf06-cc26xx.a(board-spi.o)
 .comment       0x00000222       0x2a contiki-srf06-cc26xx.a(prop-mode.o)
 .comment       0x0000024c       0x2a contiki-srf06-cc26xx.a(prop-mode-tx-po)
 .comment       0x00000276       0x2a contiki-srf06-cc26xx.a(clock.o)
 .comment       0x000002a0       0x2a contiki-srf06-cc26xx.a(rtimer-arch.o)
 .comment       0x000002ca       0x2a contiki-srf06-cc26xx.a(soc-rtc.o)
 .comment       0x000002f4       0x2a contiki-srf06-cc26xx.a(contiki-watchdo)
 .comment       0x0000031e       0x2a contiki-srf06-cc26xx.a(putchar.o)
 .comment       0x00000348       0x2a contiki-srf06-cc26xx.a(ieee-addr.o)
 .comment       0x00000372       0x2a contiki-srf06-cc26xx.a(cc26xx-uart.o)
 .comment       0x0000039c       0x2a contiki-srf06-cc26xx.a(lpm.o)
 .comment       0x000003c6       0x2a contiki-srf06-cc26xx.a(gpio-interrupt.)
 .comment       0x000003f0       0x2a contiki-srf06-cc26xx.a(oscillators.o)
 .comment       0x0000041a       0x2a contiki-srf06-cc26xx.a(rf-core.o)
 .comment       0x00000444       0x2a contiki-srf06-cc26xx.a(rf-ble.o)
 .comment       0x0000046e       0x2a contiki-srf06-cc26xx.a(random.o)
 .comment       0x00000498       0x2a contiki-srf06-cc26xx.a(soc-trng.o)
 .comment       0x000004c2       0x2a contiki-srf06-cc26xx.a(dbg-printf.o)
 .comment       0x000004ec       0x2a contiki-srf06-cc26xx.a(strformat.o)
 .comment       0x00000516       0x2a contiki-srf06-cc26xx.a(autostart.o)
 .comment       0x00000540       0x2a contiki-srf06-cc26xx.a(ctimer.o)
 .comment       0x0000056a       0x2a contiki-srf06-cc26xx.a(energest.o)
 .comment       0x00000594       0x2a contiki-srf06-cc26xx.a(etimer.o)
 .comment       0x000005be       0x2a contiki-srf06-cc26xx.a(process.o)
 .comment       0x000005e8       0x2a contiki-srf06-cc26xx.a(rtimer.o)
 .comment       0x00000612       0x2a contiki-srf06-cc26xx.a(timer.o)
 .comment       0x0000063c       0x2a contiki-srf06-cc26xx.a(serial-line.o)
 .comment       0x00000666       0x2a contiki-srf06-cc26xx.a(list.o)
 .comment       0x00000690       0x2a contiki-srf06-cc26xx.a(ringbuf.o)
 .comment       0x000006ba       0x2a contiki-srf06-cc26xx.a(sicslowpan.o)
 .comment       0x000006e4       0x2a contiki-srf06-cc26xx.a(uip6.o)
 .comment       0x0000070e       0x2a contiki-srf06-cc26xx.a(uip-ds6.o)
 .comment       0x00000738       0x2a contiki-srf06-cc26xx.a(uip-ds6-nbr.o)
 .comment       0x00000762       0x2a contiki-srf06-cc26xx.a(uip-ds6-route.o)
 .comment       0x0000078c       0x2a contiki-srf06-cc26xx.a(uip-icmp6.o)
 .comment       0x000007b6       0x2a contiki-srf06-cc26xx.a(uip-nd6.o)
 .comment       0x000007e0       0x2a contiki-srf06-cc26xx.a(simple-udp.o)
 .comment       0x0000080a       0x2a contiki-srf06-cc26xx.a(tcpip.o)
 .comment       0x00000834       0x2a contiki-srf06-cc26xx.a(uip-debug.o)
 .comment       0x0000085e       0x2a contiki-srf06-cc26xx.a(uip-udp-packet.)
 .comment       0x00000888       0x2a contiki-srf06-cc26xx.a(rpl.o)
 .comment       0x000008b2       0x2a contiki-srf06-cc26xx.a(rpl-dag.o)
 .comment       0x000008dc       0x2a contiki-srf06-cc26xx.a(rpl-ext-header.)
 .comment       0x00000906       0x2a contiki-srf06-cc26xx.a(rpl-icmp6.o)
 .comment       0x00000930       0x2a contiki-srf06-cc26xx.a(rpl-mrhof.o)
 .comment       0x0000095a       0x2a contiki-srf06-cc26xx.a(rpl-timers.o)
 .comment       0x00000984       0x2a contiki-srf06-cc26xx.a(adi.o)
 .comment       0x000009ae       0x2a contiki-srf06-cc26xx.a(aon_rtc.o)
 .comment       0x000009d8       0x2a contiki-srf06-cc26xx.a(chipinfo.o)
 .comment       0x00000a02       0x2a contiki-srf06-cc26xx.a(cpu.o)
 .comment       0x00000a2c       0x2a contiki-srf06-cc26xx.a(osc.o)
 .comment       0x00000a56       0x2a contiki-srf06-cc26xx.a(pwr_ctrl.o)
 .comment       0x00000a80       0x2a contiki-srf06-cc26xx.a(rfc.o)
 .comment       0x00000aaa       0x2a contiki-srf06-cc26xx.a(setup.o)
 .comment       0x00000ad4       0x2a contiki-srf06-cc26xx.a(setup_rom.o)
 .comment       0x00000afe       0x2a contiki-srf06-cc26xx.a(sys_ctrl.o)
 .comment       0x00000b28       0x2a contiki-srf06-cc26xx.a(trng.o)
 .comment       0x00000b52       0x2a contiki-srf06-cc26xx.a(linkaddr.o)
 .comment       0x00000b7c       0x2a contiki-srf06-cc26xx.a(link-stats.o)
 .comment       0x00000ba6       0x2a contiki-srf06-cc26xx.a(nbr-table.o)
 .comment       0x00000bd0       0x2a contiki-srf06-cc26xx.a(netstack.o)
 .comment       0x00000bfa       0x2a contiki-srf06-cc26xx.a(packetbuf.o)
 .comment       0x00000c24       0x2a contiki-srf06-cc26xx.a(queuebuf.o)
 .comment       0x00000c4e       0x2a contiki-srf06-cc26xx.a(csma.o)
 .comment       0x00000c78       0x2a contiki-srf06-cc26xx.a(framer-802154.o)
 .comment       0x00000ca2       0x2a contiki-srf06-cc26xx.a(mac.o)
 .comment       0x00000ccc       0x2a contiki-srf06-cc26xx.a(contikimac.o)
 .comment       0x00000cf6       0x2a contiki-srf06-cc26xx.a(nullsec.o)
 .comment       0x00000d20       0x2a contiki-srf06-cc26xx.a(smartrf-setting)
 .comment       0x00000d4a       0x2a contiki-srf06-cc26xx.a(aux-ctrl.o)
 .comment       0x00000d74       0x2a contiki-srf06-cc26xx.a(stimer.o)
 .comment       0x00000d9e       0x2a contiki-srf06-cc26xx.a(memb.o)
 .comment       0x00000dc8       0x2a contiki-srf06-cc26xx.a(rpl-nbr-policy.)
 .comment       0x00000df2       0x2a contiki-srf06-cc26xx.a(aon_batmon.o)
 .comment       0x00000e1c       0x2a contiki-srf06-cc26xx.a(ddi.o)
 .comment       0x00000e46       0x2a contiki-srf06-cc26xx.a(frame802154.o)
 .comment       0x00000e70       0x2a contiki-srf06-cc26xx.a(mac-sequence.o)

.ARM.attributes
                0x00000000       0x31
 .ARM.attributes
                0x00000000       0x31 obj_srf06-cc26xx/fault-handlers.o
 .ARM.attributes
                0x00000031       0x2f obj_srf06-cc26xx/ccfg.o
 .ARM.attributes
                0x00000060       0x31 obj_srf06-cc26xx/startup_gcc.o
 .ARM.attributes
                0x00000091       0x31 broadcast-example.co
 .ARM.attributes
                0x000000c2       0x31 contiki-srf06-cc26xx.a(contiki-main.o)
 .ARM.attributes
                0x000000f3       0x31 contiki-srf06-cc26xx.a(sensors.o)
 .ARM.attributes
                0x00000124       0x31 contiki-srf06-cc26xx.a(leds.o)
 .ARM.attributes
                0x00000155       0x31 contiki-srf06-cc26xx.a(board.o)
 .ARM.attributes
                0x00000186       0x2f contiki-srf06-cc26xx.a(launchpad-senso)
 .ARM.attributes
                0x000001b5       0x31 contiki-srf06-cc26xx.a(leds-arch.o)
 .ARM.attributes
                0x000001e6       0x31 contiki-srf06-cc26xx.a(button-sensor.o)
 .ARM.attributes
                0x00000217       0x31 contiki-srf06-cc26xx.a(ext-flash.o)
 .ARM.attributes
                0x00000248       0x31 contiki-srf06-cc26xx.a(board-spi.o)
 .ARM.attributes
                0x00000279       0x31 contiki-srf06-cc26xx.a(prop-mode.o)
 .ARM.attributes
                0x000002aa       0x2f contiki-srf06-cc26xx.a(prop-mode-tx-po)
 .ARM.attributes
                0x000002d9       0x31 contiki-srf06-cc26xx.a(clock.o)
 .ARM.attributes
                0x0000030a       0x31 contiki-srf06-cc26xx.a(rtimer-arch.o)
 .ARM.attributes
                0x0000033b       0x31 contiki-srf06-cc26xx.a(soc-rtc.o)
 .ARM.attributes
                0x0000036c       0x31 contiki-srf06-cc26xx.a(contiki-watchdo)
 .ARM.attributes
                0x0000039d       0x31 contiki-srf06-cc26xx.a(putchar.o)
 .ARM.attributes
                0x000003ce       0x31 contiki-srf06-cc26xx.a(ieee-addr.o)
 .ARM.attributes
                0x000003ff       0x31 contiki-srf06-cc26xx.a(cc26xx-uart.o)
 .ARM.attributes
                0x00000430       0x31 contiki-srf06-cc26xx.a(lpm.o)
 .ARM.attributes
                0x00000461       0x31 contiki-srf06-cc26xx.a(gpio-interrupt.)
 .ARM.attributes
                0x00000492       0x31 contiki-srf06-cc26xx.a(oscillators.o)
 .ARM.attributes
                0x000004c3       0x31 contiki-srf06-cc26xx.a(rf-core.o)
 .ARM.attributes
                0x000004f4       0x31 contiki-srf06-cc26xx.a(rf-ble.o)
 .ARM.attributes
                0x00000525       0x31 contiki-srf06-cc26xx.a(random.o)
 .ARM.attributes
                0x00000556       0x31 contiki-srf06-cc26xx.a(soc-trng.o)
 .ARM.attributes
                0x00000587       0x31 contiki-srf06-cc26xx.a(dbg-printf.o)
 .ARM.attributes
                0x000005b8       0x31 contiki-srf06-cc26xx.a(strformat.o)
 .ARM.attributes
                0x000005e9       0x31 contiki-srf06-cc26xx.a(autostart.o)
 .ARM.attributes
                0x0000061a       0x31 contiki-srf06-cc26xx.a(ctimer.o)
 .ARM.attributes
                0x0000064b       0x31 contiki-srf06-cc26xx.a(energest.o)
 .ARM.attributes
                0x0000067c       0x31 contiki-srf06-cc26xx.a(etimer.o)
 .ARM.attributes
                0x000006ad       0x31 contiki-srf06-cc26xx.a(process.o)
 .ARM.attributes
                0x000006de       0x31 contiki-srf06-cc26xx.a(rtimer.o)
 .ARM.attributes
                0x0000070f       0x31 contiki-srf06-cc26xx.a(timer.o)
 .ARM.attributes
                0x00000740       0x31 contiki-srf06-cc26xx.a(serial-line.o)
 .ARM.attributes
                0x00000771       0x31 contiki-srf06-cc26xx.a(list.o)
 .ARM.attributes
                0x000007a2       0x31 contiki-srf06-cc26xx.a(ringbuf.o)
 .ARM.attributes
                0x000007d3       0x31 contiki-srf06-cc26xx.a(sicslowpan.o)
 .ARM.attributes
                0x00000804       0x31 contiki-srf06-cc26xx.a(uip6.o)
 .ARM.attributes
                0x00000835       0x31 contiki-srf06-cc26xx.a(uip-ds6.o)
 .ARM.attributes
                0x00000866       0x31 contiki-srf06-cc26xx.a(uip-ds6-nbr.o)
 .ARM.attributes
                0x00000897       0x31 contiki-srf06-cc26xx.a(uip-ds6-route.o)
 .ARM.attributes
                0x000008c8       0x31 contiki-srf06-cc26xx.a(uip-icmp6.o)
 .ARM.attributes
                0x000008f9       0x31 contiki-srf06-cc26xx.a(uip-nd6.o)
 .ARM.attributes
                0x0000092a       0x31 contiki-srf06-cc26xx.a(simple-udp.o)
 .ARM.attributes
                0x0000095b       0x31 contiki-srf06-cc26xx.a(tcpip.o)
 .ARM.attributes
                0x0000098c       0x31 contiki-srf06-cc26xx.a(uip-debug.o)
 .ARM.attributes
                0x000009bd       0x31 contiki-srf06-cc26xx.a(uip-udp-packet.)
 .ARM.attributes
                0x000009ee       0x31 contiki-srf06-cc26xx.a(rpl.o)
 .ARM.attributes
                0x00000a1f       0x31 contiki-srf06-cc26xx.a(rpl-dag.o)
 .ARM.attributes
                0x00000a50       0x31 contiki-srf06-cc26xx.a(rpl-ext-header.)
 .ARM.attributes
                0x00000a81       0x31 contiki-srf06-cc26xx.a(rpl-icmp6.o)
 .ARM.attributes
                0x00000ab2       0x31 contiki-srf06-cc26xx.a(rpl-mrhof.o)
 .ARM.attributes
                0x00000ae3       0x31 contiki-srf06-cc26xx.a(rpl-timers.o)
 .ARM.attributes
                0x00000b14       0x31 contiki-srf06-cc26xx.a(adi.o)
 .ARM.attributes
                0x00000b45       0x31 contiki-srf06-cc26xx.a(aon_rtc.o)
 .ARM.attributes
                0x00000b76       0x31 contiki-srf06-cc26xx.a(chipinfo.o)
 .ARM.attributes
                0x00000ba7       0x31 contiki-srf06-cc26xx.a(cpu.o)
 .ARM.attributes
                0x00000bd8       0x31 contiki-srf06-cc26xx.a(osc.o)
 .ARM.attributes
                0x00000c09       0x31 contiki-srf06-cc26xx.a(pwr_ctrl.o)
 .ARM.attributes
                0x00000c3a       0x31 contiki-srf06-cc26xx.a(rfc.o)
 .ARM.attributes
                0x00000c6b       0x31 contiki-srf06-cc26xx.a(setup.o)
 .ARM.attributes
                0x00000c9c       0x31 contiki-srf06-cc26xx.a(setup_rom.o)
 .ARM.attributes
                0x00000ccd       0x31 contiki-srf06-cc26xx.a(sys_ctrl.o)
 .ARM.attributes
                0x00000cfe       0x31 contiki-srf06-cc26xx.a(trng.o)
 .ARM.attributes
                0x00000d2f       0x31 contiki-srf06-cc26xx.a(linkaddr.o)
 .ARM.attributes
                0x00000d60       0x31 contiki-srf06-cc26xx.a(link-stats.o)
 .ARM.attributes
                0x00000d91       0x31 contiki-srf06-cc26xx.a(nbr-table.o)
 .ARM.attributes
                0x00000dc2       0x31 contiki-srf06-cc26xx.a(netstack.o)
 .ARM.attributes
                0x00000df3       0x31 contiki-srf06-cc26xx.a(packetbuf.o)
 .ARM.attributes
                0x00000e24       0x31 contiki-srf06-cc26xx.a(queuebuf.o)
 .ARM.attributes
                0x00000e55       0x31 contiki-srf06-cc26xx.a(csma.o)
 .ARM.attributes
                0x00000e86       0x31 contiki-srf06-cc26xx.a(framer-802154.o)
 .ARM.attributes
                0x00000eb7       0x31 contiki-srf06-cc26xx.a(mac.o)
 .ARM.attributes
                0x00000ee8       0x31 contiki-srf06-cc26xx.a(contikimac.o)
 .ARM.attributes
                0x00000f19       0x31 contiki-srf06-cc26xx.a(nullsec.o)
 .ARM.attributes
                0x00000f4a       0x2f contiki-srf06-cc26xx.a(smartrf-setting)
 .ARM.attributes
                0x00000f79       0x31 contiki-srf06-cc26xx.a(aux-ctrl.o)
 .ARM.attributes
                0x00000faa       0x31 contiki-srf06-cc26xx.a(stimer.o)
 .ARM.attributes
                0x00000fdb       0x31 contiki-srf06-cc26xx.a(memb.o)
 .ARM.attributes
                0x0000100c       0x31 contiki-srf06-cc26xx.a(rpl-nbr-policy.)
 .ARM.attributes
                0x0000103d       0x31 contiki-srf06-cc26xx.a(aon_batmon.o)
 .ARM.attributes
                0x0000106e       0x31 contiki-srf06-cc26xx.a(ddi.o)
 .ARM.attributes
                0x0000109f       0x31 contiki-srf06-cc26xx.a(frame802154.o)
 .ARM.attributes
                0x000010d0       0x31 contiki-srf06-cc26xx.a(mac-sequence.o)
 .ARM.attributes
                0x00001101       0x17 /home/user/CodeSourcery/Sourcery_G++_Lite/bin/../lib/gcc/arm-none-eabi/4.3.2/thumb2/libgcc.a(_aeabi_uldivmod.o)
 .ARM.attributes
                0x00001118       0x27 /home/user/CodeSourcery/Sourcery_G++_Lite/bin/../lib/gcc/arm-none-eabi/4.3.2/thumb2/libgcc.a(bpabi.o)
 .ARM.attributes
                0x0000113f       0x17 /home/user/CodeSourcery/Sourcery_G++_Lite/bin/../lib/gcc/arm-none-eabi/4.3.2/thumb2/libgcc.a(_dvmd_tls.o)
 .ARM.attributes
                0x00001156       0x27 /home/user/CodeSourcery/Sourcery_G++_Lite/bin/../lib/gcc/arm-none-eabi/4.3.2/thumb2/libgcc.a(_divdi3.o)
 .ARM.attributes
                0x0000117d       0x27 /home/user/CodeSourcery/Sourcery_G++_Lite/bin/../lib/gcc/arm-none-eabi/4.3.2/thumb2/libgcc.a(_udivdi3.o)
 .ARM.attributes
                0x000011a4       0x17 /home/user/CodeSourcery/Sourcery_G++_Lite/bin/../lib/gcc/arm-none-eabi/4.3.2/thumb2/libgcc.a(_udivsi3.o)
 .ARM.attributes
                0x000011bb       0x25 /home/user/CodeSourcery/Sourcery_G++_Lite/bin/../lib/gcc/arm-none-eabi/4.3.2/thumb2/libgcc.a(_clz.o)
 .ARM.attributes
                0x000011e0       0x27 /home/user/CodeSourcery/Sourcery_G++_Lite/bin/../lib/gcc/arm-none-eabi/4.3.2/../../../../arm-none-eabi/lib/thumb2/libc.a(lib_a-memcmp.o)
 .ARM.attributes
                0x00001207       0x27 /home/user/CodeSourcery/Sourcery_G++_Lite/bin/../lib/gcc/arm-none-eabi/4.3.2/../../../../arm-none-eabi/lib/thumb2/libc.a(lib_a-memcpy.o)
 .ARM.attributes
                0x0000122e       0x27 /home/user/CodeSourcery/Sourcery_G++_Lite/bin/../lib/gcc/arm-none-eabi/4.3.2/../../../../arm-none-eabi/lib/thumb2/libc.a(lib_a-memmove.o)
 .ARM.attributes
                0x00001255       0x27 /home/user/CodeSourcery/Sourcery_G++_Lite/bin/../lib/gcc/arm-none-eabi/4.3.2/../../../../arm-none-eabi/lib/thumb2/libc.a(lib_a-memset.o)
 .ARM.attributes
                0x0000127c       0x27 /home/user/CodeSourcery/Sourcery_G++_Lite/bin/../lib/gcc/arm-none-eabi/4.3.2/../../../../arm-none-eabi/lib/thumb2/libc.a(lib_a-strlen.o)
 .ARM.attributes
                0x000012a3       0x27 /home/user/CodeSourcery/Sourcery_G++_Lite/bin/../lib/gcc/arm-none-eabi/4.3.2/../../../../arm-none-eabi/lib/thumb2/libc.a(lib_a-strncmp.o)

.debug_frame    0x00000000      0x1d8
 .debug_frame   0x00000000       0x50 /home/user/CodeSourcery/Sourcery_G++_Lite/bin/../lib/gcc/arm-none-eabi/4.3.2/thumb2/libgcc.a(bpabi.o)
 .debug_frame   0x00000050       0x38 /home/user/CodeSourcery/Sourcery_G++_Lite/bin/../lib/gcc/arm-none-eabi/4.3.2/thumb2/libgcc.a(_divdi3.o)
 .debug_frame   0x00000088       0x38 /home/user/CodeSourcery/Sourcery_G++_Lite/bin/../lib/gcc/arm-none-eabi/4.3.2/thumb2/libgcc.a(_udivdi3.o)
 .debug_frame   0x000000c0       0x20 /home/user/CodeSourcery/Sourcery_G++_Lite/bin/../lib/gcc/arm-none-eabi/4.3.2/thumb2/libgcc.a(_udivsi3.o)
 .debug_frame   0x000000e0       0x2c /home/user/CodeSourcery/Sourcery_G++_Lite/bin/../lib/gcc/arm-none-eabi/4.3.2/../../../../arm-none-eabi/lib/thumb2/libc.a(lib_a-memcmp.o)
 .debug_frame   0x0000010c       0x2c /home/user/CodeSourcery/Sourcery_G++_Lite/bin/../lib/gcc/arm-none-eabi/4.3.2/../../../../arm-none-eabi/lib/thumb2/libc.a(lib_a-memcpy.o)
 .debug_frame   0x00000138       0x2c /home/user/CodeSourcery/Sourcery_G++_Lite/bin/../lib/gcc/arm-none-eabi/4.3.2/../../../../arm-none-eabi/lib/thumb2/libc.a(lib_a-memmove.o)
 .debug_frame   0x00000164       0x28 /home/user/CodeSourcery/Sourcery_G++_Lite/bin/../lib/gcc/arm-none-eabi/4.3.2/../../../../arm-none-eabi/lib/thumb2/libc.a(lib_a-memset.o)
 .debug_frame   0x0000018c       0x20 /home/user/CodeSourcery/Sourcery_G++_Lite/bin/../lib/gcc/arm-none-eabi/4.3.2/../../../../arm-none-eabi/lib/thumb2/libc.a(lib_a-strlen.o)
 .debug_frame   0x000001ac       0x2c /home/user/CodeSourcery/Sourcery_G++_Lite/bin/../lib/gcc/arm-none-eabi/4.3.2/../../../../arm-none-eabi/lib/thumb2/libc.a(lib_a-strncmp.o)

Cross Reference Table

Symbol                                            File
AONIntHandler                                     obj_srf06-cc26xx/startup_gcc.o
AONProgIntHandler                                 obj_srf06-cc26xx/startup_gcc.o
AONRTCIntHandler                                  contiki-srf06-cc26xx.a(soc-rtc.o)
                                                  obj_srf06-cc26xx/startup_gcc.o
AUXADCIntHandler                                  obj_srf06-cc26xx/startup_gcc.o
AUXCombEventIntHandler                            obj_srf06-cc26xx/startup_gcc.o
AUXCompAIntHandler                                obj_srf06-cc26xx/startup_gcc.o
AUXSWEvent0IntHandler                             obj_srf06-cc26xx/startup_gcc.o
AUXSWEvent1IntHandler                             obj_srf06-cc26xx/startup_gcc.o
BusFaultIntHandler                                obj_srf06-cc26xx/startup_gcc.o
CryptoIntHandler                                  obj_srf06-cc26xx/startup_gcc.o
DebugMonIntHandler                                obj_srf06-cc26xx/startup_gcc.o
DynProgIntHandler                                 obj_srf06-cc26xx/startup_gcc.o
FaultISR                                          obj_srf06-cc26xx/fault-handlers.o
FlashIntHandler                                   obj_srf06-cc26xx/startup_gcc.o
GPIOIntHandler                                    contiki-srf06-cc26xx.a(gpio-interrupt.)
                                                  obj_srf06-cc26xx/startup_gcc.o
I2CIntHandler                                     obj_srf06-cc26xx/startup_gcc.o
I2SIntHandler                                     obj_srf06-cc26xx/startup_gcc.o
MPUFaultIntHandler                                obj_srf06-cc26xx/startup_gcc.o
NOROM_AONBatMonTemperatureGetDegC                 contiki-srf06-cc26xx.a(aon_batmon.o)
                                                  contiki-srf06-cc26xx.a(sys_ctrl.o)
                                                  contiki-srf06-cc26xx.a(osc.o)
NOROM_AONRTCCurrent64BitValueGet                  contiki-srf06-cc26xx.a(aon_rtc.o)
NOROM_AONRTCCurrentCompareValueGet                contiki-srf06-cc26xx.a(aon_rtc.o)
                                                  contiki-srf06-cc26xx.a(osc.o)
                                                  contiki-srf06-cc26xx.a(soc-rtc.o)
                                                  contiki-srf06-cc26xx.a(rtimer-arch.o)
NOROM_CPUbasepriGet                               contiki-srf06-cc26xx.a(cpu.o)
NOROM_CPUcpsid                                    contiki-srf06-cc26xx.a(cpu.o)
                                                  contiki-srf06-cc26xx.a(ddi.o)
                                                  contiki-srf06-cc26xx.a(aux-ctrl.o)
                                                  contiki-srf06-cc26xx.a(adi.o)
                                                  contiki-srf06-cc26xx.a(soc-trng.o)
                                                  contiki-srf06-cc26xx.a(rf-ble.o)
                                                  contiki-srf06-cc26xx.a(rf-core.o)
                                                  contiki-srf06-cc26xx.a(gpio-interrupt.)
                                                  contiki-srf06-cc26xx.a(lpm.o)
                                                  contiki-srf06-cc26xx.a(cc26xx-uart.o)
                                                  contiki-srf06-cc26xx.a(contiki-watchdo)
                                                  contiki-srf06-cc26xx.a(soc-rtc.o)
                                                  contiki-srf06-cc26xx.a(clock.o)
                                                  contiki-srf06-cc26xx.a(board.o)
                                                  contiki-srf06-cc26xx.a(contiki-main.o)
NOROM_CPUcpsie                                    contiki-srf06-cc26xx.a(cpu.o)
                                                  contiki-srf06-cc26xx.a(ddi.o)
                                                  contiki-srf06-cc26xx.a(aux-ctrl.o)
                                                  contiki-srf06-cc26xx.a(adi.o)
                                                  contiki-srf06-cc26xx.a(soc-trng.o)
                                                  contiki-srf06-cc26xx.a(rf-ble.o)
                                                  contiki-srf06-cc26xx.a(rf-core.o)
                                                  contiki-srf06-cc26xx.a(gpio-interrupt.)
                                                  contiki-srf06-cc26xx.a(lpm.o)
                                                  contiki-srf06-cc26xx.a(cc26xx-uart.o)
                                                  contiki-srf06-cc26xx.a(contiki-watchdo)
                                                  contiki-srf06-cc26xx.a(soc-rtc.o)
                                                  contiki-srf06-cc26xx.a(clock.o)
                                                  contiki-srf06-cc26xx.a(board.o)
                                                  contiki-srf06-cc26xx.a(contiki-main.o)
NOROM_CPUdelay                                    contiki-srf06-cc26xx.a(cpu.o)
                                                  broadcast-example.co
NOROM_CPUprimask                                  contiki-srf06-cc26xx.a(cpu.o)
NOROM_ChipInfo_GetChipFamily                      contiki-srf06-cc26xx.a(chipinfo.o)
                                                  contiki-srf06-cc26xx.a(prop-mode.o)
                                                  contiki-srf06-cc26xx.a(contiki-main.o)
NOROM_ChipInfo_GetChipType                        contiki-srf06-cc26xx.a(chipinfo.o)
                                                  contiki-srf06-cc26xx.a(rf-core.o)
NOROM_ChipInfo_GetHwRevision                      contiki-srf06-cc26xx.a(chipinfo.o)
NOROM_ChipInfo_GetPackageType                     contiki-srf06-cc26xx.a(chipinfo.o)
NOROM_ChipInfo_GetSupportedProtocol_BV            contiki-srf06-cc26xx.a(chipinfo.o)
                                                  contiki-srf06-cc26xx.a(contiki-main.o)
NOROM_DDI16BitRead                                contiki-srf06-cc26xx.a(ddi.o)
NOROM_DDI16BitWrite                               contiki-srf06-cc26xx.a(ddi.o)
NOROM_DDI16BitfieldRead                           contiki-srf06-cc26xx.a(ddi.o)
NOROM_DDI16BitfieldWrite                          contiki-srf06-cc26xx.a(ddi.o)
NOROM_DDI32RegWrite                               contiki-srf06-cc26xx.a(ddi.o)
                                                  contiki-srf06-cc26xx.a(setup_rom.o)
NOROM_OSCClockSourceGet                           contiki-srf06-cc26xx.a(osc.o)
                                                  contiki-srf06-cc26xx.a(sys_ctrl.o)
                                                  contiki-srf06-cc26xx.a(setup_rom.o)
                                                  contiki-srf06-cc26xx.a(oscillators.o)
NOROM_OSCClockSourceSet                           contiki-srf06-cc26xx.a(osc.o)
                                                  contiki-srf06-cc26xx.a(sys_ctrl.o)
                                                  contiki-srf06-cc26xx.a(setup_rom.o)
                                                  contiki-srf06-cc26xx.a(oscillators.o)
NOROM_OSCHF_AttemptToSwitchToXosc                 contiki-srf06-cc26xx.a(osc.o)
NOROM_OSCHF_DebugGetCrystalAmplitude              contiki-srf06-cc26xx.a(osc.o)
NOROM_OSCHF_DebugGetExpectedAverageCrystalAmplitude contiki-srf06-cc26xx.a(osc.o)
NOROM_OSCHF_GetStartupTime                        contiki-srf06-cc26xx.a(osc.o)
NOROM_OSCHF_SwitchToRcOscTurnOffXosc              contiki-srf06-cc26xx.a(osc.o)
NOROM_OSCHF_TurnOnXosc                            contiki-srf06-cc26xx.a(osc.o)
NOROM_OSC_HPOSCRelativeFrequencyOffsetGet         contiki-srf06-cc26xx.a(osc.o)
NOROM_OSC_HPOSCRelativeFrequencyOffsetToRFCoreFormatConvert contiki-srf06-cc26xx.a(osc.o)
NOROM_PowerCtrlSourceSet                          contiki-srf06-cc26xx.a(pwr_ctrl.o)
                                                  contiki-srf06-cc26xx.a(lpm.o)
NOROM_RFCAdi3VcoLdoVoltageMode                    contiki-srf06-cc26xx.a(rfc.o)
                                                  contiki-srf06-cc26xx.a(prop-mode.o)
NOROM_RFCCPEPatchReset                            contiki-srf06-cc26xx.a(rfc.o)
NOROM_RFCCpeIntGetAndClear                        contiki-srf06-cc26xx.a(rfc.o)
NOROM_RFCDoorbellSendTo                           contiki-srf06-cc26xx.a(rfc.o)
NOROM_RFCRTrim                                    contiki-srf06-cc26xx.a(rfc.o)
                                                  contiki-srf06-cc26xx.a(prop-mode.o)
NOROM_RFCRfTrimRead                               contiki-srf06-cc26xx.a(rfc.o)
NOROM_RFCRfTrimSet                                contiki-srf06-cc26xx.a(rfc.o)
NOROM_RFCSynthPowerDown                           contiki-srf06-cc26xx.a(rfc.o)
NOROM_SetupAfterColdResetWakeupFromShutDownCfg1   contiki-srf06-cc26xx.a(setup_rom.o)
                                                  contiki-srf06-cc26xx.a(setup.o)
NOROM_SetupAfterColdResetWakeupFromShutDownCfg2   contiki-srf06-cc26xx.a(setup_rom.o)
                                                  contiki-srf06-cc26xx.a(setup.o)
NOROM_SetupAfterColdResetWakeupFromShutDownCfg3   contiki-srf06-cc26xx.a(setup_rom.o)
                                                  contiki-srf06-cc26xx.a(setup.o)
NOROM_SetupGetTrimForAdcShModeEn                  contiki-srf06-cc26xx.a(setup_rom.o)
NOROM_SetupGetTrimForAdcShVbufEn                  contiki-srf06-cc26xx.a(setup_rom.o)
NOROM_SetupGetTrimForAmpcompCtrl                  contiki-srf06-cc26xx.a(setup_rom.o)
NOROM_SetupGetTrimForAmpcompTh1                   contiki-srf06-cc26xx.a(setup_rom.o)
NOROM_SetupGetTrimForAmpcompTh2                   contiki-srf06-cc26xx.a(setup_rom.o)
NOROM_SetupGetTrimForAnabypassValue1              contiki-srf06-cc26xx.a(setup_rom.o)
NOROM_SetupGetTrimForDblrLoopFilterResetVoltage   contiki-srf06-cc26xx.a(setup_rom.o)
NOROM_SetupGetTrimForRadcExtCfg                   contiki-srf06-cc26xx.a(setup_rom.o)
NOROM_SetupGetTrimForRcOscLfIBiasTrim             contiki-srf06-cc26xx.a(setup_rom.o)
NOROM_SetupGetTrimForRcOscLfRtuneCtuneTrim        contiki-srf06-cc26xx.a(setup_rom.o)
NOROM_SetupGetTrimForXoscHfCtl                    contiki-srf06-cc26xx.a(setup_rom.o)
NOROM_SetupGetTrimForXoscHfFastStart              contiki-srf06-cc26xx.a(setup_rom.o)
NOROM_SetupGetTrimForXoscHfIbiastherm             contiki-srf06-cc26xx.a(setup_rom.o)
NOROM_SetupGetTrimForXoscLfRegulatorAndCmirrwrRatio contiki-srf06-cc26xx.a(setup_rom.o)
NOROM_SetupSetAonRtcSubSecInc                     contiki-srf06-cc26xx.a(setup_rom.o)
NOROM_SetupSetCacheModeAccordingToCcfgSetting     contiki-srf06-cc26xx.a(setup_rom.o)
                                                  contiki-srf06-cc26xx.a(setup.o)
NOROM_SetupSetVddrLevel                           contiki-srf06-cc26xx.a(setup_rom.o)
NOROM_SetupTrimDevice                             contiki-srf06-cc26xx.a(setup.o)
                                                  obj_srf06-cc26xx/startup_gcc.o
NOROM_SysCtrlAdjustRechargeAfterPowerDown         contiki-srf06-cc26xx.a(sys_ctrl.o)
                                                  contiki-srf06-cc26xx.a(lpm.o)
NOROM_SysCtrlPowerEverything                      contiki-srf06-cc26xx.a(sys_ctrl.o)
NOROM_SysCtrlResetSourceGet                       contiki-srf06-cc26xx.a(sys_ctrl.o)
NOROM_SysCtrlSetRechargeBeforePowerDown           contiki-srf06-cc26xx.a(sys_ctrl.o)
                                                  contiki-srf06-cc26xx.a(lpm.o)
NOROM_SysCtrl_DCDC_VoltageConditionalControl      contiki-srf06-cc26xx.a(sys_ctrl.o)
                                                  contiki-srf06-cc26xx.a(lpm.o)
NOROM_TRNGConfigure                               contiki-srf06-cc26xx.a(trng.o)
                                                  contiki-srf06-cc26xx.a(soc-trng.o)
NOROM_TRNGNumberGet                               contiki-srf06-cc26xx.a(trng.o)
NOROM_ThisCodeIsBuiltForCC13xxHwRev20AndLater_HaltIfViolated contiki-srf06-cc26xx.a(chipinfo.o)
                                                  contiki-srf06-cc26xx.a(setup.o)
NmiSR                                             obj_srf06-cc26xx/startup_gcc.o
PendSVIntHandler                                  obj_srf06-cc26xx/startup_gcc.o
RFCCPE0IntHandler                                 contiki-srf06-cc26xx.a(rf-core.o)
                                                  obj_srf06-cc26xx/startup_gcc.o
RFCCPE1IntHandler                                 contiki-srf06-cc26xx.a(rf-core.o)
                                                  obj_srf06-cc26xx/startup_gcc.o
RFCCmdAckIntHandler                               obj_srf06-cc26xx/startup_gcc.o
RFCHardwareIntHandler                             obj_srf06-cc26xx/startup_gcc.o
ResetISR                                          obj_srf06-cc26xx/startup_gcc.o
SSI0IntHandler                                    obj_srf06-cc26xx/startup_gcc.o
SSI1IntHandler                                    obj_srf06-cc26xx/startup_gcc.o
SVCallIntHandler                                  obj_srf06-cc26xx/startup_gcc.o
SWEvent0IntHandler                                obj_srf06-cc26xx/startup_gcc.o
SafeHapiAuxAdiSelect                              contiki-srf06-cc26xx.a(adi.o)
SafeHapiVoid                                      contiki-srf06-cc26xx.a(adi.o)
                                                  contiki-srf06-cc26xx.a(sys_ctrl.o)
                                                  contiki-srf06-cc26xx.a(osc.o)
                                                  contiki-srf06-cc26xx.a(oscillators.o)
SysTickIntHandler                                 obj_srf06-cc26xx/startup_gcc.o
TRNGIntHandler                                    contiki-srf06-cc26xx.a(soc-trng.o)
                                                  obj_srf06-cc26xx/startup_gcc.o
Timer0AIntHandler                                 obj_srf06-cc26xx/startup_gcc.o
Timer0BIntHandler                                 obj_srf06-cc26xx/startup_gcc.o
Timer1AIntHandler                                 obj_srf06-cc26xx/startup_gcc.o
Timer1BIntHandler                                 obj_srf06-cc26xx/startup_gcc.o
Timer2AIntHandler                                 obj_srf06-cc26xx/startup_gcc.o
Timer2BIntHandler                                 obj_srf06-cc26xx/startup_gcc.o
Timer3AIntHandler                                 obj_srf06-cc26xx/startup_gcc.o
Timer3BIntHandler                                 obj_srf06-cc26xx/startup_gcc.o
UART0IntHandler                                   contiki-srf06-cc26xx.a(cc26xx-uart.o)
                                                  obj_srf06-cc26xx/startup_gcc.o
UsageFaultIntHandler                              obj_srf06-cc26xx/startup_gcc.o
WatchdogIntHandler                                obj_srf06-cc26xx/startup_gcc.o
__aeabi_idiv0                                     /home/user/CodeSourcery/Sourcery_G++_Lite/bin/../lib/gcc/arm-none-eabi/4.3.2/thumb2/libgcc.a(_dvmd_tls.o)
                                                  /home/user/CodeSourcery/Sourcery_G++_Lite/bin/../lib/gcc/arm-none-eabi/4.3.2/thumb2/libgcc.a(_udivsi3.o)
__aeabi_ldiv0                                     /home/user/CodeSourcery/Sourcery_G++_Lite/bin/../lib/gcc/arm-none-eabi/4.3.2/thumb2/libgcc.a(_dvmd_tls.o)
                                                  /home/user/CodeSourcery/Sourcery_G++_Lite/bin/../lib/gcc/arm-none-eabi/4.3.2/thumb2/libgcc.a(_aeabi_uldivmod.o)
__aeabi_uidiv                                     /home/user/CodeSourcery/Sourcery_G++_Lite/bin/../lib/gcc/arm-none-eabi/4.3.2/thumb2/libgcc.a(_udivsi3.o)
                                                  /home/user/CodeSourcery/Sourcery_G++_Lite/bin/../lib/gcc/arm-none-eabi/4.3.2/thumb2/libgcc.a(_udivdi3.o)
                                                  /home/user/CodeSourcery/Sourcery_G++_Lite/bin/../lib/gcc/arm-none-eabi/4.3.2/thumb2/libgcc.a(_divdi3.o)
__aeabi_uidivmod                                  /home/user/CodeSourcery/Sourcery_G++_Lite/bin/../lib/gcc/arm-none-eabi/4.3.2/thumb2/libgcc.a(_udivsi3.o)
                                                  /home/user/CodeSourcery/Sourcery_G++_Lite/bin/../lib/gcc/arm-none-eabi/4.3.2/thumb2/libgcc.a(_udivdi3.o)
                                                  /home/user/CodeSourcery/Sourcery_G++_Lite/bin/../lib/gcc/arm-none-eabi/4.3.2/thumb2/libgcc.a(_divdi3.o)
__aeabi_uldivmod                                  /home/user/CodeSourcery/Sourcery_G++_Lite/bin/../lib/gcc/arm-none-eabi/4.3.2/thumb2/libgcc.a(_aeabi_uldivmod.o)
                                                  contiki-srf06-cc26xx.a(strformat.o)
__ccfg                                            obj_srf06-cc26xx/ccfg.o
__clz_tab                                         /home/user/CodeSourcery/Sourcery_G++_Lite/bin/../lib/gcc/arm-none-eabi/4.3.2/thumb2/libgcc.a(_clz.o)
                                                  /home/user/CodeSourcery/Sourcery_G++_Lite/bin/../lib/gcc/arm-none-eabi/4.3.2/thumb2/libgcc.a(_udivdi3.o)
                                                  /home/user/CodeSourcery/Sourcery_G++_Lite/bin/../lib/gcc/arm-none-eabi/4.3.2/thumb2/libgcc.a(_divdi3.o)
__divdi3                                          /home/user/CodeSourcery/Sourcery_G++_Lite/bin/../lib/gcc/arm-none-eabi/4.3.2/thumb2/libgcc.a(_divdi3.o)
                                                  /home/user/CodeSourcery/Sourcery_G++_Lite/bin/../lib/gcc/arm-none-eabi/4.3.2/thumb2/libgcc.a(bpabi.o)
__gnu_ldivmod_helper                              /home/user/CodeSourcery/Sourcery_G++_Lite/bin/../lib/gcc/arm-none-eabi/4.3.2/thumb2/libgcc.a(bpabi.o)
__gnu_uldivmod_helper                             /home/user/CodeSourcery/Sourcery_G++_Lite/bin/../lib/gcc/arm-none-eabi/4.3.2/thumb2/libgcc.a(bpabi.o)
                                                  /home/user/CodeSourcery/Sourcery_G++_Lite/bin/../lib/gcc/arm-none-eabi/4.3.2/thumb2/libgcc.a(_aeabi_uldivmod.o)
__udivdi3                                         /home/user/CodeSourcery/Sourcery_G++_Lite/bin/../lib/gcc/arm-none-eabi/4.3.2/thumb2/libgcc.a(_udivdi3.o)
                                                  /home/user/CodeSourcery/Sourcery_G++_Lite/bin/../lib/gcc/arm-none-eabi/4.3.2/thumb2/libgcc.a(bpabi.o)
__udivsi3                                         /home/user/CodeSourcery/Sourcery_G++_Lite/bin/../lib/gcc/arm-none-eabi/4.3.2/thumb2/libgcc.a(_udivsi3.o)
_bss                                              obj_srf06-cc26xx/startup_gcc.o
_data                                             obj_srf06-cc26xx/startup_gcc.o
_ebss                                             obj_srf06-cc26xx/startup_gcc.o
_edata                                            obj_srf06-cc26xx/startup_gcc.o
_estack                                           obj_srf06-cc26xx/startup_gcc.o
_etext                                            obj_srf06-cc26xx/startup_gcc.o
addr                                              broadcast-example.co
autostart_exit                                    contiki-srf06-cc26xx.a(autostart.o)
autostart_processes                               broadcast-example.co
                                                  contiki-srf06-cc26xx.a(contiki-main.o)
autostart_start                                   contiki-srf06-cc26xx.a(autostart.o)
                                                  contiki-srf06-cc26xx.a(contiki-main.o)
aux_ctrl_power_down                               contiki-srf06-cc26xx.a(aux-ctrl.o)
                                                  contiki-srf06-cc26xx.a(lpm.o)
aux_ctrl_power_up                                 contiki-srf06-cc26xx.a(aux-ctrl.o)
                                                  contiki-srf06-cc26xx.a(lpm.o)
aux_ctrl_register_consumer                        contiki-srf06-cc26xx.a(aux-ctrl.o)
                                                  contiki-srf06-cc26xx.a(oscillators.o)
                                                  contiki-srf06-cc26xx.a(lpm.o)
aux_ctrl_unregister_consumer                      contiki-srf06-cc26xx.a(aux-ctrl.o)
                                                  contiki-srf06-cc26xx.a(oscillators.o)
board_i2c_read                                    broadcast-example.co
board_i2c_select                                  broadcast-example.co
board_i2c_shutdown                                broadcast-example.co
board_i2c_wakeup                                  broadcast-example.co
board_i2c_write                                   broadcast-example.co
board_i2c_write_read                              broadcast-example.co
board_i2c_write_single                            broadcast-example.co
board_init                                        contiki-srf06-cc26xx.a(board.o)
                                                  contiki-srf06-cc26xx.a(contiki-main.o)
board_spi_close                                   contiki-srf06-cc26xx.a(board-spi.o)
                                                  contiki-srf06-cc26xx.a(ext-flash.o)
board_spi_flush                                   contiki-srf06-cc26xx.a(board-spi.o)
                                                  contiki-srf06-cc26xx.a(ext-flash.o)
board_spi_open                                    contiki-srf06-cc26xx.a(board-spi.o)
                                                  contiki-srf06-cc26xx.a(ext-flash.o)
board_spi_read                                    contiki-srf06-cc26xx.a(board-spi.o)
                                                  contiki-srf06-cc26xx.a(ext-flash.o)
board_spi_write                                   contiki-srf06-cc26xx.a(board-spi.o)
                                                  contiki-srf06-cc26xx.a(ext-flash.o)
broadcast_example_process                         broadcast-example.co
buffer                                            broadcast-example.co
button_left_sensor                                contiki-srf06-cc26xx.a(button-sensor.o)
                                                  contiki-srf06-cc26xx.a(launchpad-senso)
button_right_sensor                               contiki-srf06-cc26xx.a(button-sensor.o)
                                                  contiki-srf06-cc26xx.a(launchpad-senso)
cc26xx_uart_busy                                  contiki-srf06-cc26xx.a(cc26xx-uart.o)
                                                  contiki-srf06-cc26xx.a(putchar.o)
cc26xx_uart_init                                  contiki-srf06-cc26xx.a(cc26xx-uart.o)
                                                  contiki-srf06-cc26xx.a(contiki-main.o)
cc26xx_uart_set_input                             contiki-srf06-cc26xx.a(cc26xx-uart.o)
cc26xx_uart_write_byte                            contiki-srf06-cc26xx.a(cc26xx-uart.o)
                                                  contiki-srf06-cc26xx.a(putchar.o)
clock_delay                                       contiki-srf06-cc26xx.a(clock.o)
                                                  contiki-srf06-cc26xx.a(leds.o)
clock_delay_usec                                  contiki-srf06-cc26xx.a(clock.o)
clock_init                                        contiki-srf06-cc26xx.a(clock.o)
                                                  contiki-srf06-cc26xx.a(contiki-main.o)
clock_seconds                                     contiki-srf06-cc26xx.a(clock.o)
                                                  contiki-srf06-cc26xx.a(stimer.o)
clock_time                                        contiki-srf06-cc26xx.a(clock.o)
                                                  contiki-srf06-cc26xx.a(mac-sequence.o)
                                                  contiki-srf06-cc26xx.a(link-stats.o)
                                                  contiki-srf06-cc26xx.a(rpl-timers.o)
                                                  contiki-srf06-cc26xx.a(rpl-dag.o)
                                                  contiki-srf06-cc26xx.a(timer.o)
                                                  contiki-srf06-cc26xx.a(etimer.o)
                                                  contiki-srf06-cc26xx.a(lpm.o)
                                                  contiki-srf06-cc26xx.a(button-sensor.o)
clock_update                                      contiki-srf06-cc26xx.a(clock.o)
                                                  contiki-srf06-cc26xx.a(lpm.o)
                                                  contiki-srf06-cc26xx.a(soc-rtc.o)
clock_wait                                        contiki-srf06-cc26xx.a(clock.o)
contikimac_debug_print                            contiki-srf06-cc26xx.a(contikimac.o)
contikimac_driver                                 contiki-srf06-cc26xx.a(contikimac.o)
                                                  contiki-srf06-cc26xx.a(csma.o)
                                                  contiki-srf06-cc26xx.a(netstack.o)
                                                  contiki-srf06-cc26xx.a(rf-core.o)
                                                  contiki-srf06-cc26xx.a(contiki-main.o)
controlTime                                       broadcast-example.co
controlVals                                       broadcast-example.co
csma_driver                                       contiki-srf06-cc26xx.a(csma.o)
                                                  contiki-srf06-cc26xx.a(nullsec.o)
                                                  contiki-srf06-cc26xx.a(contikimac.o)
                                                  contiki-srf06-cc26xx.a(netstack.o)
                                                  contiki-srf06-cc26xx.a(contiki-main.o)
ctimer_expired                                    contiki-srf06-cc26xx.a(ctimer.o)
ctimer_init                                       contiki-srf06-cc26xx.a(ctimer.o)
                                                  contiki-srf06-cc26xx.a(contiki-main.o)
ctimer_process                                    contiki-srf06-cc26xx.a(ctimer.o)
ctimer_reset                                      contiki-srf06-cc26xx.a(ctimer.o)
                                                  contiki-srf06-cc26xx.a(link-stats.o)
                                                  contiki-srf06-cc26xx.a(rpl-timers.o)
ctimer_restart                                    contiki-srf06-cc26xx.a(ctimer.o)
                                                  contiki-srf06-cc26xx.a(rpl-nbr-policy.)
ctimer_set                                        contiki-srf06-cc26xx.a(ctimer.o)
                                                  contiki-srf06-cc26xx.a(rpl-nbr-policy.)
                                                  contiki-srf06-cc26xx.a(contikimac.o)
                                                  contiki-srf06-cc26xx.a(csma.o)
                                                  contiki-srf06-cc26xx.a(link-stats.o)
                                                  contiki-srf06-cc26xx.a(rpl-timers.o)
ctimer_set_with_process                           contiki-srf06-cc26xx.a(ctimer.o)
ctimer_stop                                       contiki-srf06-cc26xx.a(ctimer.o)
                                                  contiki-srf06-cc26xx.a(contikimac.o)
                                                  contiki-srf06-cc26xx.a(csma.o)
                                                  contiki-srf06-cc26xx.a(rpl-timers.o)
                                                  contiki-srf06-cc26xx.a(rpl-dag.o)
dao_ack_output                                    contiki-srf06-cc26xx.a(rpl-icmp6.o)
dao_output                                        contiki-srf06-cc26xx.a(rpl-icmp6.o)
                                                  contiki-srf06-cc26xx.a(rpl-timers.o)
                                                  contiki-srf06-cc26xx.a(rpl-dag.o)
                                                  contiki-srf06-cc26xx.a(rpl.o)
dao_output_target                                 contiki-srf06-cc26xx.a(rpl-icmp6.o)
                                                  contiki-srf06-cc26xx.a(rpl-ext-header.)
                                                  contiki-srf06-cc26xx.a(rpl.o)
dbg_send_bytes                                    contiki-srf06-cc26xx.a(putchar.o)
                                                  contiki-srf06-cc26xx.a(dbg-printf.o)
default_instance                                  contiki-srf06-cc26xx.a(rpl-ext-header.)
                                                  contiki-srf06-cc26xx.a(rpl-dag.o)
                                                  contiki-srf06-cc26xx.a(rpl.o)
detect                                            broadcast-example.co
dio_output                                        contiki-srf06-cc26xx.a(rpl-icmp6.o)
                                                  contiki-srf06-cc26xx.a(rpl-timers.o)
dis_output                                        contiki-srf06-cc26xx.a(rpl-icmp6.o)
                                                  contiki-srf06-cc26xx.a(rpl-timers.o)
ds6_neighbors                                     contiki-srf06-cc26xx.a(uip-ds6-nbr.o)
                                                  contiki-srf06-cc26xx.a(rpl-nbr-policy.)
                                                  contiki-srf06-cc26xx.a(rpl-dag.o)
empty                                             broadcast-example.co
emptyRoom                                         broadcast-example.co
energest_flush                                    contiki-srf06-cc26xx.a(energest.o)
energest_init                                     contiki-srf06-cc26xx.a(energest.o)
                                                  contiki-srf06-cc26xx.a(contiki-main.o)
energest_type_set                                 contiki-srf06-cc26xx.a(energest.o)
energest_type_time                                contiki-srf06-cc26xx.a(energest.o)
etimer_adjust                                     contiki-srf06-cc26xx.a(etimer.o)
etimer_expiration_time                            contiki-srf06-cc26xx.a(etimer.o)
                                                  contiki-srf06-cc26xx.a(rpl-timers.o)
etimer_expired                                    contiki-srf06-cc26xx.a(etimer.o)
                                                  contiki-srf06-cc26xx.a(rpl-timers.o)
                                                  contiki-srf06-cc26xx.a(tcpip.o)
                                                  contiki-srf06-cc26xx.a(ctimer.o)
                                                  contiki-srf06-cc26xx.a(rf-ble.o)
                                                  broadcast-example.co
etimer_next_expiration_time                       contiki-srf06-cc26xx.a(etimer.o)
                                                  contiki-srf06-cc26xx.a(lpm.o)
etimer_pending                                    contiki-srf06-cc26xx.a(etimer.o)
                                                  contiki-srf06-cc26xx.a(lpm.o)
                                                  contiki-srf06-cc26xx.a(clock.o)
etimer_process                                    contiki-srf06-cc26xx.a(etimer.o)
                                                  contiki-srf06-cc26xx.a(contiki-main.o)
etimer_request_poll                               contiki-srf06-cc26xx.a(etimer.o)
                                                  contiki-srf06-cc26xx.a(clock.o)
etimer_reset                                      contiki-srf06-cc26xx.a(etimer.o)
                                                  contiki-srf06-cc26xx.a(uip-ds6.o)
                                                  contiki-srf06-cc26xx.a(ctimer.o)
                                                  broadcast-example.co
etimer_reset_with_new_interval                    contiki-srf06-cc26xx.a(etimer.o)
etimer_restart                                    contiki-srf06-cc26xx.a(etimer.o)
                                                  contiki-srf06-cc26xx.a(tcpip.o)
                                                  contiki-srf06-cc26xx.a(ctimer.o)
etimer_set                                        contiki-srf06-cc26xx.a(etimer.o)
                                                  contiki-srf06-cc26xx.a(tcpip.o)
                                                  contiki-srf06-cc26xx.a(uip-ds6.o)
                                                  contiki-srf06-cc26xx.a(ctimer.o)
                                                  contiki-srf06-cc26xx.a(rf-ble.o)
                                                  broadcast-example.co
etimer_start_time                                 contiki-srf06-cc26xx.a(etimer.o)
etimer_stop                                       contiki-srf06-cc26xx.a(etimer.o)
                                                  contiki-srf06-cc26xx.a(ctimer.o)
ext_flash_close                                   contiki-srf06-cc26xx.a(ext-flash.o)
ext_flash_erase                                   contiki-srf06-cc26xx.a(ext-flash.o)
ext_flash_init                                    contiki-srf06-cc26xx.a(ext-flash.o)
                                                  contiki-srf06-cc26xx.a(board.o)
ext_flash_open                                    contiki-srf06-cc26xx.a(ext-flash.o)
ext_flash_read                                    contiki-srf06-cc26xx.a(ext-flash.o)
ext_flash_test                                    contiki-srf06-cc26xx.a(ext-flash.o)
ext_flash_write                                   contiki-srf06-cc26xx.a(ext-flash.o)
find_removable_dao                                contiki-srf06-cc26xx.a(rpl-nbr-policy.)
find_removable_dio                                contiki-srf06-cc26xx.a(rpl-nbr-policy.)
find_removable_dis                                contiki-srf06-cc26xx.a(rpl-nbr-policy.)
format_str                                        contiki-srf06-cc26xx.a(strformat.o)
format_str_v                                      contiki-srf06-cc26xx.a(strformat.o)
                                                  contiki-srf06-cc26xx.a(dbg-printf.o)
frame802154_check_dest_panid                      contiki-srf06-cc26xx.a(frame802154.o)
frame802154_create                                contiki-srf06-cc26xx.a(frame802154.o)
                                                  contiki-srf06-cc26xx.a(framer-802154.o)
frame802154_create_fcf                            contiki-srf06-cc26xx.a(frame802154.o)
frame802154_extract_linkaddr                      contiki-srf06-cc26xx.a(frame802154.o)
frame802154_get_pan_id                            contiki-srf06-cc26xx.a(frame802154.o)
                                                  contiki-srf06-cc26xx.a(framer-802154.o)
frame802154_has_panid                             contiki-srf06-cc26xx.a(frame802154.o)
frame802154_hdrlen                                contiki-srf06-cc26xx.a(frame802154.o)
                                                  contiki-srf06-cc26xx.a(framer-802154.o)
frame802154_is_broadcast_addr                     contiki-srf06-cc26xx.a(frame802154.o)
                                                  contiki-srf06-cc26xx.a(framer-802154.o)
frame802154_parse                                 contiki-srf06-cc26xx.a(frame802154.o)
                                                  contiki-srf06-cc26xx.a(contikimac.o)
                                                  contiki-srf06-cc26xx.a(framer-802154.o)
frame802154_parse_fcf                             contiki-srf06-cc26xx.a(frame802154.o)
frame802154_set_pan_id                            contiki-srf06-cc26xx.a(frame802154.o)
framer_802154                                     contiki-srf06-cc26xx.a(framer-802154.o)
                                                  contiki-srf06-cc26xx.a(contikimac.o)
                                                  contiki-srf06-cc26xx.a(sicslowpan.o)
g_pfnVectors                                      obj_srf06-cc26xx/startup_gcc.o
get_match_length                                  contiki-srf06-cc26xx.a(uip-ds6.o)
get_probing_delay                                 contiki-srf06-cc26xx.a(rpl-timers.o)
get_probing_target                                contiki-srf06-cc26xx.a(rpl-timers.o)
gpio_interrupt_init                               contiki-srf06-cc26xx.a(gpio-interrupt.)
                                                  contiki-srf06-cc26xx.a(contiki-main.o)
gpio_interrupt_register_handler                   contiki-srf06-cc26xx.a(gpio-interrupt.)
                                                  contiki-srf06-cc26xx.a(button-sensor.o)
guess_etx_from_rssi                               contiki-srf06-cc26xx.a(link-stats.o)
httpTime                                          broadcast-example.co
icmp6_new                                         contiki-srf06-cc26xx.a(tcpip.o)
ieee_addr_cpy_to                                  contiki-srf06-cc26xx.a(ieee-addr.o)
                                                  contiki-srf06-cc26xx.a(contiki-main.o)
init                                              broadcast-example.co
instance_table                                    contiki-srf06-cc26xx.a(rpl-icmp6.o)
                                                  contiki-srf06-cc26xx.a(rpl-dag.o)
                                                  contiki-srf06-cc26xx.a(rpl.o)
lastEmpty                                         broadcast-example.co
lastVals                                          broadcast-example.co
leds_arch_get                                     contiki-srf06-cc26xx.a(leds-arch.o)
                                                  contiki-srf06-cc26xx.a(leds.o)
leds_arch_init                                    contiki-srf06-cc26xx.a(leds-arch.o)
                                                  contiki-srf06-cc26xx.a(leds.o)
leds_arch_set                                     contiki-srf06-cc26xx.a(leds-arch.o)
                                                  contiki-srf06-cc26xx.a(leds.o)
leds_blink                                        contiki-srf06-cc26xx.a(leds.o)
leds_get                                          contiki-srf06-cc26xx.a(leds.o)
leds_init                                         contiki-srf06-cc26xx.a(leds.o)
                                                  contiki-srf06-cc26xx.a(contiki-main.o)
leds_off                                          contiki-srf06-cc26xx.a(leds.o)
                                                  contiki-srf06-cc26xx.a(contiki-main.o)
leds_on                                           contiki-srf06-cc26xx.a(leds.o)
                                                  contiki-srf06-cc26xx.a(contiki-main.o)
leds_set                                          contiki-srf06-cc26xx.a(leds.o)
leds_toggle                                       contiki-srf06-cc26xx.a(leds.o)
link_stats_from_lladdr                            contiki-srf06-cc26xx.a(link-stats.o)
                                                  contiki-srf06-cc26xx.a(rpl-dag.o)
link_stats_init                                   contiki-srf06-cc26xx.a(link-stats.o)
                                                  contiki-srf06-cc26xx.a(uip-ds6-nbr.o)
link_stats_input_callback                         contiki-srf06-cc26xx.a(link-stats.o)
                                                  contiki-srf06-cc26xx.a(sicslowpan.o)
link_stats_is_fresh                               contiki-srf06-cc26xx.a(link-stats.o)
                                                  contiki-srf06-cc26xx.a(rpl-dag.o)
link_stats_packet_sent                            contiki-srf06-cc26xx.a(link-stats.o)
                                                  contiki-srf06-cc26xx.a(uip-ds6-nbr.o)
linkaddr_cmp                                      contiki-srf06-cc26xx.a(linkaddr.o)
                                                  contiki-srf06-cc26xx.a(mac-sequence.o)
                                                  contiki-srf06-cc26xx.a(contikimac.o)
                                                  contiki-srf06-cc26xx.a(csma.o)
                                                  contiki-srf06-cc26xx.a(packetbuf.o)
                                                  contiki-srf06-cc26xx.a(nbr-table.o)
                                                  contiki-srf06-cc26xx.a(uip-ds6-nbr.o)
                                                  contiki-srf06-cc26xx.a(sicslowpan.o)
linkaddr_copy                                     contiki-srf06-cc26xx.a(linkaddr.o)
                                                  contiki-srf06-cc26xx.a(mac-sequence.o)
                                                  contiki-srf06-cc26xx.a(frame802154.o)
                                                  contiki-srf06-cc26xx.a(framer-802154.o)
                                                  contiki-srf06-cc26xx.a(csma.o)
                                                  contiki-srf06-cc26xx.a(packetbuf.o)
                                                  contiki-srf06-cc26xx.a(nbr-table.o)
                                                  contiki-srf06-cc26xx.a(sicslowpan.o)
linkaddr_node_addr                                contiki-srf06-cc26xx.a(contikimac.o)
                                                  contiki-srf06-cc26xx.a(linkaddr.o)
                                                  contiki-srf06-cc26xx.a(rf-ble.o)
                                                  contiki-srf06-cc26xx.a(contiki-main.o)
linkaddr_null                                     contiki-srf06-cc26xx.a(linkaddr.o)
                                                  contiki-srf06-cc26xx.a(frame802154.o)
                                                  contiki-srf06-cc26xx.a(packetbuf.o)
                                                  contiki-srf06-cc26xx.a(nbr-table.o)
                                                  contiki-srf06-cc26xx.a(uip-ds6-nbr.o)
                                                  contiki-srf06-cc26xx.a(sicslowpan.o)
linkaddr_set_node_addr                            contiki-srf06-cc26xx.a(linkaddr.o)
list_add                                          contiki-srf06-cc26xx.a(list.o)
                                                  contiki-srf06-cc26xx.a(aux-ctrl.o)
                                                  contiki-srf06-cc26xx.a(csma.o)
                                                  contiki-srf06-cc26xx.a(nbr-table.o)
                                                  contiki-srf06-cc26xx.a(uip-icmp6.o)
                                                  contiki-srf06-cc26xx.a(uip-ds6-route.o)
                                                  contiki-srf06-cc26xx.a(ctimer.o)
                                                  contiki-srf06-cc26xx.a(lpm.o)
list_chop                                         contiki-srf06-cc26xx.a(list.o)
list_copy                                         contiki-srf06-cc26xx.a(list.o)
list_head                                         contiki-srf06-cc26xx.a(list.o)
                                                  contiki-srf06-cc26xx.a(aux-ctrl.o)
                                                  contiki-srf06-cc26xx.a(csma.o)
                                                  contiki-srf06-cc26xx.a(nbr-table.o)
                                                  contiki-srf06-cc26xx.a(uip-icmp6.o)
                                                  contiki-srf06-cc26xx.a(uip-ds6-route.o)
                                                  contiki-srf06-cc26xx.a(ctimer.o)
                                                  contiki-srf06-cc26xx.a(lpm.o)
list_init                                         contiki-srf06-cc26xx.a(list.o)
                                                  contiki-srf06-cc26xx.a(csma.o)
                                                  contiki-srf06-cc26xx.a(uip-ds6-route.o)
                                                  contiki-srf06-cc26xx.a(ctimer.o)
                                                  contiki-srf06-cc26xx.a(lpm.o)
list_insert                                       contiki-srf06-cc26xx.a(list.o)
list_item_next                                    contiki-srf06-cc26xx.a(list.o)
                                                  contiki-srf06-cc26xx.a(contikimac.o)
                                                  contiki-srf06-cc26xx.a(csma.o)
                                                  contiki-srf06-cc26xx.a(nbr-table.o)
                                                  contiki-srf06-cc26xx.a(uip-icmp6.o)
                                                  contiki-srf06-cc26xx.a(uip-ds6-route.o)
list_length                                       contiki-srf06-cc26xx.a(list.o)
                                                  contiki-srf06-cc26xx.a(csma.o)
                                                  contiki-srf06-cc26xx.a(uip-ds6-route.o)
list_pop                                          contiki-srf06-cc26xx.a(list.o)
list_push                                         contiki-srf06-cc26xx.a(list.o)
                                                  contiki-srf06-cc26xx.a(uip-ds6-route.o)
list_remove                                       contiki-srf06-cc26xx.a(list.o)
                                                  contiki-srf06-cc26xx.a(aux-ctrl.o)
                                                  contiki-srf06-cc26xx.a(csma.o)
                                                  contiki-srf06-cc26xx.a(nbr-table.o)
                                                  contiki-srf06-cc26xx.a(uip-icmp6.o)
                                                  contiki-srf06-cc26xx.a(uip-ds6-route.o)
                                                  contiki-srf06-cc26xx.a(ctimer.o)
                                                  contiki-srf06-cc26xx.a(lpm.o)
list_tail                                         contiki-srf06-cc26xx.a(list.o)
llprefix                                          contiki-srf06-cc26xx.a(sicslowpan.o)
lpm_drop                                          contiki-srf06-cc26xx.a(lpm.o)
                                                  contiki-srf06-cc26xx.a(contiki-main.o)
lpm_init                                          contiki-srf06-cc26xx.a(lpm.o)
                                                  contiki-srf06-cc26xx.a(contiki-main.o)
lpm_pin_set_default_state                         contiki-srf06-cc26xx.a(lpm.o)
                                                  contiki-srf06-cc26xx.a(cc26xx-uart.o)
lpm_register_module                               contiki-srf06-cc26xx.a(lpm.o)
                                                  contiki-srf06-cc26xx.a(soc-trng.o)
                                                  contiki-srf06-cc26xx.a(cc26xx-uart.o)
                                                  contiki-srf06-cc26xx.a(prop-mode.o)
                                                  contiki-srf06-cc26xx.a(board.o)
lpm_shutdown                                      contiki-srf06-cc26xx.a(lpm.o)
                                                  contiki-srf06-cc26xx.a(button-sensor.o)
lpm_sleep                                         contiki-srf06-cc26xx.a(lpm.o)
                                                  contiki-srf06-cc26xx.a(prop-mode.o)
lpm_unregister_module                             contiki-srf06-cc26xx.a(lpm.o)
                                                  contiki-srf06-cc26xx.a(soc-trng.o)
mac_call_sent_callback                            contiki-srf06-cc26xx.a(mac.o)
                                                  contiki-srf06-cc26xx.a(contikimac.o)
                                                  contiki-srf06-cc26xx.a(csma.o)
mac_sequence_is_duplicate                         contiki-srf06-cc26xx.a(mac-sequence.o)
                                                  contiki-srf06-cc26xx.a(contikimac.o)
mac_sequence_register_seqno                       contiki-srf06-cc26xx.a(mac-sequence.o)
                                                  contiki-srf06-cc26xx.a(contikimac.o)
main                                              contiki-srf06-cc26xx.a(contiki-main.o)
                                                  obj_srf06-cc26xx/startup_gcc.o
max16                                             broadcast-example.co
memb_alloc                                        contiki-srf06-cc26xx.a(memb.o)
                                                  contiki-srf06-cc26xx.a(csma.o)
                                                  contiki-srf06-cc26xx.a(queuebuf.o)
                                                  contiki-srf06-cc26xx.a(nbr-table.o)
                                                  contiki-srf06-cc26xx.a(uip-ds6-route.o)
memb_free                                         contiki-srf06-cc26xx.a(memb.o)
                                                  contiki-srf06-cc26xx.a(csma.o)
                                                  contiki-srf06-cc26xx.a(queuebuf.o)
                                                  contiki-srf06-cc26xx.a(uip-ds6-route.o)
memb_init                                         contiki-srf06-cc26xx.a(memb.o)
                                                  contiki-srf06-cc26xx.a(csma.o)
                                                  contiki-srf06-cc26xx.a(queuebuf.o)
                                                  contiki-srf06-cc26xx.a(uip-ds6-route.o)
memb_inmemb                                       contiki-srf06-cc26xx.a(memb.o)
                                                  contiki-srf06-cc26xx.a(queuebuf.o)
memb_numfree                                      contiki-srf06-cc26xx.a(memb.o)
                                                  contiki-srf06-cc26xx.a(queuebuf.o)
memcmp                                            /home/user/CodeSourcery/Sourcery_G++_Lite/bin/../lib/gcc/arm-none-eabi/4.3.2/../../../../arm-none-eabi/lib/thumb2/libc.a(lib_a-memcmp.o)
                                                  contiki-srf06-cc26xx.a(linkaddr.o)
                                                  contiki-srf06-cc26xx.a(rpl-icmp6.o)
                                                  contiki-srf06-cc26xx.a(rpl-dag.o)
                                                  contiki-srf06-cc26xx.a(rpl.o)
                                                  contiki-srf06-cc26xx.a(uip-nd6.o)
                                                  contiki-srf06-cc26xx.a(uip-ds6-route.o)
                                                  contiki-srf06-cc26xx.a(uip-ds6-nbr.o)
                                                  contiki-srf06-cc26xx.a(uip-ds6.o)
                                                  contiki-srf06-cc26xx.a(uip6.o)
                                                  contiki-srf06-cc26xx.a(sicslowpan.o)
memcpy                                            /home/user/CodeSourcery/Sourcery_G++_Lite/bin/../lib/gcc/arm-none-eabi/4.3.2/../../../../arm-none-eabi/lib/thumb2/libc.a(lib_a-memcpy.o)
                                                  contiki-srf06-cc26xx.a(mac-sequence.o)
                                                  contiki-srf06-cc26xx.a(frame802154.o)
                                                  contiki-srf06-cc26xx.a(contikimac.o)
                                                  contiki-srf06-cc26xx.a(packetbuf.o)
                                                  contiki-srf06-cc26xx.a(nbr-table.o)
                                                  contiki-srf06-cc26xx.a(linkaddr.o)
                                                  contiki-srf06-cc26xx.a(rfc.o)
                                                  contiki-srf06-cc26xx.a(rpl-icmp6.o)
                                                  contiki-srf06-cc26xx.a(rpl-dag.o)
                                                  contiki-srf06-cc26xx.a(uip-udp-packet.)
                                                  contiki-srf06-cc26xx.a(simple-udp.o)
                                                  contiki-srf06-cc26xx.a(uip-nd6.o)
                                                  contiki-srf06-cc26xx.a(uip-icmp6.o)
                                                  contiki-srf06-cc26xx.a(uip-ds6-route.o)
                                                  contiki-srf06-cc26xx.a(uip-ds6-nbr.o)
                                                  contiki-srf06-cc26xx.a(uip-ds6.o)
                                                  contiki-srf06-cc26xx.a(uip6.o)
                                                  contiki-srf06-cc26xx.a(sicslowpan.o)
                                                  contiki-srf06-cc26xx.a(rf-ble.o)
                                                  contiki-srf06-cc26xx.a(prop-mode.o)
                                                  contiki-srf06-cc26xx.a(ext-flash.o)
                                                  contiki-srf06-cc26xx.a(board.o)
                                                  contiki-srf06-cc26xx.a(contiki-main.o)
memmove                                           /home/user/CodeSourcery/Sourcery_G++_Lite/bin/../lib/gcc/arm-none-eabi/4.3.2/../../../../arm-none-eabi/lib/thumb2/libc.a(lib_a-memmove.o)
                                                  contiki-srf06-cc26xx.a(rpl-ext-header.)
                                                  contiki-srf06-cc26xx.a(uip-udp-packet.)
                                                  contiki-srf06-cc26xx.a(uip-icmp6.o)
                                                  contiki-srf06-cc26xx.a(uip6.o)
                                                  contiki-srf06-cc26xx.a(sicslowpan.o)
memset                                            /home/user/CodeSourcery/Sourcery_G++_Lite/bin/../lib/gcc/arm-none-eabi/4.3.2/../../../../arm-none-eabi/lib/thumb2/libc.a(lib_a-memset.o)
                                                  contiki-srf06-cc26xx.a(memb.o)
                                                  contiki-srf06-cc26xx.a(framer-802154.o)
                                                  contiki-srf06-cc26xx.a(packetbuf.o)
                                                  contiki-srf06-cc26xx.a(nbr-table.o)
                                                  contiki-srf06-cc26xx.a(rfc.o)
                                                  contiki-srf06-cc26xx.a(rpl-icmp6.o)
                                                  contiki-srf06-cc26xx.a(rpl-dag.o)
                                                  contiki-srf06-cc26xx.a(uip-ds6.o)
                                                  contiki-srf06-cc26xx.a(sicslowpan.o)
                                                  contiki-srf06-cc26xx.a(rf-ble.o)
                                                  contiki-srf06-cc26xx.a(rf-core.o)
                                                  contiki-srf06-cc26xx.a(prop-mode.o)
min16                                             broadcast-example.co
motionTime                                        broadcast-example.co
mse16                                             broadcast-example.co
nbr_routes                                        contiki-srf06-cc26xx.a(uip-ds6-route.o)
nbr_table_add_lladdr                              contiki-srf06-cc26xx.a(nbr-table.o)
                                                  contiki-srf06-cc26xx.a(link-stats.o)
                                                  contiki-srf06-cc26xx.a(rpl-dag.o)
                                                  contiki-srf06-cc26xx.a(uip-ds6-route.o)
                                                  contiki-srf06-cc26xx.a(uip-ds6-nbr.o)
nbr_table_get_from_lladdr                         contiki-srf06-cc26xx.a(nbr-table.o)
                                                  contiki-srf06-cc26xx.a(link-stats.o)
                                                  contiki-srf06-cc26xx.a(rpl-ext-header.)
                                                  contiki-srf06-cc26xx.a(rpl-dag.o)
                                                  contiki-srf06-cc26xx.a(uip-ds6-route.o)
                                                  contiki-srf06-cc26xx.a(uip-ds6-nbr.o)
nbr_table_get_lladdr                              contiki-srf06-cc26xx.a(nbr-table.o)
                                                  contiki-srf06-cc26xx.a(rpl-nbr-policy.)
                                                  contiki-srf06-cc26xx.a(rpl-dag.o)
                                                  contiki-srf06-cc26xx.a(uip-ds6-route.o)
                                                  contiki-srf06-cc26xx.a(uip-ds6-nbr.o)
nbr_table_head                                    contiki-srf06-cc26xx.a(nbr-table.o)
                                                  contiki-srf06-cc26xx.a(rpl-nbr-policy.)
                                                  contiki-srf06-cc26xx.a(link-stats.o)
                                                  contiki-srf06-cc26xx.a(rpl-timers.o)
                                                  contiki-srf06-cc26xx.a(rpl-dag.o)
                                                  contiki-srf06-cc26xx.a(uip-ds6-nbr.o)
nbr_table_lock                                    contiki-srf06-cc26xx.a(nbr-table.o)
                                                  contiki-srf06-cc26xx.a(rpl-dag.o)
                                                  contiki-srf06-cc26xx.a(uip-ds6-route.o)
nbr_table_next                                    contiki-srf06-cc26xx.a(nbr-table.o)
                                                  contiki-srf06-cc26xx.a(rpl-nbr-policy.)
                                                  contiki-srf06-cc26xx.a(link-stats.o)
                                                  contiki-srf06-cc26xx.a(rpl-timers.o)
                                                  contiki-srf06-cc26xx.a(rpl-dag.o)
                                                  contiki-srf06-cc26xx.a(uip-ds6-nbr.o)
nbr_table_register                                contiki-srf06-cc26xx.a(nbr-table.o)
                                                  contiki-srf06-cc26xx.a(link-stats.o)
                                                  contiki-srf06-cc26xx.a(rpl-dag.o)
                                                  contiki-srf06-cc26xx.a(uip-ds6-route.o)
                                                  contiki-srf06-cc26xx.a(uip-ds6-nbr.o)
nbr_table_remove                                  contiki-srf06-cc26xx.a(nbr-table.o)
                                                  contiki-srf06-cc26xx.a(rpl-dag.o)
                                                  contiki-srf06-cc26xx.a(uip-ds6-route.o)
                                                  contiki-srf06-cc26xx.a(uip-ds6-nbr.o)
nbr_table_unlock                                  contiki-srf06-cc26xx.a(nbr-table.o)
                                                  contiki-srf06-cc26xx.a(rpl-dag.o)
nbr_table_update_lladdr                           contiki-srf06-cc26xx.a(nbr-table.o)
                                                  contiki-srf06-cc26xx.a(uip-nd6.o)
netstack_init                                     contiki-srf06-cc26xx.a(netstack.o)
                                                  contiki-srf06-cc26xx.a(contiki-main.o)
node_id                                           contiki-srf06-cc26xx.a(contiki-main.o)
nullsec_driver                                    contiki-srf06-cc26xx.a(nullsec.o)
                                                  contiki-srf06-cc26xx.a(csma.o)
                                                  contiki-srf06-cc26xx.a(netstack.o)
                                                  contiki-srf06-cc26xx.a(sicslowpan.o)
oscillators_request_hf_xosc                       contiki-srf06-cc26xx.a(oscillators.o)
                                                  contiki-srf06-cc26xx.a(rf-ble.o)
                                                  contiki-srf06-cc26xx.a(prop-mode.o)
oscillators_select_lf_rcosc                       contiki-srf06-cc26xx.a(oscillators.o)
                                                  contiki-srf06-cc26xx.a(lpm.o)
oscillators_select_lf_xosc                        contiki-srf06-cc26xx.a(oscillators.o)
                                                  contiki-srf06-cc26xx.a(contiki-main.o)
oscillators_switch_to_hf_rc                       contiki-srf06-cc26xx.a(oscillators.o)
                                                  contiki-srf06-cc26xx.a(rf-ble.o)
                                                  contiki-srf06-cc26xx.a(lpm.o)
                                                  contiki-srf06-cc26xx.a(prop-mode.o)
oscillators_switch_to_hf_xosc                     contiki-srf06-cc26xx.a(oscillators.o)
                                                  contiki-srf06-cc26xx.a(rf-ble.o)
                                                  contiki-srf06-cc26xx.a(prop-mode.o)
packetbuf_addr                                    contiki-srf06-cc26xx.a(packetbuf.o)
                                                  contiki-srf06-cc26xx.a(mac-sequence.o)
                                                  contiki-srf06-cc26xx.a(contikimac.o)
                                                  contiki-srf06-cc26xx.a(framer-802154.o)
                                                  contiki-srf06-cc26xx.a(csma.o)
                                                  contiki-srf06-cc26xx.a(rpl-icmp6.o)
                                                  contiki-srf06-cc26xx.a(rpl-ext-header.)
                                                  contiki-srf06-cc26xx.a(uip-ds6-nbr.o)
                                                  contiki-srf06-cc26xx.a(sicslowpan.o)
packetbuf_addrs                                   contiki-srf06-cc26xx.a(packetbuf.o)
packetbuf_attr                                    contiki-srf06-cc26xx.a(packetbuf.o)
                                                  contiki-srf06-cc26xx.a(mac-sequence.o)
                                                  contiki-srf06-cc26xx.a(contikimac.o)
                                                  contiki-srf06-cc26xx.a(framer-802154.o)
                                                  contiki-srf06-cc26xx.a(csma.o)
                                                  contiki-srf06-cc26xx.a(link-stats.o)
                                                  contiki-srf06-cc26xx.a(sicslowpan.o)
packetbuf_attr_clear                              contiki-srf06-cc26xx.a(packetbuf.o)
packetbuf_attr_copyfrom                           contiki-srf06-cc26xx.a(packetbuf.o)
                                                  contiki-srf06-cc26xx.a(queuebuf.o)
packetbuf_attr_copyto                             contiki-srf06-cc26xx.a(packetbuf.o)
                                                  contiki-srf06-cc26xx.a(queuebuf.o)
packetbuf_attrs                                   contiki-srf06-cc26xx.a(packetbuf.o)
packetbuf_clear                                   contiki-srf06-cc26xx.a(packetbuf.o)
                                                  contiki-srf06-cc26xx.a(sicslowpan.o)
                                                  contiki-srf06-cc26xx.a(rf-core.o)
packetbuf_compact                                 contiki-srf06-cc26xx.a(packetbuf.o)
packetbuf_copyfrom                                contiki-srf06-cc26xx.a(packetbuf.o)
                                                  contiki-srf06-cc26xx.a(queuebuf.o)
packetbuf_copyto                                  contiki-srf06-cc26xx.a(packetbuf.o)
                                                  contiki-srf06-cc26xx.a(queuebuf.o)
packetbuf_datalen                                 contiki-srf06-cc26xx.a(packetbuf.o)
                                                  contiki-srf06-cc26xx.a(contikimac.o)
                                                  contiki-srf06-cc26xx.a(framer-802154.o)
                                                  contiki-srf06-cc26xx.a(sicslowpan.o)
packetbuf_dataptr                                 contiki-srf06-cc26xx.a(packetbuf.o)
                                                  contiki-srf06-cc26xx.a(contikimac.o)
                                                  contiki-srf06-cc26xx.a(framer-802154.o)
                                                  contiki-srf06-cc26xx.a(sicslowpan.o)
                                                  contiki-srf06-cc26xx.a(rf-core.o)
packetbuf_hdralloc                                contiki-srf06-cc26xx.a(packetbuf.o)
                                                  contiki-srf06-cc26xx.a(framer-802154.o)
packetbuf_hdrlen                                  contiki-srf06-cc26xx.a(packetbuf.o)
packetbuf_hdrptr                                  contiki-srf06-cc26xx.a(packetbuf.o)
                                                  contiki-srf06-cc26xx.a(contikimac.o)
                                                  contiki-srf06-cc26xx.a(framer-802154.o)
packetbuf_hdrreduce                               contiki-srf06-cc26xx.a(packetbuf.o)
                                                  contiki-srf06-cc26xx.a(framer-802154.o)
packetbuf_holds_broadcast                         contiki-srf06-cc26xx.a(packetbuf.o)
                                                  contiki-srf06-cc26xx.a(contikimac.o)
                                                  contiki-srf06-cc26xx.a(framer-802154.o)
packetbuf_remaininglen                            contiki-srf06-cc26xx.a(packetbuf.o)
packetbuf_set_addr                                contiki-srf06-cc26xx.a(packetbuf.o)
                                                  contiki-srf06-cc26xx.a(contikimac.o)
                                                  contiki-srf06-cc26xx.a(framer-802154.o)
                                                  contiki-srf06-cc26xx.a(sicslowpan.o)
packetbuf_set_attr                                contiki-srf06-cc26xx.a(packetbuf.o)
                                                  contiki-srf06-cc26xx.a(nullsec.o)
                                                  contiki-srf06-cc26xx.a(contikimac.o)
                                                  contiki-srf06-cc26xx.a(framer-802154.o)
                                                  contiki-srf06-cc26xx.a(csma.o)
                                                  contiki-srf06-cc26xx.a(sicslowpan.o)
                                                  contiki-srf06-cc26xx.a(prop-mode.o)
packetbuf_set_datalen                             contiki-srf06-cc26xx.a(packetbuf.o)
                                                  contiki-srf06-cc26xx.a(sicslowpan.o)
                                                  contiki-srf06-cc26xx.a(rf-core.o)
packetbuf_totlen                                  contiki-srf06-cc26xx.a(packetbuf.o)
                                                  contiki-srf06-cc26xx.a(contikimac.o)
periodic_timer                                    contiki-srf06-cc26xx.a(link-stats.o)
prevEmpty                                         broadcast-example.co
printf                                            contiki-srf06-cc26xx.a(dbg-printf.o)
                                                  contiki-srf06-cc26xx.a(rpl-dag.o)
                                                  contiki-srf06-cc26xx.a(uip-debug.o)
                                                  contiki-srf06-cc26xx.a(contiki-main.o)
                                                  broadcast-example.co
process_alloc_event                               contiki-srf06-cc26xx.a(process.o)
                                                  contiki-srf06-cc26xx.a(tcpip.o)
                                                  contiki-srf06-cc26xx.a(serial-line.o)
                                                  contiki-srf06-cc26xx.a(soc-trng.o)
                                                  contiki-srf06-cc26xx.a(sensors.o)
process_current                                   contiki-srf06-cc26xx.a(process.o)
                                                  contiki-srf06-cc26xx.a(tcpip.o)
                                                  contiki-srf06-cc26xx.a(simple-udp.o)
                                                  contiki-srf06-cc26xx.a(serial-line.o)
                                                  contiki-srf06-cc26xx.a(etimer.o)
                                                  contiki-srf06-cc26xx.a(ctimer.o)
process_exit                                      contiki-srf06-cc26xx.a(process.o)
                                                  contiki-srf06-cc26xx.a(autostart.o)
                                                  contiki-srf06-cc26xx.a(rf-ble.o)
process_init                                      contiki-srf06-cc26xx.a(process.o)
                                                  contiki-srf06-cc26xx.a(contiki-main.o)
process_is_running                                contiki-srf06-cc26xx.a(process.o)
process_list                                      contiki-srf06-cc26xx.a(process.o)
process_nevents                                   contiki-srf06-cc26xx.a(process.o)
                                                  contiki-srf06-cc26xx.a(lpm.o)
process_poll                                      contiki-srf06-cc26xx.a(process.o)
                                                  contiki-srf06-cc26xx.a(serial-line.o)
                                                  contiki-srf06-cc26xx.a(etimer.o)
                                                  contiki-srf06-cc26xx.a(rf-core.o)
                                                  contiki-srf06-cc26xx.a(prop-mode.o)
                                                  contiki-srf06-cc26xx.a(sensors.o)
process_post                                      contiki-srf06-cc26xx.a(process.o)
                                                  contiki-srf06-cc26xx.a(tcpip.o)
                                                  contiki-srf06-cc26xx.a(serial-line.o)
                                                  contiki-srf06-cc26xx.a(etimer.o)
                                                  contiki-srf06-cc26xx.a(soc-trng.o)
                                                  contiki-srf06-cc26xx.a(sensors.o)
process_post_synch                                contiki-srf06-cc26xx.a(process.o)
                                                  contiki-srf06-cc26xx.a(tcpip.o)
process_run                                       contiki-srf06-cc26xx.a(process.o)
                                                  contiki-srf06-cc26xx.a(contiki-main.o)
process_start                                     contiki-srf06-cc26xx.a(process.o)
                                                  contiki-srf06-cc26xx.a(simple-udp.o)
                                                  contiki-srf06-cc26xx.a(serial-line.o)
                                                  contiki-srf06-cc26xx.a(ctimer.o)
                                                  contiki-srf06-cc26xx.a(autostart.o)
                                                  contiki-srf06-cc26xx.a(soc-trng.o)
                                                  contiki-srf06-cc26xx.a(prop-mode.o)
                                                  contiki-srf06-cc26xx.a(contiki-main.o)
prop_mode_driver                                  contiki-srf06-cc26xx.a(prop-mode.o)
                                                  contiki-srf06-cc26xx.a(contikimac.o)
                                                  contiki-srf06-cc26xx.a(netstack.o)
                                                  contiki-srf06-cc26xx.a(rf-ble.o)
                                                  contiki-srf06-cc26xx.a(rf-core.o)
                                                  contiki-srf06-cc26xx.a(contiki-main.o)
prop_mode_tx_power_431_527                        contiki-srf06-cc26xx.a(prop-mode-tx-po)
prop_mode_tx_power_779_930                        contiki-srf06-cc26xx.a(prop-mode-tx-po)
                                                  contiki-srf06-cc26xx.a(prop-mode.o)
putchar                                           contiki-srf06-cc26xx.a(putchar.o)
                                                  contiki-srf06-cc26xx.a(uip-debug.o)
                                                  contiki-srf06-cc26xx.a(contiki-main.o)
                                                  broadcast-example.co
puts                                              contiki-srf06-cc26xx.a(putchar.o)
                                                  contiki-srf06-cc26xx.a(rpl-dag.o)
                                                  contiki-srf06-cc26xx.a(rf-core.o)
                                                  contiki-srf06-cc26xx.a(contiki-main.o)
                                                  broadcast-example.co
queuebuf_addr                                     contiki-srf06-cc26xx.a(queuebuf.o)
queuebuf_attr                                     contiki-srf06-cc26xx.a(queuebuf.o)
                                                  contiki-srf06-cc26xx.a(csma.o)
queuebuf_datalen                                  contiki-srf06-cc26xx.a(queuebuf.o)
queuebuf_dataptr                                  contiki-srf06-cc26xx.a(queuebuf.o)
queuebuf_debug_print                              contiki-srf06-cc26xx.a(queuebuf.o)
queuebuf_free                                     contiki-srf06-cc26xx.a(queuebuf.o)
                                                  contiki-srf06-cc26xx.a(csma.o)
                                                  contiki-srf06-cc26xx.a(sicslowpan.o)
queuebuf_init                                     contiki-srf06-cc26xx.a(queuebuf.o)
                                                  contiki-srf06-cc26xx.a(contiki-main.o)
queuebuf_new_from_packetbuf                       contiki-srf06-cc26xx.a(queuebuf.o)
                                                  contiki-srf06-cc26xx.a(csma.o)
                                                  contiki-srf06-cc26xx.a(sicslowpan.o)
queuebuf_numfree                                  contiki-srf06-cc26xx.a(queuebuf.o)
                                                  contiki-srf06-cc26xx.a(sicslowpan.o)
queuebuf_to_packetbuf                             contiki-srf06-cc26xx.a(queuebuf.o)
                                                  contiki-srf06-cc26xx.a(contikimac.o)
                                                  contiki-srf06-cc26xx.a(sicslowpan.o)
queuebuf_update_attr_from_packetbuf               contiki-srf06-cc26xx.a(queuebuf.o)
                                                  contiki-srf06-cc26xx.a(csma.o)
queuebuf_update_from_packetbuf                    contiki-srf06-cc26xx.a(queuebuf.o)
                                                  contiki-srf06-cc26xx.a(contikimac.o)
random_init                                       contiki-srf06-cc26xx.a(random.o)
                                                  contiki-srf06-cc26xx.a(contiki-main.o)
random_rand                                       contiki-srf06-cc26xx.a(random.o)
                                                  contiki-srf06-cc26xx.a(framer-802154.o)
                                                  contiki-srf06-cc26xx.a(csma.o)
                                                  contiki-srf06-cc26xx.a(rpl-timers.o)
                                                  contiki-srf06-cc26xx.a(uip-ds6.o)
rat_offset                                        contiki-srf06-cc26xx.a(rf-core.o)
remove_ext_hdr                                    contiki-srf06-cc26xx.a(uip6.o)
rf_ble_beacon_process                             contiki-srf06-cc26xx.a(rf-ble.o)
rf_ble_beacond_config                             contiki-srf06-cc26xx.a(rf-ble.o)
rf_ble_beacond_start                              contiki-srf06-cc26xx.a(rf-ble.o)
rf_ble_beacond_stop                               contiki-srf06-cc26xx.a(rf-ble.o)
rf_ble_is_active                                  contiki-srf06-cc26xx.a(rf-ble.o)
                                                  contiki-srf06-cc26xx.a(prop-mode.o)
rf_core_boot                                      contiki-srf06-cc26xx.a(rf-core.o)
                                                  contiki-srf06-cc26xx.a(rf-ble.o)
rf_core_cmd_done_dis                              contiki-srf06-cc26xx.a(rf-core.o)
                                                  contiki-srf06-cc26xx.a(prop-mode.o)
rf_core_cmd_done_en                               contiki-srf06-cc26xx.a(rf-core.o)
                                                  contiki-srf06-cc26xx.a(prop-mode.o)
rf_core_get_last_radio_op                         contiki-srf06-cc26xx.a(rf-core.o)
                                                  contiki-srf06-cc26xx.a(prop-mode.o)
rf_core_init_radio_op                             contiki-srf06-cc26xx.a(rf-core.o)
                                                  contiki-srf06-cc26xx.a(rf-ble.o)
rf_core_is_accessible                             contiki-srf06-cc26xx.a(rf-core.o)
                                                  contiki-srf06-cc26xx.a(rf-ble.o)
                                                  contiki-srf06-cc26xx.a(prop-mode.o)
rf_core_power_down                                contiki-srf06-cc26xx.a(rf-core.o)
                                                  contiki-srf06-cc26xx.a(rf-ble.o)
                                                  contiki-srf06-cc26xx.a(prop-mode.o)
rf_core_power_up                                  contiki-srf06-cc26xx.a(rf-core.o)
                                                  contiki-srf06-cc26xx.a(prop-mode.o)
rf_core_primary_mode_abort                        contiki-srf06-cc26xx.a(rf-core.o)
                                                  contiki-srf06-cc26xx.a(rf-ble.o)
rf_core_primary_mode_register                     contiki-srf06-cc26xx.a(rf-core.o)
                                                  contiki-srf06-cc26xx.a(prop-mode.o)
rf_core_primary_mode_restore                      contiki-srf06-cc26xx.a(rf-core.o)
                                                  contiki-srf06-cc26xx.a(rf-ble.o)
rf_core_process                                   contiki-srf06-cc26xx.a(rf-core.o)
                                                  contiki-srf06-cc26xx.a(prop-mode.o)
rf_core_restart_rat                               contiki-srf06-cc26xx.a(rf-core.o)
rf_core_send_cmd                                  contiki-srf06-cc26xx.a(rf-core.o)
                                                  contiki-srf06-cc26xx.a(rf-ble.o)
                                                  contiki-srf06-cc26xx.a(prop-mode.o)
rf_core_set_modesel                               contiki-srf06-cc26xx.a(rf-core.o)
                                                  contiki-srf06-cc26xx.a(prop-mode.o)
rf_core_setup_interrupts                          contiki-srf06-cc26xx.a(rf-core.o)
                                                  contiki-srf06-cc26xx.a(prop-mode.o)
rf_core_start_rat                                 contiki-srf06-cc26xx.a(rf-core.o)
                                                  contiki-srf06-cc26xx.a(prop-mode.o)
rf_core_stop_rat                                  contiki-srf06-cc26xx.a(rf-core.o)
rf_core_wait_cmd_done                             contiki-srf06-cc26xx.a(rf-core.o)
                                                  contiki-srf06-cc26xx.a(rf-ble.o)
                                                  contiki-srf06-cc26xx.a(prop-mode.o)
rime_sniffer_add                                  contiki-srf06-cc26xx.a(sicslowpan.o)
rime_sniffer_remove                               contiki-srf06-cc26xx.a(sicslowpan.o)
ringbuf_elements                                  contiki-srf06-cc26xx.a(ringbuf.o)
ringbuf_get                                       contiki-srf06-cc26xx.a(ringbuf.o)
                                                  contiki-srf06-cc26xx.a(serial-line.o)
ringbuf_init                                      contiki-srf06-cc26xx.a(ringbuf.o)
                                                  contiki-srf06-cc26xx.a(serial-line.o)
ringbuf_put                                       contiki-srf06-cc26xx.a(ringbuf.o)
                                                  contiki-srf06-cc26xx.a(serial-line.o)
ringbuf_size                                      contiki-srf06-cc26xx.a(ringbuf.o)
rpl_add_dag                                       contiki-srf06-cc26xx.a(rpl-dag.o)
rpl_add_parent                                    contiki-srf06-cc26xx.a(rpl-dag.o)
rpl_add_route                                     contiki-srf06-cc26xx.a(rpl.o)
                                                  contiki-srf06-cc26xx.a(rpl-icmp6.o)
rpl_alloc_dag                                     contiki-srf06-cc26xx.a(rpl-dag.o)
rpl_alloc_instance                                contiki-srf06-cc26xx.a(rpl-dag.o)
rpl_cancel_dao                                    contiki-srf06-cc26xx.a(rpl-timers.o)
                                                  contiki-srf06-cc26xx.a(rpl.o)
rpl_dag_init                                      contiki-srf06-cc26xx.a(rpl-dag.o)
                                                  contiki-srf06-cc26xx.a(rpl.o)
rpl_find_of                                       contiki-srf06-cc26xx.a(rpl-dag.o)
rpl_find_parent                                   contiki-srf06-cc26xx.a(rpl-dag.o)
                                                  contiki-srf06-cc26xx.a(rpl-icmp6.o)
rpl_find_parent_any_dag                           contiki-srf06-cc26xx.a(rpl-dag.o)
                                                  contiki-srf06-cc26xx.a(rpl.o)
rpl_free_dag                                      contiki-srf06-cc26xx.a(rpl-dag.o)
                                                  contiki-srf06-cc26xx.a(rpl.o)
rpl_free_instance                                 contiki-srf06-cc26xx.a(rpl-dag.o)
rpl_get_any_dag                                   contiki-srf06-cc26xx.a(rpl-dag.o)
                                                  contiki-srf06-cc26xx.a(rpl-timers.o)
rpl_get_dag                                       contiki-srf06-cc26xx.a(rpl-dag.o)
                                                  contiki-srf06-cc26xx.a(rpl-ext-header.)
rpl_get_default_instance                          contiki-srf06-cc26xx.a(rpl-dag.o)
rpl_get_instance                                  contiki-srf06-cc26xx.a(rpl-dag.o)
                                                  contiki-srf06-cc26xx.a(rpl-nbr-policy.)
                                                  contiki-srf06-cc26xx.a(rpl-icmp6.o)
                                                  contiki-srf06-cc26xx.a(rpl-ext-header.)
rpl_get_mode                                      contiki-srf06-cc26xx.a(rpl.o)
                                                  contiki-srf06-cc26xx.a(rpl-timers.o)
                                                  contiki-srf06-cc26xx.a(rpl-icmp6.o)
rpl_get_nbr                                       contiki-srf06-cc26xx.a(rpl-dag.o)
rpl_get_parent                                    contiki-srf06-cc26xx.a(rpl-dag.o)
                                                  contiki-srf06-cc26xx.a(rpl-nbr-policy.)
                                                  contiki-srf06-cc26xx.a(rpl-ext-header.)
rpl_get_parent_ipaddr                             contiki-srf06-cc26xx.a(rpl-dag.o)
                                                  contiki-srf06-cc26xx.a(rpl-timers.o)
                                                  contiki-srf06-cc26xx.a(rpl-icmp6.o)
rpl_get_parent_link_metric                        contiki-srf06-cc26xx.a(rpl-dag.o)
rpl_get_parent_link_stats                         contiki-srf06-cc26xx.a(rpl-dag.o)
                                                  contiki-srf06-cc26xx.a(rpl-timers.o)
                                                  contiki-srf06-cc26xx.a(rpl-mrhof.o)
rpl_get_parent_lladdr                             contiki-srf06-cc26xx.a(rpl-dag.o)
rpl_get_parent_rank                               contiki-srf06-cc26xx.a(rpl-dag.o)
rpl_has_downward_route                            contiki-srf06-cc26xx.a(rpl-dag.o)
rpl_icmp6_register_handlers                       contiki-srf06-cc26xx.a(rpl-icmp6.o)
                                                  contiki-srf06-cc26xx.a(rpl.o)
rpl_icmp6_update_nbr_table                        contiki-srf06-cc26xx.a(rpl-icmp6.o)
                                                  contiki-srf06-cc26xx.a(rpl-dag.o)
rpl_init                                          contiki-srf06-cc26xx.a(rpl.o)
                                                  contiki-srf06-cc26xx.a(tcpip.o)
rpl_ipv6_neighbor_callback                        contiki-srf06-cc26xx.a(rpl.o)
                                                  contiki-srf06-cc26xx.a(uip-ds6-nbr.o)
rpl_join_instance                                 contiki-srf06-cc26xx.a(rpl-dag.o)
rpl_link_neighbor_callback                        contiki-srf06-cc26xx.a(rpl.o)
                                                  contiki-srf06-cc26xx.a(uip-ds6-nbr.o)
rpl_local_repair                                  contiki-srf06-cc26xx.a(rpl-dag.o)
rpl_move_parent                                   contiki-srf06-cc26xx.a(rpl-dag.o)
rpl_mrhof                                         contiki-srf06-cc26xx.a(rpl-mrhof.o)
                                                  contiki-srf06-cc26xx.a(rpl-dag.o)
rpl_nbr_policy_find_removable                     contiki-srf06-cc26xx.a(rpl-nbr-policy.)
                                                  contiki-srf06-cc26xx.a(nbr-table.o)
rpl_nullify_parent                                contiki-srf06-cc26xx.a(rpl-dag.o)
rpl_parent_is_fresh                               contiki-srf06-cc26xx.a(rpl-dag.o)
                                                  contiki-srf06-cc26xx.a(rpl-timers.o)
rpl_parent_is_reachable                           contiki-srf06-cc26xx.a(rpl-dag.o)
rpl_parents                                       contiki-srf06-cc26xx.a(rpl-dag.o)
                                                  contiki-srf06-cc26xx.a(rpl-timers.o)
                                                  contiki-srf06-cc26xx.a(rpl-ext-header.)
rpl_print_neighbor_list                           contiki-srf06-cc26xx.a(rpl-dag.o)
rpl_process_dio                                   contiki-srf06-cc26xx.a(rpl-dag.o)
                                                  contiki-srf06-cc26xx.a(rpl-icmp6.o)
rpl_process_parent_event                          contiki-srf06-cc26xx.a(rpl-dag.o)
rpl_purge_dags                                    contiki-srf06-cc26xx.a(rpl.o)
                                                  contiki-srf06-cc26xx.a(rpl-timers.o)
rpl_purge_routes                                  contiki-srf06-cc26xx.a(rpl.o)
                                                  contiki-srf06-cc26xx.a(rpl-timers.o)
rpl_rank_via_parent                               contiki-srf06-cc26xx.a(rpl-dag.o)
                                                  contiki-srf06-cc26xx.a(rpl-timers.o)
rpl_recalculate_ranks                             contiki-srf06-cc26xx.a(rpl-dag.o)
                                                  contiki-srf06-cc26xx.a(rpl-timers.o)
rpl_remove_header                                 contiki-srf06-cc26xx.a(rpl-ext-header.)
                                                  contiki-srf06-cc26xx.a(uip-icmp6.o)
rpl_remove_parent                                 contiki-srf06-cc26xx.a(rpl-dag.o)
rpl_remove_routes                                 contiki-srf06-cc26xx.a(rpl.o)
                                                  contiki-srf06-cc26xx.a(rpl-dag.o)
rpl_remove_routes_by_nexthop                      contiki-srf06-cc26xx.a(rpl.o)
                                                  contiki-srf06-cc26xx.a(rpl-dag.o)
rpl_repair_root                                   contiki-srf06-cc26xx.a(rpl-dag.o)
                                                  contiki-srf06-cc26xx.a(tcpip.o)
rpl_reset_dio_timer                               contiki-srf06-cc26xx.a(rpl-timers.o)
                                                  contiki-srf06-cc26xx.a(rpl-icmp6.o)
                                                  contiki-srf06-cc26xx.a(rpl-ext-header.)
                                                  contiki-srf06-cc26xx.a(rpl-dag.o)
rpl_reset_periodic_timer                          contiki-srf06-cc26xx.a(rpl-timers.o)
                                                  contiki-srf06-cc26xx.a(rpl.o)
rpl_schedule_dao                                  contiki-srf06-cc26xx.a(rpl-timers.o)
                                                  contiki-srf06-cc26xx.a(rpl-dag.o)
rpl_schedule_dao_immediately                      contiki-srf06-cc26xx.a(rpl-timers.o)
                                                  contiki-srf06-cc26xx.a(rpl.o)
rpl_schedule_probing                              contiki-srf06-cc26xx.a(rpl-timers.o)
                                                  contiki-srf06-cc26xx.a(rpl-dag.o)
rpl_schedule_unicast_dio_immediately              contiki-srf06-cc26xx.a(rpl-timers.o)
                                                  contiki-srf06-cc26xx.a(rpl-ext-header.)
rpl_select_dag                                    contiki-srf06-cc26xx.a(rpl-dag.o)
rpl_select_parent                                 contiki-srf06-cc26xx.a(rpl-dag.o)
rpl_set_default_instance                          contiki-srf06-cc26xx.a(rpl-dag.o)
rpl_set_default_route                             contiki-srf06-cc26xx.a(rpl-dag.o)
rpl_set_mode                                      contiki-srf06-cc26xx.a(rpl.o)
rpl_set_prefix                                    contiki-srf06-cc26xx.a(rpl-dag.o)
rpl_set_root                                      contiki-srf06-cc26xx.a(rpl-dag.o)
rpl_update_header                                 contiki-srf06-cc26xx.a(rpl-ext-header.)
                                                  contiki-srf06-cc26xx.a(tcpip.o)
rpl_verify_hbh_header                             contiki-srf06-cc26xx.a(rpl-ext-header.)
                                                  contiki-srf06-cc26xx.a(uip6.o)
rtimer_arch_init                                  contiki-srf06-cc26xx.a(rtimer-arch.o)
                                                  contiki-srf06-cc26xx.a(rtimer.o)
rtimer_arch_now                                   contiki-srf06-cc26xx.a(rtimer-arch.o)
                                                  contiki-srf06-cc26xx.a(contikimac.o)
                                                  contiki-srf06-cc26xx.a(lpm.o)
                                                  contiki-srf06-cc26xx.a(soc-rtc.o)
                                                  contiki-srf06-cc26xx.a(prop-mode.o)
                                                  broadcast-example.co
rtimer_arch_schedule                              contiki-srf06-cc26xx.a(rtimer-arch.o)
                                                  contiki-srf06-cc26xx.a(rtimer.o)
rtimer_init                                       contiki-srf06-cc26xx.a(rtimer.o)
                                                  contiki-srf06-cc26xx.a(contiki-main.o)
rtimer_run_next                                   contiki-srf06-cc26xx.a(rtimer.o)
                                                  contiki-srf06-cc26xx.a(soc-rtc.o)
rtimer_set                                        contiki-srf06-cc26xx.a(rtimer.o)
                                                  contiki-srf06-cc26xx.a(contikimac.o)
rxBuffer                                          broadcast-example.co
sensors                                           contiki-srf06-cc26xx.a(launchpad-senso)
                                                  contiki-srf06-cc26xx.a(sensors.o)
sensors_changed                                   contiki-srf06-cc26xx.a(sensors.o)
                                                  contiki-srf06-cc26xx.a(button-sensor.o)
sensors_event                                     contiki-srf06-cc26xx.a(sensors.o)
sensors_find                                      contiki-srf06-cc26xx.a(sensors.o)
sensors_first                                     contiki-srf06-cc26xx.a(sensors.o)
sensors_flags                                     contiki-srf06-cc26xx.a(launchpad-senso)
                                                  contiki-srf06-cc26xx.a(sensors.o)
sensors_next                                      contiki-srf06-cc26xx.a(sensors.o)
sensors_process                                   contiki-srf06-cc26xx.a(sensors.o)
                                                  contiki-srf06-cc26xx.a(contiki-main.o)
serial_line_event_message                         contiki-srf06-cc26xx.a(serial-line.o)
serial_line_init                                  contiki-srf06-cc26xx.a(serial-line.o)
                                                  contiki-srf06-cc26xx.a(contiki-main.o)
serial_line_input_byte                            contiki-srf06-cc26xx.a(serial-line.o)
serial_line_process                               contiki-srf06-cc26xx.a(serial-line.o)
sicslowpan_driver                                 contiki-srf06-cc26xx.a(sicslowpan.o)
                                                  contiki-srf06-cc26xx.a(nullsec.o)
                                                  contiki-srf06-cc26xx.a(netstack.o)
                                                  contiki-srf06-cc26xx.a(contiki-main.o)
sicslowpan_get_last_rssi                          contiki-srf06-cc26xx.a(sicslowpan.o)
sicslowpan_init                                   contiki-srf06-cc26xx.a(sicslowpan.o)
simple_udp_process                                contiki-srf06-cc26xx.a(simple-udp.o)
simple_udp_register                               contiki-srf06-cc26xx.a(simple-udp.o)
                                                  broadcast-example.co
simple_udp_send                                   contiki-srf06-cc26xx.a(simple-udp.o)
simple_udp_sendto                                 contiki-srf06-cc26xx.a(simple-udp.o)
                                                  broadcast-example.co
simple_udp_sendto_port                            contiki-srf06-cc26xx.a(simple-udp.o)
smartrf_settings_cmd_fs                           contiki-srf06-cc26xx.a(smartrf-setting)
                                                  contiki-srf06-cc26xx.a(prop-mode.o)
smartrf_settings_cmd_prop_radio_div_setup         contiki-srf06-cc26xx.a(smartrf-setting)
                                                  contiki-srf06-cc26xx.a(prop-mode.o)
smartrf_settings_cmd_prop_rx_adv                  contiki-srf06-cc26xx.a(smartrf-setting)
                                                  contiki-srf06-cc26xx.a(prop-mode.o)
smartrf_settings_cmd_prop_tx_adv                  contiki-srf06-cc26xx.a(smartrf-setting)
                                                  contiki-srf06-cc26xx.a(prop-mode.o)
soc_rtc_get_next_trigger                          contiki-srf06-cc26xx.a(soc-rtc.o)
soc_rtc_init                                      contiki-srf06-cc26xx.a(soc-rtc.o)
                                                  contiki-srf06-cc26xx.a(contiki-main.o)
soc_rtc_last_isr_time                             contiki-srf06-cc26xx.a(soc-rtc.o)
                                                  contiki-srf06-cc26xx.a(lpm.o)
soc_rtc_schedule_one_shot                         contiki-srf06-cc26xx.a(soc-rtc.o)
                                                  contiki-srf06-cc26xx.a(lpm.o)
                                                  contiki-srf06-cc26xx.a(rtimer-arch.o)
soc_trng_init                                     contiki-srf06-cc26xx.a(soc-trng.o)
                                                  contiki-srf06-cc26xx.a(random.o)
soc_trng_process                                  contiki-srf06-cc26xx.a(soc-trng.o)
soc_trng_rand_asynchronous                        contiki-srf06-cc26xx.a(soc-trng.o)
soc_trng_rand_synchronous                         contiki-srf06-cc26xx.a(soc-trng.o)
                                                  contiki-srf06-cc26xx.a(random.o)
stats                                             broadcast-example.co
stimer_elapsed                                    contiki-srf06-cc26xx.a(stimer.o)
stimer_expired                                    contiki-srf06-cc26xx.a(stimer.o)
                                                  contiki-srf06-cc26xx.a(uip-ds6-route.o)
                                                  contiki-srf06-cc26xx.a(uip-ds6.o)
stimer_remaining                                  contiki-srf06-cc26xx.a(stimer.o)
stimer_reset                                      contiki-srf06-cc26xx.a(stimer.o)
stimer_restart                                    contiki-srf06-cc26xx.a(stimer.o)
stimer_set                                        contiki-srf06-cc26xx.a(stimer.o)
                                                  contiki-srf06-cc26xx.a(uip-ds6-route.o)
                                                  contiki-srf06-cc26xx.a(uip-ds6.o)
str3toint                                         broadcast-example.co
strlen                                            /home/user/CodeSourcery/Sourcery_G++_Lite/bin/../lib/gcc/arm-none-eabi/4.3.2/../../../../arm-none-eabi/lib/thumb2/libc.a(lib_a-strlen.o)
                                                  contiki-srf06-cc26xx.a(rf-ble.o)
                                                  contiki-srf06-cc26xx.a(putchar.o)
                                                  contiki-srf06-cc26xx.a(sensors.o)
strncmp                                           /home/user/CodeSourcery/Sourcery_G++_Lite/bin/../lib/gcc/arm-none-eabi/4.3.2/../../../../arm-none-eabi/lib/thumb2/libc.a(lib_a-strncmp.o)
                                                  contiki-srf06-cc26xx.a(sensors.o)
sum16                                             broadcast-example.co
tcp_attach                                        contiki-srf06-cc26xx.a(tcpip.o)
tcp_connect                                       contiki-srf06-cc26xx.a(tcpip.o)
tcp_listen                                        contiki-srf06-cc26xx.a(tcpip.o)
tcp_unlisten                                      contiki-srf06-cc26xx.a(tcpip.o)
tcpip_event                                       contiki-srf06-cc26xx.a(tcpip.o)
                                                  contiki-srf06-cc26xx.a(simple-udp.o)
tcpip_icmp6_call                                  contiki-srf06-cc26xx.a(tcpip.o)
                                                  contiki-srf06-cc26xx.a(uip6.o)
tcpip_icmp6_event                                 contiki-srf06-cc26xx.a(tcpip.o)
tcpip_input                                       contiki-srf06-cc26xx.a(tcpip.o)
                                                  contiki-srf06-cc26xx.a(sicslowpan.o)
tcpip_ipv6_output                                 contiki-srf06-cc26xx.a(tcpip.o)
                                                  contiki-srf06-cc26xx.a(uip-udp-packet.)
                                                  contiki-srf06-cc26xx.a(uip-icmp6.o)
tcpip_output                                      contiki-srf06-cc26xx.a(tcpip.o)
tcpip_poll_tcp                                    contiki-srf06-cc26xx.a(tcpip.o)
tcpip_poll_udp                                    contiki-srf06-cc26xx.a(tcpip.o)
tcpip_process                                     contiki-srf06-cc26xx.a(tcpip.o)
                                                  contiki-srf06-cc26xx.a(contiki-main.o)
tcpip_set_outputfunc                              contiki-srf06-cc26xx.a(tcpip.o)
                                                  contiki-srf06-cc26xx.a(sicslowpan.o)
tcpip_uipcall                                     contiki-srf06-cc26xx.a(tcpip.o)
                                                  contiki-srf06-cc26xx.a(uip6.o)
temps                                             broadcast-example.co
timer_expired                                     contiki-srf06-cc26xx.a(timer.o)
                                                  contiki-srf06-cc26xx.a(sicslowpan.o)
                                                  contiki-srf06-cc26xx.a(etimer.o)
                                                  contiki-srf06-cc26xx.a(button-sensor.o)
timer_remaining                                   contiki-srf06-cc26xx.a(timer.o)
timer_reset                                       contiki-srf06-cc26xx.a(timer.o)
                                                  contiki-srf06-cc26xx.a(etimer.o)
timer_restart                                     contiki-srf06-cc26xx.a(timer.o)
                                                  contiki-srf06-cc26xx.a(etimer.o)
timer_set                                         contiki-srf06-cc26xx.a(timer.o)
                                                  contiki-srf06-cc26xx.a(sicslowpan.o)
                                                  contiki-srf06-cc26xx.a(etimer.o)
                                                  contiki-srf06-cc26xx.a(button-sensor.o)
txBuffer                                          broadcast-example.co
tx_power_current                                  contiki-srf06-cc26xx.a(prop-mode.o)
uDMAErrIntHandler                                 obj_srf06-cc26xx/startup_gcc.o
uDMAIntHandler                                    obj_srf06-cc26xx/startup_gcc.o
udp_attach                                        contiki-srf06-cc26xx.a(tcpip.o)
udp_broadcast_new                                 contiki-srf06-cc26xx.a(tcpip.o)
udp_new                                           contiki-srf06-cc26xx.a(tcpip.o)
                                                  contiki-srf06-cc26xx.a(simple-udp.o)
uip_acc32                                         contiki-srf06-cc26xx.a(uip6.o)
uip_add32                                         contiki-srf06-cc26xx.a(uip6.o)
uip_aligned_buf                                   contiki-srf06-cc26xx.a(rpl-nbr-policy.)
                                                  contiki-srf06-cc26xx.a(rpl-icmp6.o)
                                                  contiki-srf06-cc26xx.a(rpl-ext-header.)
                                                  contiki-srf06-cc26xx.a(uip-udp-packet.)
                                                  contiki-srf06-cc26xx.a(tcpip.o)
                                                  contiki-srf06-cc26xx.a(simple-udp.o)
                                                  contiki-srf06-cc26xx.a(uip-nd6.o)
                                                  contiki-srf06-cc26xx.a(uip-icmp6.o)
                                                  contiki-srf06-cc26xx.a(uip6.o)
                                                  contiki-srf06-cc26xx.a(sicslowpan.o)
uip_appdata                                       contiki-srf06-cc26xx.a(simple-udp.o)
                                                  contiki-srf06-cc26xx.a(uip6.o)
uip_chksum                                        contiki-srf06-cc26xx.a(uip6.o)
uip_conn                                          contiki-srf06-cc26xx.a(tcpip.o)
                                                  contiki-srf06-cc26xx.a(uip6.o)
uip_connect                                       contiki-srf06-cc26xx.a(uip6.o)
                                                  contiki-srf06-cc26xx.a(tcpip.o)
uip_conns                                         contiki-srf06-cc26xx.a(tcpip.o)
                                                  contiki-srf06-cc26xx.a(uip6.o)
uip_debug_ipaddr_print                            contiki-srf06-cc26xx.a(uip-debug.o)
                                                  contiki-srf06-cc26xx.a(uip-ds6-route.o)
uip_ds6_aaddr_add                                 contiki-srf06-cc26xx.a(uip-ds6.o)
uip_ds6_aaddr_lookup                              contiki-srf06-cc26xx.a(uip-ds6.o)
uip_ds6_aaddr_rm                                  contiki-srf06-cc26xx.a(uip-ds6.o)
uip_ds6_addr_add                                  contiki-srf06-cc26xx.a(uip-ds6.o)
                                                  contiki-srf06-cc26xx.a(rpl-dag.o)
uip_ds6_addr_lookup                               contiki-srf06-cc26xx.a(uip-ds6.o)
                                                  contiki-srf06-cc26xx.a(rpl-ext-header.)
                                                  contiki-srf06-cc26xx.a(rpl-dag.o)
                                                  contiki-srf06-cc26xx.a(uip-nd6.o)
                                                  contiki-srf06-cc26xx.a(uip6.o)
uip_ds6_addr_rm                                   contiki-srf06-cc26xx.a(uip-ds6.o)
                                                  contiki-srf06-cc26xx.a(rpl-dag.o)
uip_ds6_addr_size                                 contiki-srf06-cc26xx.a(uip-ds6.o)
uip_ds6_compute_reachable_time                    contiki-srf06-cc26xx.a(uip-ds6.o)
uip_ds6_defrt_add                                 contiki-srf06-cc26xx.a(uip-ds6-route.o)
                                                  contiki-srf06-cc26xx.a(rpl-dag.o)
uip_ds6_defrt_choose                              contiki-srf06-cc26xx.a(uip-ds6-route.o)
                                                  contiki-srf06-cc26xx.a(tcpip.o)
uip_ds6_defrt_head                                contiki-srf06-cc26xx.a(uip-ds6-route.o)
uip_ds6_defrt_lookup                              contiki-srf06-cc26xx.a(uip-ds6-route.o)
uip_ds6_defrt_periodic                            contiki-srf06-cc26xx.a(uip-ds6-route.o)
                                                  contiki-srf06-cc26xx.a(uip-ds6.o)
uip_ds6_defrt_rm                                  contiki-srf06-cc26xx.a(uip-ds6-route.o)
                                                  contiki-srf06-cc26xx.a(rpl-dag.o)
uip_ds6_get_global                                contiki-srf06-cc26xx.a(uip-ds6.o)
uip_ds6_get_link_local                            contiki-srf06-cc26xx.a(uip-ds6.o)
                                                  contiki-srf06-cc26xx.a(rpl-timers.o)
uip_ds6_if                                        contiki-srf06-cc26xx.a(rpl-icmp6.o)
                                                  contiki-srf06-cc26xx.a(rpl-ext-header.)
                                                  contiki-srf06-cc26xx.a(uip-icmp6.o)
                                                  contiki-srf06-cc26xx.a(uip-ds6.o)
                                                  contiki-srf06-cc26xx.a(uip6.o)
uip_ds6_init                                      contiki-srf06-cc26xx.a(uip-ds6.o)
                                                  contiki-srf06-cc26xx.a(uip6.o)
uip_ds6_is_addr_onlink                            contiki-srf06-cc26xx.a(uip-ds6.o)
                                                  contiki-srf06-cc26xx.a(tcpip.o)
                                                  contiki-srf06-cc26xx.a(uip6.o)
uip_ds6_link_neighbor_callback                    contiki-srf06-cc26xx.a(uip-ds6-nbr.o)
                                                  contiki-srf06-cc26xx.a(sicslowpan.o)
uip_ds6_list_loop                                 contiki-srf06-cc26xx.a(uip-ds6.o)
uip_ds6_maddr_add                                 contiki-srf06-cc26xx.a(uip-ds6.o)
                                                  contiki-srf06-cc26xx.a(rpl.o)
uip_ds6_maddr_lookup                              contiki-srf06-cc26xx.a(uip-ds6.o)
                                                  contiki-srf06-cc26xx.a(uip6.o)
uip_ds6_maddr_rm                                  contiki-srf06-cc26xx.a(uip-ds6.o)
uip_ds6_nbr_add                                   contiki-srf06-cc26xx.a(uip-ds6-nbr.o)
                                                  contiki-srf06-cc26xx.a(rpl-icmp6.o)
                                                  contiki-srf06-cc26xx.a(uip-nd6.o)
uip_ds6_nbr_get_ipaddr                            contiki-srf06-cc26xx.a(uip-ds6-nbr.o)
uip_ds6_nbr_get_ll                                contiki-srf06-cc26xx.a(uip-ds6-nbr.o)
                                                  contiki-srf06-cc26xx.a(rpl-dag.o)
                                                  contiki-srf06-cc26xx.a(tcpip.o)
                                                  contiki-srf06-cc26xx.a(uip-nd6.o)
uip_ds6_nbr_ipaddr_from_lladdr                    contiki-srf06-cc26xx.a(uip-ds6-nbr.o)
                                                  contiki-srf06-cc26xx.a(rpl-dag.o)
                                                  contiki-srf06-cc26xx.a(uip-ds6-route.o)
uip_ds6_nbr_ll_lookup                             contiki-srf06-cc26xx.a(uip-ds6-nbr.o)
uip_ds6_nbr_lladdr_from_ipaddr                    contiki-srf06-cc26xx.a(uip-ds6-nbr.o)
                                                  contiki-srf06-cc26xx.a(rpl-dag.o)
                                                  contiki-srf06-cc26xx.a(uip-ds6-route.o)
uip_ds6_nbr_lookup                                contiki-srf06-cc26xx.a(uip-ds6-nbr.o)
                                                  contiki-srf06-cc26xx.a(rpl-icmp6.o)
                                                  contiki-srf06-cc26xx.a(rpl-dag.o)
                                                  contiki-srf06-cc26xx.a(tcpip.o)
                                                  contiki-srf06-cc26xx.a(uip-nd6.o)
                                                  contiki-srf06-cc26xx.a(uip-ds6-route.o)
uip_ds6_nbr_num                                   contiki-srf06-cc26xx.a(uip-ds6-nbr.o)
                                                  contiki-srf06-cc26xx.a(rpl-dag.o)
uip_ds6_nbr_rm                                    contiki-srf06-cc26xx.a(uip-ds6-nbr.o)
uip_ds6_neighbors_init                            contiki-srf06-cc26xx.a(uip-ds6-nbr.o)
                                                  contiki-srf06-cc26xx.a(uip-ds6.o)
uip_ds6_netif_addr_list_offset                    contiki-srf06-cc26xx.a(uip-ds6.o)
uip_ds6_notification_add                          contiki-srf06-cc26xx.a(uip-ds6-route.o)
uip_ds6_notification_rm                           contiki-srf06-cc26xx.a(uip-ds6-route.o)
uip_ds6_periodic                                  contiki-srf06-cc26xx.a(uip-ds6.o)
                                                  contiki-srf06-cc26xx.a(tcpip.o)
uip_ds6_prefix_add                                contiki-srf06-cc26xx.a(uip-ds6.o)
uip_ds6_prefix_list                               contiki-srf06-cc26xx.a(uip-ds6.o)
uip_ds6_prefix_lookup                             contiki-srf06-cc26xx.a(uip-ds6.o)
uip_ds6_prefix_rm                                 contiki-srf06-cc26xx.a(uip-ds6.o)
uip_ds6_route_add                                 contiki-srf06-cc26xx.a(uip-ds6-route.o)
                                                  contiki-srf06-cc26xx.a(rpl.o)
uip_ds6_route_head                                contiki-srf06-cc26xx.a(uip-ds6-route.o)
                                                  contiki-srf06-cc26xx.a(rpl.o)
uip_ds6_route_init                                contiki-srf06-cc26xx.a(uip-ds6-route.o)
                                                  contiki-srf06-cc26xx.a(uip-ds6.o)
uip_ds6_route_is_nexthop                          contiki-srf06-cc26xx.a(uip-ds6-route.o)
                                                  contiki-srf06-cc26xx.a(rpl-nbr-policy.)
                                                  contiki-srf06-cc26xx.a(rpl-dag.o)
uip_ds6_route_lookup                              contiki-srf06-cc26xx.a(uip-ds6-route.o)
                                                  contiki-srf06-cc26xx.a(rpl-icmp6.o)
                                                  contiki-srf06-cc26xx.a(rpl-ext-header.)
                                                  contiki-srf06-cc26xx.a(tcpip.o)
uip_ds6_route_next                                contiki-srf06-cc26xx.a(uip-ds6-route.o)
                                                  contiki-srf06-cc26xx.a(rpl.o)
uip_ds6_route_nexthop                             contiki-srf06-cc26xx.a(uip-ds6-route.o)
                                                  contiki-srf06-cc26xx.a(rpl-icmp6.o)
                                                  contiki-srf06-cc26xx.a(rpl.o)
                                                  contiki-srf06-cc26xx.a(tcpip.o)
uip_ds6_route_num_routes                          contiki-srf06-cc26xx.a(uip-ds6-route.o)
uip_ds6_route_rm                                  contiki-srf06-cc26xx.a(uip-ds6-route.o)
                                                  contiki-srf06-cc26xx.a(rpl-ext-header.)
                                                  contiki-srf06-cc26xx.a(rpl.o)
                                                  contiki-srf06-cc26xx.a(tcpip.o)
uip_ds6_route_rm_by_nexthop                       contiki-srf06-cc26xx.a(uip-ds6-route.o)
uip_ds6_select_src                                contiki-srf06-cc26xx.a(uip-ds6.o)
                                                  contiki-srf06-cc26xx.a(uip-icmp6.o)
                                                  contiki-srf06-cc26xx.a(uip6.o)
uip_ds6_set_addr_iid                              contiki-srf06-cc26xx.a(uip-ds6.o)
                                                  contiki-srf06-cc26xx.a(rpl-dag.o)
                                                  contiki-srf06-cc26xx.a(rpl.o)
                                                  contiki-srf06-cc26xx.a(sicslowpan.o)
uip_ds6_timer_periodic                            contiki-srf06-cc26xx.a(tcpip.o)
                                                  contiki-srf06-cc26xx.a(uip-ds6.o)
uip_ds6_timer_ra                                  contiki-srf06-cc26xx.a(uip-ds6.o)
uip_ext_bitmap                                    contiki-srf06-cc26xx.a(uip6.o)
uip_ext_len                                       contiki-srf06-cc26xx.a(uip6.o)
                                                  contiki-srf06-cc26xx.a(rpl-icmp6.o)
                                                  contiki-srf06-cc26xx.a(rpl-ext-header.)
                                                  contiki-srf06-cc26xx.a(tcpip.o)
                                                  contiki-srf06-cc26xx.a(uip-nd6.o)
                                                  contiki-srf06-cc26xx.a(uip-icmp6.o)
uip_ext_opt_offset                                contiki-srf06-cc26xx.a(uip6.o)
uip_flags                                         contiki-srf06-cc26xx.a(tcpip.o)
                                                  contiki-srf06-cc26xx.a(simple-udp.o)
                                                  contiki-srf06-cc26xx.a(uip6.o)
uip_htonl                                         contiki-srf06-cc26xx.a(uip6.o)
                                                  contiki-srf06-cc26xx.a(uip-icmp6.o)
uip_htons                                         contiki-srf06-cc26xx.a(uip6.o)
uip_icmp6_conns                                   contiki-srf06-cc26xx.a(tcpip.o)
                                                  contiki-srf06-cc26xx.a(uip6.o)
uip_icmp6_echo_reply_callback_add                 contiki-srf06-cc26xx.a(uip-icmp6.o)
uip_icmp6_echo_reply_callback_rm                  contiki-srf06-cc26xx.a(uip-icmp6.o)
uip_icmp6_error_output                            contiki-srf06-cc26xx.a(uip-icmp6.o)
                                                  contiki-srf06-cc26xx.a(uip6.o)
uip_icmp6_init                                    contiki-srf06-cc26xx.a(uip-icmp6.o)
                                                  contiki-srf06-cc26xx.a(uip6.o)
uip_icmp6_input                                   contiki-srf06-cc26xx.a(uip-icmp6.o)
                                                  contiki-srf06-cc26xx.a(uip6.o)
uip_icmp6_register_input_handler                  contiki-srf06-cc26xx.a(uip-icmp6.o)
                                                  contiki-srf06-cc26xx.a(rpl-icmp6.o)
                                                  contiki-srf06-cc26xx.a(uip-nd6.o)
uip_icmp6_send                                    contiki-srf06-cc26xx.a(uip-icmp6.o)
                                                  contiki-srf06-cc26xx.a(rpl-icmp6.o)
uip_icmp6chksum                                   contiki-srf06-cc26xx.a(uip6.o)
                                                  contiki-srf06-cc26xx.a(uip-nd6.o)
                                                  contiki-srf06-cc26xx.a(uip-icmp6.o)
uip_init                                          contiki-srf06-cc26xx.a(uip6.o)
                                                  contiki-srf06-cc26xx.a(tcpip.o)
uip_ipchksum                                      contiki-srf06-cc26xx.a(uip6.o)
uip_len                                           contiki-srf06-cc26xx.a(rpl-icmp6.o)
                                                  contiki-srf06-cc26xx.a(rpl-ext-header.)
                                                  contiki-srf06-cc26xx.a(tcpip.o)
                                                  contiki-srf06-cc26xx.a(simple-udp.o)
                                                  contiki-srf06-cc26xx.a(uip-nd6.o)
                                                  contiki-srf06-cc26xx.a(uip-icmp6.o)
                                                  contiki-srf06-cc26xx.a(uip6.o)
                                                  contiki-srf06-cc26xx.a(sicslowpan.o)
uip_listen                                        contiki-srf06-cc26xx.a(uip6.o)
                                                  contiki-srf06-cc26xx.a(tcpip.o)
uip_listenports                                   contiki-srf06-cc26xx.a(uip6.o)
uip_lladdr                                        contiki-srf06-cc26xx.a(rpl-dag.o)
                                                  contiki-srf06-cc26xx.a(uip-nd6.o)
                                                  contiki-srf06-cc26xx.a(uip-ds6.o)
                                                  contiki-srf06-cc26xx.a(uip6.o)
                                                  contiki-srf06-cc26xx.a(sicslowpan.o)
                                                  contiki-srf06-cc26xx.a(contiki-main.o)
uip_nd6_init                                      contiki-srf06-cc26xx.a(uip-nd6.o)
                                                  contiki-srf06-cc26xx.a(uip6.o)
uip_next_hdr                                      contiki-srf06-cc26xx.a(uip6.o)
uip_process                                       contiki-srf06-cc26xx.a(uip6.o)
                                                  contiki-srf06-cc26xx.a(uip-udp-packet.)
                                                  contiki-srf06-cc26xx.a(tcpip.o)
uip_sappdata                                      contiki-srf06-cc26xx.a(uip6.o)
uip_send                                          contiki-srf06-cc26xx.a(uip6.o)
uip_slen                                          contiki-srf06-cc26xx.a(uip-udp-packet.)
                                                  contiki-srf06-cc26xx.a(uip6.o)
uip_tcpchksum                                     contiki-srf06-cc26xx.a(uip6.o)
uip_udp_conn                                      contiki-srf06-cc26xx.a(uip-udp-packet.)
                                                  contiki-srf06-cc26xx.a(tcpip.o)
                                                  contiki-srf06-cc26xx.a(uip6.o)
uip_udp_conns                                     contiki-srf06-cc26xx.a(tcpip.o)
                                                  contiki-srf06-cc26xx.a(uip6.o)
uip_udp_new                                       contiki-srf06-cc26xx.a(uip6.o)
                                                  contiki-srf06-cc26xx.a(tcpip.o)
uip_udp_packet_send                               contiki-srf06-cc26xx.a(uip-udp-packet.)
uip_udp_packet_sendto                             contiki-srf06-cc26xx.a(uip-udp-packet.)
                                                  contiki-srf06-cc26xx.a(simple-udp.o)
uip_udpchksum                                     contiki-srf06-cc26xx.a(uip6.o)
uip_unlisten                                      contiki-srf06-cc26xx.a(uip6.o)
                                                  contiki-srf06-cc26xx.a(tcpip.o)
unc_ctxconf                                       contiki-srf06-cc26xx.a(sicslowpan.o)
unc_llconf                                        contiki-srf06-cc26xx.a(sicslowpan.o)
unc_mxconf                                        contiki-srf06-cc26xx.a(sicslowpan.o)
var16                                             broadcast-example.co
watchdog_init                                     contiki-srf06-cc26xx.a(contiki-watchdo)
                                                  contiki-srf06-cc26xx.a(contiki-main.o)
watchdog_periodic                                 contiki-srf06-cc26xx.a(contiki-watchdo)
                                                  contiki-srf06-cc26xx.a(contikimac.o)
                                                  contiki-srf06-cc26xx.a(sicslowpan.o)
                                                  contiki-srf06-cc26xx.a(rf-core.o)
                                                  contiki-srf06-cc26xx.a(lpm.o)
                                                  contiki-srf06-cc26xx.a(prop-mode.o)
                                                  contiki-srf06-cc26xx.a(contiki-main.o)
watchdog_reboot                                   contiki-srf06-cc26xx.a(contiki-watchdo)
watchdog_start                                    contiki-srf06-cc26xx.a(contiki-watchdo)
                                                  contiki-srf06-cc26xx.a(contiki-main.o)
watchdog_stop                                     contiki-srf06-cc26xx.a(contiki-watchdo)
