Archive member included because of file (symbol)

contiki-srf06-cc26xx.a(cmd.o)
                              slip-radio.co (cmd_send)
contiki-srf06-cc26xx.a(packetutils.o)
                              slip-radio.co (packetutils_deserialize_atts)
contiki-srf06-cc26xx.a(contiki-main.o)
                              obj_srf06-cc26xx/startup_gcc.o (main)
contiki-srf06-cc26xx.a(sensors.o)
                              contiki-srf06-cc26xx.a(contiki-main.o) (sensors_process)
contiki-srf06-cc26xx.a(leds.o)
                              contiki-srf06-cc26xx.a(contiki-main.o) (leds_off)
contiki-srf06-cc26xx.a(board.o)
                              contiki-srf06-cc26xx.a(contiki-main.o) (board_init)
contiki-srf06-cc26xx.a(launchpad-senso)
                              contiki-srf06-cc26xx.a(sensors.o) (sensors)
contiki-srf06-cc26xx.a(leds-arch.o)
                              contiki-srf06-cc26xx.a(leds.o) (leds_arch_init)
contiki-srf06-cc26xx.a(button-sensor.o)
                              contiki-srf06-cc26xx.a(launchpad-senso) (button_left_sensor)
contiki-srf06-cc26xx.a(ext-flash.o)
                              contiki-srf06-cc26xx.a(board.o) (ext_flash_init)
contiki-srf06-cc26xx.a(board-spi.o)
                              contiki-srf06-cc26xx.a(ext-flash.o) (board_spi_write)
contiki-srf06-cc26xx.a(prop-mode.o)
                              contiki-srf06-cc26xx.a(contiki-main.o) (prop_mode_driver)
contiki-srf06-cc26xx.a(prop-mode-tx-po)
                              contiki-srf06-cc26xx.a(prop-mode.o) (prop_mode_tx_power_779_930)
contiki-srf06-cc26xx.a(clock.o)
                              contiki-srf06-cc26xx.a(contiki-main.o) (clock_init)
contiki-srf06-cc26xx.a(rtimer-arch.o)
                              contiki-srf06-cc26xx.a(prop-mode.o) (rtimer_arch_now)
contiki-srf06-cc26xx.a(soc-rtc.o)
                              contiki-srf06-cc26xx.a(rtimer-arch.o) (soc_rtc_schedule_one_shot)
contiki-srf06-cc26xx.a(contiki-watchdo)
                              contiki-srf06-cc26xx.a(contiki-main.o) (watchdog_periodic)
contiki-srf06-cc26xx.a(putchar.o)
                              contiki-srf06-cc26xx.a(contiki-main.o) (putchar)
contiki-srf06-cc26xx.a(ieee-addr.o)
                              contiki-srf06-cc26xx.a(contiki-main.o) (ieee_addr_cpy_to)
contiki-srf06-cc26xx.a(slip-arch.o)
                              slip-radio.co (slip_arch_init)
contiki-srf06-cc26xx.a(slip.o)
                              slip-radio.co (slip_set_input_callback)
contiki-srf06-cc26xx.a(cc26xx-uart.o)
                              contiki-srf06-cc26xx.a(putchar.o) (cc26xx_uart_write_byte)
contiki-srf06-cc26xx.a(lpm.o)
                              contiki-srf06-cc26xx.a(prop-mode.o) (lpm_sleep)
contiki-srf06-cc26xx.a(gpio-interrupt.)
                              contiki-srf06-cc26xx.a(contiki-main.o) (gpio_interrupt_init)
contiki-srf06-cc26xx.a(oscillators.o)
                              contiki-srf06-cc26xx.a(prop-mode.o) (oscillators_request_hf_xosc)
contiki-srf06-cc26xx.a(rf-core.o)
                              contiki-srf06-cc26xx.a(prop-mode.o) (rf_core_is_accessible)
contiki-srf06-cc26xx.a(rf-ble.o)
                              contiki-srf06-cc26xx.a(prop-mode.o) (rf_ble_is_active)
contiki-srf06-cc26xx.a(random.o)
                              contiki-srf06-cc26xx.a(contiki-main.o) (random_init)
contiki-srf06-cc26xx.a(soc-trng.o)
                              contiki-srf06-cc26xx.a(random.o) (soc_trng_init)
contiki-srf06-cc26xx.a(dbg-printf.o)
                              slip-radio.co (printf)
contiki-srf06-cc26xx.a(strformat.o)
                              contiki-srf06-cc26xx.a(dbg-printf.o) (format_str_v)
contiki-srf06-cc26xx.a(http-socket.o)
                              slip-radio.co (http_socket_get)
contiki-srf06-cc26xx.a(autostart.o)
                              contiki-srf06-cc26xx.a(contiki-main.o) (autostart_start)
contiki-srf06-cc26xx.a(ctimer.o)
                              contiki-srf06-cc26xx.a(contiki-main.o) (ctimer_init)
contiki-srf06-cc26xx.a(energest.o)
                              contiki-srf06-cc26xx.a(contiki-main.o) (energest_init)
contiki-srf06-cc26xx.a(etimer.o)
                              slip-radio.co (etimer_expired)
contiki-srf06-cc26xx.a(process.o)
                              contiki-srf06-cc26xx.a(sensors.o) (process_alloc_event)
contiki-srf06-cc26xx.a(rtimer.o)
                              contiki-srf06-cc26xx.a(soc-rtc.o) (rtimer_run_next)
contiki-srf06-cc26xx.a(timer.o)
                              contiki-srf06-cc26xx.a(etimer.o) (timer_reset)
contiki-srf06-cc26xx.a(serial-line.o)
                              contiki-srf06-cc26xx.a(contiki-main.o) (serial_line_init)
contiki-srf06-cc26xx.a(list.o)
                              contiki-srf06-cc26xx.a(lpm.o) (list_init)
contiki-srf06-cc26xx.a(ringbuf.o)
                              contiki-srf06-cc26xx.a(serial-line.o) (ringbuf_init)
contiki-srf06-cc26xx.a(uip6.o)
                              slip-radio.co (uip_aligned_buf)
contiki-srf06-cc26xx.a(uip-ds6.o)
                              contiki-srf06-cc26xx.a(uip6.o) (uip_ds6_if)
contiki-srf06-cc26xx.a(uip-ds6-nbr.o)
                              contiki-srf06-cc26xx.a(uip6.o) (uip_ds6_nbr_refresh_reachable_state)
contiki-srf06-cc26xx.a(uip-ds6-route.o)
                              contiki-srf06-cc26xx.a(uip-ds6.o) (uip_ds6_defrt_choose)
contiki-srf06-cc26xx.a(uip-icmp6.o)
                              contiki-srf06-cc26xx.a(uip6.o) (uip_icmp6_input)
contiki-srf06-cc26xx.a(uip-nd6.o)
                              contiki-srf06-cc26xx.a(uip6.o) (uip_nd6_init)
contiki-srf06-cc26xx.a(ip64-addr.o)
                              slip-radio.co (ip64_addr_4to6)
contiki-srf06-cc26xx.a(resolv.o)
                              contiki-srf06-cc26xx.a(http-socket.o) (resolv_event_found)
contiki-srf06-cc26xx.a(tcpip.o)
                              contiki-srf06-cc26xx.a(uip6.o) (tcpip_uipcall)
contiki-srf06-cc26xx.a(tcp-socket.o)
                              contiki-srf06-cc26xx.a(http-socket.o) (tcp_socket_close)
contiki-srf06-cc26xx.a(uip-debug.o)
                              contiki-srf06-cc26xx.a(uip-ds6-route.o) (uip_debug_ipaddr_print)
contiki-srf06-cc26xx.a(uiplib.o)
                              contiki-srf06-cc26xx.a(http-socket.o) (uiplib_ip4addrconv)
contiki-srf06-cc26xx.a(uip-nameserver.)
                              slip-radio.co (uip_nameserver_update)
contiki-srf06-cc26xx.a(uip-udp-packet.)
                              contiki-srf06-cc26xx.a(resolv.o) (uip_udp_packet_sendto)
contiki-srf06-cc26xx.a(adi.o)
                              contiki-srf06-cc26xx.a(oscillators.o) (SafeHapiVoid)
contiki-srf06-cc26xx.a(aon_rtc.o)
                              contiki-srf06-cc26xx.a(rtimer-arch.o) (NOROM_AONRTCCurrentCompareValueGet)
contiki-srf06-cc26xx.a(chipinfo.o)
                              contiki-srf06-cc26xx.a(contiki-main.o) (NOROM_ChipInfo_GetSupportedProtocol_BV)
contiki-srf06-cc26xx.a(cpu.o)
                              contiki-srf06-cc26xx.a(contiki-main.o) (NOROM_CPUcpsid)
contiki-srf06-cc26xx.a(osc.o)
                              contiki-srf06-cc26xx.a(oscillators.o) (NOROM_OSCClockSourceSet)
contiki-srf06-cc26xx.a(pwr_ctrl.o)
                              contiki-srf06-cc26xx.a(lpm.o) (NOROM_PowerCtrlSourceSet)
contiki-srf06-cc26xx.a(rfc.o)
                              contiki-srf06-cc26xx.a(prop-mode.o) (NOROM_RFCRTrim)
contiki-srf06-cc26xx.a(setup.o)
                              obj_srf06-cc26xx/startup_gcc.o (NOROM_SetupTrimDevice)
contiki-srf06-cc26xx.a(setup_rom.o)
                              contiki-srf06-cc26xx.a(setup.o) (NOROM_SetupAfterColdResetWakeupFromShutDownCfg1)
contiki-srf06-cc26xx.a(sys_ctrl.o)
                              contiki-srf06-cc26xx.a(lpm.o) (NOROM_SysCtrl_DCDC_VoltageConditionalControl)
contiki-srf06-cc26xx.a(trng.o)
                              contiki-srf06-cc26xx.a(soc-trng.o) (NOROM_TRNGConfigure)
contiki-srf06-cc26xx.a(linkaddr.o)
                              contiki-srf06-cc26xx.a(uip-ds6-nbr.o) (linkaddr_cmp)
contiki-srf06-cc26xx.a(link-stats.o)
                              contiki-srf06-cc26xx.a(uip-ds6-nbr.o) (link_stats_init)
contiki-srf06-cc26xx.a(nbr-table.o)
                              contiki-srf06-cc26xx.a(uip-ds6-nbr.o) (nbr_table_register)
contiki-srf06-cc26xx.a(netstack.o)
                              contiki-srf06-cc26xx.a(contiki-main.o) (netstack_init)
contiki-srf06-cc26xx.a(packetbuf.o)
                              slip-radio.co (packetbuf_set_datalen)
contiki-srf06-cc26xx.a(queuebuf.o)
                              contiki-srf06-cc26xx.a(contiki-main.o) (queuebuf_init)
contiki-srf06-cc26xx.a(frame802154.o)
                              obj_srf06-cc26xx/no-framer.o (frame802154_parse)
contiki-srf06-cc26xx.a(nullmac.o)
                              contiki-srf06-cc26xx.a(contiki-main.o) (nullmac_driver)
contiki-srf06-cc26xx.a(contikimac.o)
                              slip-radio.co (contikimac_driver)
contiki-srf06-cc26xx.a(nullsec.o)
                              slip-radio.co (nullsec_driver)
contiki-srf06-cc26xx.a(smartrf-setting)
                              contiki-srf06-cc26xx.a(prop-mode.o) (smartrf_settings_cmd_prop_radio_div_setup)
contiki-srf06-cc26xx.a(aux-ctrl.o)
                              contiki-srf06-cc26xx.a(lpm.o) (aux_ctrl_power_down)
contiki-srf06-cc26xx.a(dbg-sprintf.o)
                              contiki-srf06-cc26xx.a(http-socket.o) (sprintf)
contiki-srf06-cc26xx.a(stimer.o)
                              contiki-srf06-cc26xx.a(uip-ds6-nbr.o) (stimer_remaining)
contiki-srf06-cc26xx.a(memb.o)
                              contiki-srf06-cc26xx.a(uip-ds6-route.o) (memb_alloc)
contiki-srf06-cc26xx.a(aon_batmon.o)
                              contiki-srf06-cc26xx.a(osc.o) (NOROM_AONBatMonTemperatureGetDegC)
contiki-srf06-cc26xx.a(ddi.o)
                              contiki-srf06-cc26xx.a(setup_rom.o) (NOROM_DDI32RegWrite)
contiki-srf06-cc26xx.a(mac.o)
                              contiki-srf06-cc26xx.a(contikimac.o) (mac_call_sent_callback)
contiki-srf06-cc26xx.a(mac-sequence.o)
                              contiki-srf06-cc26xx.a(contikimac.o) (mac_sequence_is_duplicate)
/home/user/CodeSourcery/Sourcery_G++_Lite/bin/../lib/gcc/arm-none-eabi/4.3.2/thumb2/libgcc.a(_aeabi_uldivmod.o)
                              contiki-srf06-cc26xx.a(strformat.o) (__aeabi_uldivmod)
/home/user/CodeSourcery/Sourcery_G++_Lite/bin/../lib/gcc/arm-none-eabi/4.3.2/thumb2/libgcc.a(bpabi.o)
                              /home/user/CodeSourcery/Sourcery_G++_Lite/bin/../lib/gcc/arm-none-eabi/4.3.2/thumb2/libgcc.a(_aeabi_uldivmod.o) (__gnu_uldivmod_helper)
/home/user/CodeSourcery/Sourcery_G++_Lite/bin/../lib/gcc/arm-none-eabi/4.3.2/thumb2/libgcc.a(_dvmd_tls.o)
                              /home/user/CodeSourcery/Sourcery_G++_Lite/bin/../lib/gcc/arm-none-eabi/4.3.2/thumb2/libgcc.a(_aeabi_uldivmod.o) (__aeabi_ldiv0)
/home/user/CodeSourcery/Sourcery_G++_Lite/bin/../lib/gcc/arm-none-eabi/4.3.2/thumb2/libgcc.a(_divdi3.o)
                              /home/user/CodeSourcery/Sourcery_G++_Lite/bin/../lib/gcc/arm-none-eabi/4.3.2/thumb2/libgcc.a(bpabi.o) (__divdi3)
/home/user/CodeSourcery/Sourcery_G++_Lite/bin/../lib/gcc/arm-none-eabi/4.3.2/thumb2/libgcc.a(_udivdi3.o)
                              /home/user/CodeSourcery/Sourcery_G++_Lite/bin/../lib/gcc/arm-none-eabi/4.3.2/thumb2/libgcc.a(bpabi.o) (__udivdi3)
/home/user/CodeSourcery/Sourcery_G++_Lite/bin/../lib/gcc/arm-none-eabi/4.3.2/thumb2/libgcc.a(_udivsi3.o)
                              /home/user/CodeSourcery/Sourcery_G++_Lite/bin/../lib/gcc/arm-none-eabi/4.3.2/thumb2/libgcc.a(_divdi3.o) (__aeabi_uidiv)
/home/user/CodeSourcery/Sourcery_G++_Lite/bin/../lib/gcc/arm-none-eabi/4.3.2/thumb2/libgcc.a(_clz.o)
                              /home/user/CodeSourcery/Sourcery_G++_Lite/bin/../lib/gcc/arm-none-eabi/4.3.2/thumb2/libgcc.a(_divdi3.o) (__clz_tab)
/home/user/CodeSourcery/Sourcery_G++_Lite/bin/../lib/gcc/arm-none-eabi/4.3.2/../../../../arm-none-eabi/lib/thumb2/libc.a(lib_a-ctype_.o)
                              contiki-srf06-cc26xx.a(http-socket.o) (__ctype_ptr__)
/home/user/CodeSourcery/Sourcery_G++_Lite/bin/../lib/gcc/arm-none-eabi/4.3.2/../../../../arm-none-eabi/lib/thumb2/libc.a(lib_a-memchr.o)
                              contiki-srf06-cc26xx.a(http-socket.o) (memchr)
/home/user/CodeSourcery/Sourcery_G++_Lite/bin/../lib/gcc/arm-none-eabi/4.3.2/../../../../arm-none-eabi/lib/thumb2/libc.a(lib_a-memcmp.o)
                              contiki-srf06-cc26xx.a(uip6.o) (memcmp)
/home/user/CodeSourcery/Sourcery_G++_Lite/bin/../lib/gcc/arm-none-eabi/4.3.2/../../../../arm-none-eabi/lib/thumb2/libc.a(lib_a-memcpy.o)
                              slip-radio.co (memcpy)
/home/user/CodeSourcery/Sourcery_G++_Lite/bin/../lib/gcc/arm-none-eabi/4.3.2/../../../../arm-none-eabi/lib/thumb2/libc.a(lib_a-memmove.o)
                              contiki-srf06-cc26xx.a(uip6.o) (memmove)
/home/user/CodeSourcery/Sourcery_G++_Lite/bin/../lib/gcc/arm-none-eabi/4.3.2/../../../../arm-none-eabi/lib/thumb2/libc.a(lib_a-memset.o)
                              contiki-srf06-cc26xx.a(prop-mode.o) (memset)
/home/user/CodeSourcery/Sourcery_G++_Lite/bin/../lib/gcc/arm-none-eabi/4.3.2/../../../../arm-none-eabi/lib/thumb2/libc.a(lib_a-strcasecmp.o)
                              contiki-srf06-cc26xx.a(resolv.o) (strcasecmp)
/home/user/CodeSourcery/Sourcery_G++_Lite/bin/../lib/gcc/arm-none-eabi/4.3.2/../../../../arm-none-eabi/lib/thumb2/libc.a(lib_a-strcmp.o)
                              contiki-srf06-cc26xx.a(http-socket.o) (strcmp)
/home/user/CodeSourcery/Sourcery_G++_Lite/bin/../lib/gcc/arm-none-eabi/4.3.2/../../../../arm-none-eabi/lib/thumb2/libc.a(lib_a-strlen.o)
                              contiki-srf06-cc26xx.a(sensors.o) (strlen)
/home/user/CodeSourcery/Sourcery_G++_Lite/bin/../lib/gcc/arm-none-eabi/4.3.2/../../../../arm-none-eabi/lib/thumb2/libc.a(lib_a-strncasecmp.o)
                              contiki-srf06-cc26xx.a(resolv.o) (strncasecmp)
/home/user/CodeSourcery/Sourcery_G++_Lite/bin/../lib/gcc/arm-none-eabi/4.3.2/../../../../arm-none-eabi/lib/thumb2/libc.a(lib_a-strncat.o)
                              contiki-srf06-cc26xx.a(resolv.o) (strncat)
/home/user/CodeSourcery/Sourcery_G++_Lite/bin/../lib/gcc/arm-none-eabi/4.3.2/../../../../arm-none-eabi/lib/thumb2/libc.a(lib_a-strncmp.o)
                              contiki-srf06-cc26xx.a(sensors.o) (strncmp)
/home/user/CodeSourcery/Sourcery_G++_Lite/bin/../lib/gcc/arm-none-eabi/4.3.2/../../../../arm-none-eabi/lib/thumb2/libc.a(lib_a-strncpy.o)
                              contiki-srf06-cc26xx.a(http-socket.o) (strncpy)

Allocating common symbols
Common symbol       size              file

uip_ds6_if          0xc0              contiki-srf06-cc26xx.a(uip-ds6.o)
resolv_event_found  0x1               contiki-srf06-cc26xx.a(resolv.o)
uip_ds6_netif_addr_list_offset
                    0x1               contiki-srf06-cc26xx.a(uip-ds6.o)
uip_len             0x2               contiki-srf06-cc26xx.a(uip6.o)
slip_active         0x1               contiki-srf06-cc26xx.a(slip.o)
uip_ds6_addr_size   0x1               contiki-srf06-cc26xx.a(uip-ds6.o)
uip_sappdata        0x4               contiki-srf06-cc26xx.a(uip6.o)
packetbuf_addrs     0x10              contiki-srf06-cc26xx.a(packetbuf.o)
uip_acc32           0x4               contiki-srf06-cc26xx.a(uip6.o)
uip_ds6_prefix_list
                    0x60              contiki-srf06-cc26xx.a(uip-ds6.o)
uip_lladdr          0x8               contiki-srf06-cc26xx.a(uip6.o)
uip_aligned_buf     0x8c              contiki-srf06-cc26xx.a(uip6.o)
uip_flags           0x1               contiki-srf06-cc26xx.a(uip6.o)
periodic_timer      0x20              contiki-srf06-cc26xx.a(link-stats.o)
uip_ds6_timer_periodic
                    0x10              contiki-srf06-cc26xx.a(uip-ds6.o)
uip_next_hdr        0x4               contiki-srf06-cc26xx.a(uip6.o)
linkaddr_node_addr  0x8               contiki-srf06-cc26xx.a(linkaddr.o)
uip_udp_conn        0x4               contiki-srf06-cc26xx.a(uip6.o)
packetbuf_attrs     0x1e              contiki-srf06-cc26xx.a(packetbuf.o)
uip_appdata         0x4               contiki-srf06-cc26xx.a(uip6.o)
uip_conn            0x4               contiki-srf06-cc26xx.a(uip6.o)
tcpip_event         0x1               contiki-srf06-cc26xx.a(tcpip.o)
uip_conns           0x1e0             contiki-srf06-cc26xx.a(uip6.o)
uip_icmp6_conns     0x8               contiki-srf06-cc26xx.a(uip6.o)
uip_listenports     0x28              contiki-srf06-cc26xx.a(uip6.o)
uip_ds6_timer_rs    0x10              contiki-srf06-cc26xx.a(uip-ds6.o)
sensors_flags       0x3               contiki-srf06-cc26xx.a(launchpad-senso)
serial_line_event_message
                    0x1               contiki-srf06-cc26xx.a(serial-line.o)
packet_pos          0x4               slip-radio.co
sensors_event       0x1               contiki-srf06-cc26xx.a(sensors.o)
tcpip_icmp6_event   0x1               contiki-srf06-cc26xx.a(tcpip.o)
packet_ids          0x10              slip-radio.co
uip_slen            0x2               contiki-srf06-cc26xx.a(uip6.o)
uip_udp_conns       0x140             contiki-srf06-cc26xx.a(uip6.o)

Discarded input sections

 .text          0x00000000        0x0 obj_srf06-cc26xx/fault-handlers.o
 .data          0x00000000        0x0 obj_srf06-cc26xx/fault-handlers.o
 .bss           0x00000000        0x0 obj_srf06-cc26xx/fault-handlers.o
 .text          0x00000000        0x0 obj_srf06-cc26xx/ccfg.o
 .data          0x00000000        0x0 obj_srf06-cc26xx/ccfg.o
 .bss           0x00000000        0x0 obj_srf06-cc26xx/ccfg.o
 .text          0x00000000        0x0 obj_srf06-cc26xx/startup_gcc.o
 .data          0x00000000        0x0 obj_srf06-cc26xx/startup_gcc.o
 .bss           0x00000000        0x0 obj_srf06-cc26xx/startup_gcc.o
 .text.FaultISRHandler
                0x00000000        0x0 obj_srf06-cc26xx/startup_gcc.o
 .text          0x00000000        0x0 slip-radio.co
 .data          0x00000000        0x0 slip-radio.co
 .bss           0x00000000        0x0 slip-radio.co
 .text          0x00000000        0x0 obj_srf06-cc26xx/slip-net.o
 .data          0x00000000        0x0 obj_srf06-cc26xx/slip-net.o
 .bss           0x00000000        0x0 obj_srf06-cc26xx/slip-net.o
 .text          0x00000000        0x0 obj_srf06-cc26xx/no-framer.o
 .data          0x00000000        0x0 obj_srf06-cc26xx/no-framer.o
 .bss           0x00000000        0x0 obj_srf06-cc26xx/no-framer.o
 .text          0x00000000        0x0 contiki-srf06-cc26xx.a(cmd.o)
 .data          0x00000000        0x0 contiki-srf06-cc26xx.a(cmd.o)
 .bss           0x00000000        0x0 contiki-srf06-cc26xx.a(cmd.o)
 .text          0x00000000        0x0 contiki-srf06-cc26xx.a(packetutils.o)
 .data          0x00000000        0x0 contiki-srf06-cc26xx.a(packetutils.o)
 .bss           0x00000000        0x0 contiki-srf06-cc26xx.a(packetutils.o)
 .text.packetutils_serialize_atts
                0x00000000        0x0 contiki-srf06-cc26xx.a(packetutils.o)
 .text          0x00000000        0x0 contiki-srf06-cc26xx.a(contiki-main.o)
 .data          0x00000000        0x0 contiki-srf06-cc26xx.a(contiki-main.o)
 .bss           0x00000000        0x0 contiki-srf06-cc26xx.a(contiki-main.o)
 .text          0x00000000        0x0 contiki-srf06-cc26xx.a(sensors.o)
 .data          0x00000000        0x0 contiki-srf06-cc26xx.a(sensors.o)
 .bss           0x00000000        0x0 contiki-srf06-cc26xx.a(sensors.o)
 .text.sensors_first
                0x00000000        0x0 contiki-srf06-cc26xx.a(sensors.o)
 .text.sensors_next
                0x00000000        0x0 contiki-srf06-cc26xx.a(sensors.o)
 .text.sensors_find
                0x00000000        0x0 contiki-srf06-cc26xx.a(sensors.o)
 .text          0x00000000        0x0 contiki-srf06-cc26xx.a(leds.o)
 .data          0x00000000        0x0 contiki-srf06-cc26xx.a(leds.o)
 .bss           0x00000000        0x0 contiki-srf06-cc26xx.a(leds.o)
 .text.leds_toggle
                0x00000000        0x0 contiki-srf06-cc26xx.a(leds.o)
 .text.leds_set
                0x00000000        0x0 contiki-srf06-cc26xx.a(leds.o)
 .text.leds_get
                0x00000000        0x0 contiki-srf06-cc26xx.a(leds.o)
 .text.leds_blink
                0x00000000        0x0 contiki-srf06-cc26xx.a(leds.o)
 .text          0x00000000        0x0 contiki-srf06-cc26xx.a(board.o)
 .data          0x00000000        0x0 contiki-srf06-cc26xx.a(board.o)
 .bss           0x00000000        0x0 contiki-srf06-cc26xx.a(board.o)
 .text          0x00000000        0x0 contiki-srf06-cc26xx.a(launchpad-senso)
 .data          0x00000000        0x0 contiki-srf06-cc26xx.a(launchpad-senso)
 .bss           0x00000000        0x0 contiki-srf06-cc26xx.a(launchpad-senso)
 .text          0x00000000        0x0 contiki-srf06-cc26xx.a(leds-arch.o)
 .data          0x00000000        0x0 contiki-srf06-cc26xx.a(leds-arch.o)
 .bss           0x00000000        0x0 contiki-srf06-cc26xx.a(leds-arch.o)
 .text.leds_arch_get
                0x00000000        0x0 contiki-srf06-cc26xx.a(leds-arch.o)
 .text          0x00000000        0x0 contiki-srf06-cc26xx.a(button-sensor.o)
 .data          0x00000000        0x0 contiki-srf06-cc26xx.a(button-sensor.o)
 .bss           0x00000000        0x0 contiki-srf06-cc26xx.a(button-sensor.o)
 .text          0x00000000        0x0 contiki-srf06-cc26xx.a(ext-flash.o)
 .data          0x00000000        0x0 contiki-srf06-cc26xx.a(ext-flash.o)
 .bss           0x00000000        0x0 contiki-srf06-cc26xx.a(ext-flash.o)
 .text.write_enable
                0x00000000        0x0 contiki-srf06-cc26xx.a(ext-flash.o)
 .text.ext_flash_erase
                0x00000000        0x0 contiki-srf06-cc26xx.a(ext-flash.o)
 .text.ext_flash_write
                0x00000000        0x0 contiki-srf06-cc26xx.a(ext-flash.o)
 .text.ext_flash_read
                0x00000000        0x0 contiki-srf06-cc26xx.a(ext-flash.o)
 .text.ext_flash_test
                0x00000000        0x0 contiki-srf06-cc26xx.a(ext-flash.o)
 .text          0x00000000        0x0 contiki-srf06-cc26xx.a(board-spi.o)
 .data          0x00000000        0x0 contiki-srf06-cc26xx.a(board-spi.o)
 .bss           0x00000000        0x0 contiki-srf06-cc26xx.a(board-spi.o)
 .text          0x00000000        0x0 contiki-srf06-cc26xx.a(prop-mode.o)
 .data          0x00000000        0x0 contiki-srf06-cc26xx.a(prop-mode.o)
 .bss           0x00000000        0x0 contiki-srf06-cc26xx.a(prop-mode.o)
 .text          0x00000000        0x0 contiki-srf06-cc26xx.a(prop-mode-tx-po)
 .data          0x00000000        0x0 contiki-srf06-cc26xx.a(prop-mode-tx-po)
 .bss           0x00000000        0x0 contiki-srf06-cc26xx.a(prop-mode-tx-po)
 .rodata.prop_mode_tx_power_431_527
                0x00000000        0x0 contiki-srf06-cc26xx.a(prop-mode-tx-po)
 .text          0x00000000        0x0 contiki-srf06-cc26xx.a(clock.o)
 .data          0x00000000        0x0 contiki-srf06-cc26xx.a(clock.o)
 .bss           0x00000000        0x0 contiki-srf06-cc26xx.a(clock.o)
 .text.clock_wait
                0x00000000        0x0 contiki-srf06-cc26xx.a(clock.o)
 .text.clock_delay_usec
                0x00000000        0x0 contiki-srf06-cc26xx.a(clock.o)
 .text.clock_delay
                0x00000000        0x0 contiki-srf06-cc26xx.a(clock.o)
 .text          0x00000000        0x0 contiki-srf06-cc26xx.a(rtimer-arch.o)
 .data          0x00000000        0x0 contiki-srf06-cc26xx.a(rtimer-arch.o)
 .bss           0x00000000        0x0 contiki-srf06-cc26xx.a(rtimer-arch.o)
 .text          0x00000000        0x0 contiki-srf06-cc26xx.a(soc-rtc.o)
 .data          0x00000000        0x0 contiki-srf06-cc26xx.a(soc-rtc.o)
 .bss           0x00000000        0x0 contiki-srf06-cc26xx.a(soc-rtc.o)
 .text.AONRTCCompareValueGet
                0x00000000        0x0 contiki-srf06-cc26xx.a(soc-rtc.o)
 .text.soc_rtc_get_next_trigger
                0x00000000        0x0 contiki-srf06-cc26xx.a(soc-rtc.o)
 .text          0x00000000        0x0 contiki-srf06-cc26xx.a(contiki-watchdo)
 .data          0x00000000        0x0 contiki-srf06-cc26xx.a(contiki-watchdo)
 .bss           0x00000000        0x0 contiki-srf06-cc26xx.a(contiki-watchdo)
 .text.watchdog_stop
                0x00000000        0x0 contiki-srf06-cc26xx.a(contiki-watchdo)
 .text.watchdog_reboot
                0x00000000        0x0 contiki-srf06-cc26xx.a(contiki-watchdo)
 .text          0x00000000        0x0 contiki-srf06-cc26xx.a(putchar.o)
 .data          0x00000000        0x0 contiki-srf06-cc26xx.a(putchar.o)
 .bss           0x00000000        0x0 contiki-srf06-cc26xx.a(putchar.o)
 .text          0x00000000        0x0 contiki-srf06-cc26xx.a(ieee-addr.o)
 .data          0x00000000        0x0 contiki-srf06-cc26xx.a(ieee-addr.o)
 .bss           0x00000000        0x0 contiki-srf06-cc26xx.a(ieee-addr.o)
 .text          0x00000000        0x0 contiki-srf06-cc26xx.a(slip-arch.o)
 .data          0x00000000        0x0 contiki-srf06-cc26xx.a(slip-arch.o)
 .bss           0x00000000        0x0 contiki-srf06-cc26xx.a(slip-arch.o)
 .text          0x00000000        0x0 contiki-srf06-cc26xx.a(slip.o)
 .data          0x00000000        0x0 contiki-srf06-cc26xx.a(slip.o)
 .bss           0x00000000        0x0 contiki-srf06-cc26xx.a(slip.o)
 .text.slip_write
                0x00000000        0x0 contiki-srf06-cc26xx.a(slip.o)
 .text.slip_send
                0x00000000        0x0 contiki-srf06-cc26xx.a(slip.o)
 .text          0x00000000        0x0 contiki-srf06-cc26xx.a(cc26xx-uart.o)
 .data          0x00000000        0x0 contiki-srf06-cc26xx.a(cc26xx-uart.o)
 .bss           0x00000000        0x0 contiki-srf06-cc26xx.a(cc26xx-uart.o)
 .text          0x00000000        0x0 contiki-srf06-cc26xx.a(lpm.o)
 .data          0x00000000        0x0 contiki-srf06-cc26xx.a(lpm.o)
 .bss           0x00000000        0x0 contiki-srf06-cc26xx.a(lpm.o)
 .text          0x00000000        0x0 contiki-srf06-cc26xx.a(gpio-interrupt.)
 .data          0x00000000        0x0 contiki-srf06-cc26xx.a(gpio-interrupt.)
 .bss           0x00000000        0x0 contiki-srf06-cc26xx.a(gpio-interrupt.)
 .text          0x00000000        0x0 contiki-srf06-cc26xx.a(oscillators.o)
 .data          0x00000000        0x0 contiki-srf06-cc26xx.a(oscillators.o)
 .bss           0x00000000        0x0 contiki-srf06-cc26xx.a(oscillators.o)
 .text          0x00000000        0x0 contiki-srf06-cc26xx.a(rf-core.o)
 .data          0x00000000        0x0 contiki-srf06-cc26xx.a(rf-core.o)
 .bss           0x00000000        0x0 contiki-srf06-cc26xx.a(rf-core.o)
 .text.rf_core_primary_mode_abort
                0x00000000        0x0 contiki-srf06-cc26xx.a(rf-core.o)
 .text.rf_core_primary_mode_restore
                0x00000000        0x0 contiki-srf06-cc26xx.a(rf-core.o)
 .text.rf_core_restart_rat
                0x00000000        0x0 contiki-srf06-cc26xx.a(rf-core.o)
 .text.rf_core_boot
                0x00000000        0x0 contiki-srf06-cc26xx.a(rf-core.o)
 .text          0x00000000        0x0 contiki-srf06-cc26xx.a(rf-ble.o)
 .data          0x00000000        0x0 contiki-srf06-cc26xx.a(rf-ble.o)
 .bss           0x00000000        0x0 contiki-srf06-cc26xx.a(rf-ble.o)
 .text.rf_ble_beacond_config
                0x00000000        0x0 contiki-srf06-cc26xx.a(rf-ble.o)
 .text.rf_ble_beacond_start
                0x00000000        0x0 contiki-srf06-cc26xx.a(rf-ble.o)
 .text.IntMasterDisable
                0x00000000        0x0 contiki-srf06-cc26xx.a(rf-ble.o)
 .text.IntMasterEnable
                0x00000000        0x0 contiki-srf06-cc26xx.a(rf-ble.o)
 .text.process_thread_rf_ble_beacon_process
                0x00000000        0x0 contiki-srf06-cc26xx.a(rf-ble.o)
 .text.rf_ble_beacond_stop
                0x00000000        0x0 contiki-srf06-cc26xx.a(rf-ble.o)
 .data.rf_ble_beacon_process
                0x00000000        0x0 contiki-srf06-cc26xx.a(rf-ble.o)
 .bss.p         0x00000000        0x0 contiki-srf06-cc26xx.a(rf-ble.o)
 .bss.ble_params_buf
                0x00000000        0x0 contiki-srf06-cc26xx.a(rf-ble.o)
 .rodata.str1.1
                0x00000000        0x0 contiki-srf06-cc26xx.a(rf-ble.o)
 .bss.ble_adv_et
                0x00000000        0x0 contiki-srf06-cc26xx.a(rf-ble.o)
 .bss.i         0x00000000        0x0 contiki-srf06-cc26xx.a(rf-ble.o)
 .bss.payload   0x00000000        0x0 contiki-srf06-cc26xx.a(rf-ble.o)
 .data.beacond_config
                0x00000000        0x0 contiki-srf06-cc26xx.a(rf-ble.o)
 .data.ble_overrides
                0x00000000        0x0 contiki-srf06-cc26xx.a(rf-ble.o)
 .text          0x00000000        0x0 contiki-srf06-cc26xx.a(random.o)
 .data          0x00000000        0x0 contiki-srf06-cc26xx.a(random.o)
 .bss           0x00000000        0x0 contiki-srf06-cc26xx.a(random.o)
 .text          0x00000000        0x0 contiki-srf06-cc26xx.a(soc-trng.o)
 .data          0x00000000        0x0 contiki-srf06-cc26xx.a(soc-trng.o)
 .bss           0x00000000        0x0 contiki-srf06-cc26xx.a(soc-trng.o)
 .text.TRNGIntClear
                0x00000000        0x0 contiki-srf06-cc26xx.a(soc-trng.o)
 .text.soc_trng_rand_asynchronous
                0x00000000        0x0 contiki-srf06-cc26xx.a(soc-trng.o)
 .text          0x00000000        0x0 contiki-srf06-cc26xx.a(dbg-printf.o)
 .data          0x00000000        0x0 contiki-srf06-cc26xx.a(dbg-printf.o)
 .bss           0x00000000        0x0 contiki-srf06-cc26xx.a(dbg-printf.o)
 .text          0x00000000        0x0 contiki-srf06-cc26xx.a(strformat.o)
 .data          0x00000000        0x0 contiki-srf06-cc26xx.a(strformat.o)
 .bss           0x00000000        0x0 contiki-srf06-cc26xx.a(strformat.o)
 .text.format_str
                0x00000000        0x0 contiki-srf06-cc26xx.a(strformat.o)
 .text          0x00000000        0x0 contiki-srf06-cc26xx.a(http-socket.o)
 .data          0x00000000        0x0 contiki-srf06-cc26xx.a(http-socket.o)
 .bss           0x00000000        0x0 contiki-srf06-cc26xx.a(http-socket.o)
 .text.http_socket_set_proxy
                0x00000000        0x0 contiki-srf06-cc26xx.a(http-socket.o)
 .text.http_socket_close
                0x00000000        0x0 contiki-srf06-cc26xx.a(http-socket.o)
 .text.http_socket_post
                0x00000000        0x0 contiki-srf06-cc26xx.a(http-socket.o)
 .text          0x00000000        0x0 contiki-srf06-cc26xx.a(autostart.o)
 .data          0x00000000        0x0 contiki-srf06-cc26xx.a(autostart.o)
 .bss           0x00000000        0x0 contiki-srf06-cc26xx.a(autostart.o)
 .text.autostart_exit
                0x00000000        0x0 contiki-srf06-cc26xx.a(autostart.o)
 .text          0x00000000        0x0 contiki-srf06-cc26xx.a(ctimer.o)
 .data          0x00000000        0x0 contiki-srf06-cc26xx.a(ctimer.o)
 .bss           0x00000000        0x0 contiki-srf06-cc26xx.a(ctimer.o)
 .text.ctimer_expired
                0x00000000        0x0 contiki-srf06-cc26xx.a(ctimer.o)
 .text.ctimer_restart
                0x00000000        0x0 contiki-srf06-cc26xx.a(ctimer.o)
 .text          0x00000000        0x0 contiki-srf06-cc26xx.a(energest.o)
 .data          0x00000000        0x0 contiki-srf06-cc26xx.a(energest.o)
 .bss           0x00000000        0x0 contiki-srf06-cc26xx.a(energest.o)
 .text.energest_type_set
                0x00000000        0x0 contiki-srf06-cc26xx.a(energest.o)
 .text.energest_type_time
                0x00000000        0x0 contiki-srf06-cc26xx.a(energest.o)
 .text.energest_flush
                0x00000000        0x0 contiki-srf06-cc26xx.a(energest.o)
 .text          0x00000000        0x0 contiki-srf06-cc26xx.a(etimer.o)
 .data          0x00000000        0x0 contiki-srf06-cc26xx.a(etimer.o)
 .bss           0x00000000        0x0 contiki-srf06-cc26xx.a(etimer.o)
 .text.etimer_expiration_time
                0x00000000        0x0 contiki-srf06-cc26xx.a(etimer.o)
 .text.etimer_start_time
                0x00000000        0x0 contiki-srf06-cc26xx.a(etimer.o)
 .text.etimer_adjust
                0x00000000        0x0 contiki-srf06-cc26xx.a(etimer.o)
 .text.etimer_reset_with_new_interval
                0x00000000        0x0 contiki-srf06-cc26xx.a(etimer.o)
 .text          0x00000000        0x0 contiki-srf06-cc26xx.a(process.o)
 .data          0x00000000        0x0 contiki-srf06-cc26xx.a(process.o)
 .bss           0x00000000        0x0 contiki-srf06-cc26xx.a(process.o)
 .text          0x00000000        0x0 contiki-srf06-cc26xx.a(rtimer.o)
 .data          0x00000000        0x0 contiki-srf06-cc26xx.a(rtimer.o)
 .bss           0x00000000        0x0 contiki-srf06-cc26xx.a(rtimer.o)
 .text          0x00000000        0x0 contiki-srf06-cc26xx.a(timer.o)
 .data          0x00000000        0x0 contiki-srf06-cc26xx.a(timer.o)
 .bss           0x00000000        0x0 contiki-srf06-cc26xx.a(timer.o)
 .text.timer_remaining
                0x00000000        0x0 contiki-srf06-cc26xx.a(timer.o)
 .text          0x00000000        0x0 contiki-srf06-cc26xx.a(serial-line.o)
 .data          0x00000000        0x0 contiki-srf06-cc26xx.a(serial-line.o)
 .bss           0x00000000        0x0 contiki-srf06-cc26xx.a(serial-line.o)
 .text.serial_line_input_byte
                0x00000000        0x0 contiki-srf06-cc26xx.a(serial-line.o)
 .bss.overflow.1999
                0x00000000        0x0 contiki-srf06-cc26xx.a(serial-line.o)
 .text          0x00000000        0x0 contiki-srf06-cc26xx.a(list.o)
 .data          0x00000000        0x0 contiki-srf06-cc26xx.a(list.o)
 .bss           0x00000000        0x0 contiki-srf06-cc26xx.a(list.o)
 .text.list_copy
                0x00000000        0x0 contiki-srf06-cc26xx.a(list.o)
 .text.list_chop
                0x00000000        0x0 contiki-srf06-cc26xx.a(list.o)
 .text.list_pop
                0x00000000        0x0 contiki-srf06-cc26xx.a(list.o)
 .text.list_insert
                0x00000000        0x0 contiki-srf06-cc26xx.a(list.o)
 .text          0x00000000        0x0 contiki-srf06-cc26xx.a(ringbuf.o)
 .data          0x00000000        0x0 contiki-srf06-cc26xx.a(ringbuf.o)
 .bss           0x00000000        0x0 contiki-srf06-cc26xx.a(ringbuf.o)
 .text.ringbuf_put
                0x00000000        0x0 contiki-srf06-cc26xx.a(ringbuf.o)
 .text.ringbuf_size
                0x00000000        0x0 contiki-srf06-cc26xx.a(ringbuf.o)
 .text.ringbuf_elements
                0x00000000        0x0 contiki-srf06-cc26xx.a(ringbuf.o)
 .text          0x00000000        0x0 contiki-srf06-cc26xx.a(uip6.o)
 .data          0x00000000        0x0 contiki-srf06-cc26xx.a(uip6.o)
 .bss           0x00000000        0x0 contiki-srf06-cc26xx.a(uip6.o)
 .text.uip_listen
                0x00000000        0x0 contiki-srf06-cc26xx.a(uip6.o)
 .text.uip_ipchksum
                0x00000000        0x0 contiki-srf06-cc26xx.a(uip6.o)
 .text.uip_chksum
                0x00000000        0x0 contiki-srf06-cc26xx.a(uip6.o)
 .text          0x00000000        0x0 contiki-srf06-cc26xx.a(uip-ds6.o)
 .data          0x00000000        0x0 contiki-srf06-cc26xx.a(uip-ds6.o)
 .bss           0x00000000        0x0 contiki-srf06-cc26xx.a(uip-ds6.o)
 .text.uip_ds6_get_global
                0x00000000        0x0 contiki-srf06-cc26xx.a(uip-ds6.o)
 .text.uip_ds6_aaddr_add
                0x00000000        0x0 contiki-srf06-cc26xx.a(uip-ds6.o)
 .text.uip_ds6_aaddr_rm
                0x00000000        0x0 contiki-srf06-cc26xx.a(uip-ds6.o)
 .text.uip_ds6_aaddr_lookup
                0x00000000        0x0 contiki-srf06-cc26xx.a(uip-ds6.o)
 .text          0x00000000        0x0 contiki-srf06-cc26xx.a(uip-ds6-nbr.o)
 .data          0x00000000        0x0 contiki-srf06-cc26xx.a(uip-ds6-nbr.o)
 .bss           0x00000000        0x0 contiki-srf06-cc26xx.a(uip-ds6-nbr.o)
 .text.uip_ds6_nbr_get_ipaddr
                0x00000000        0x0 contiki-srf06-cc26xx.a(uip-ds6-nbr.o)
 .text.uip_ds6_get_least_lifetime_neighbor
                0x00000000        0x0 contiki-srf06-cc26xx.a(uip-ds6-nbr.o)
 .text.uip_ds6_nbr_num
                0x00000000        0x0 contiki-srf06-cc26xx.a(uip-ds6-nbr.o)
 .text.uip_ds6_link_neighbor_callback
                0x00000000        0x0 contiki-srf06-cc26xx.a(uip-ds6-nbr.o)
 .text.uip_ds6_nbr_lladdr_from_ipaddr
                0x00000000        0x0 contiki-srf06-cc26xx.a(uip-ds6-nbr.o)
 .text          0x00000000        0x0 contiki-srf06-cc26xx.a(uip-ds6-route.o)
 .data          0x00000000        0x0 contiki-srf06-cc26xx.a(uip-ds6-route.o)
 .bss           0x00000000        0x0 contiki-srf06-cc26xx.a(uip-ds6-route.o)
 .text.uip_ds6_route_num_routes
                0x00000000        0x0 contiki-srf06-cc26xx.a(uip-ds6-route.o)
 .text.uip_ds6_defrt_head
                0x00000000        0x0 contiki-srf06-cc26xx.a(uip-ds6-route.o)
 .text.uip_ds6_notification_rm
                0x00000000        0x0 contiki-srf06-cc26xx.a(uip-ds6-route.o)
 .text.uip_ds6_route_is_nexthop
                0x00000000        0x0 contiki-srf06-cc26xx.a(uip-ds6-route.o)
 .text.uip_ds6_notification_add
                0x00000000        0x0 contiki-srf06-cc26xx.a(uip-ds6-route.o)
 .text.uip_ds6_route_rm_by_nexthop
                0x00000000        0x0 contiki-srf06-cc26xx.a(uip-ds6-route.o)
 .text.uip_ds6_route_add
                0x00000000        0x0 contiki-srf06-cc26xx.a(uip-ds6-route.o)
 .text          0x00000000        0x0 contiki-srf06-cc26xx.a(uip-icmp6.o)
 .data          0x00000000        0x0 contiki-srf06-cc26xx.a(uip-icmp6.o)
 .bss           0x00000000        0x0 contiki-srf06-cc26xx.a(uip-icmp6.o)
 .text.uip_icmp6_echo_reply_callback_rm
                0x00000000        0x0 contiki-srf06-cc26xx.a(uip-icmp6.o)
 .text.uip_icmp6_echo_reply_callback_add
                0x00000000        0x0 contiki-srf06-cc26xx.a(uip-icmp6.o)
 .text.uip_icmp6_send
                0x00000000        0x0 contiki-srf06-cc26xx.a(uip-icmp6.o)
 .text          0x00000000        0x0 contiki-srf06-cc26xx.a(uip-nd6.o)
 .data          0x00000000        0x0 contiki-srf06-cc26xx.a(uip-nd6.o)
 .bss           0x00000000        0x0 contiki-srf06-cc26xx.a(uip-nd6.o)
 .text          0x00000000        0x0 contiki-srf06-cc26xx.a(ip64-addr.o)
 .data          0x00000000        0x0 contiki-srf06-cc26xx.a(ip64-addr.o)
 .bss           0x00000000        0x0 contiki-srf06-cc26xx.a(ip64-addr.o)
 .text.ip64_addr_set_prefix
                0x00000000        0x0 contiki-srf06-cc26xx.a(ip64-addr.o)
 .text.ip64_addr_is_ip64
                0x00000000        0x0 contiki-srf06-cc26xx.a(ip64-addr.o)
 .text.ip64_addr_6to4
                0x00000000        0x0 contiki-srf06-cc26xx.a(ip64-addr.o)
 .text.ip64_addr_copy6
                0x00000000        0x0 contiki-srf06-cc26xx.a(ip64-addr.o)
 .text.ip64_addr_copy4
                0x00000000        0x0 contiki-srf06-cc26xx.a(ip64-addr.o)
 .data.ip64_prefix_len
                0x00000000        0x0 contiki-srf06-cc26xx.a(ip64-addr.o)
 .text          0x00000000        0x0 contiki-srf06-cc26xx.a(resolv.o)
 .data          0x00000000        0x0 contiki-srf06-cc26xx.a(resolv.o)
 .bss           0x00000000        0x0 contiki-srf06-cc26xx.a(resolv.o)
 .text.resolv_get_hostname
                0x00000000        0x0 contiki-srf06-cc26xx.a(resolv.o)
 .text          0x00000000        0x0 contiki-srf06-cc26xx.a(tcpip.o)
 .data          0x00000000        0x0 contiki-srf06-cc26xx.a(tcpip.o)
 .bss           0x00000000        0x0 contiki-srf06-cc26xx.a(tcpip.o)
 .text.tcpip_set_outputfunc
                0x00000000        0x0 contiki-srf06-cc26xx.a(tcpip.o)
 .text.udp_attach
                0x00000000        0x0 contiki-srf06-cc26xx.a(tcpip.o)
 .text.icmp6_new
                0x00000000        0x0 contiki-srf06-cc26xx.a(tcpip.o)
 .text.tcp_unlisten
                0x00000000        0x0 contiki-srf06-cc26xx.a(tcpip.o)
 .text.udp_broadcast_new
                0x00000000        0x0 contiki-srf06-cc26xx.a(tcpip.o)
 .text.tcp_listen
                0x00000000        0x0 contiki-srf06-cc26xx.a(tcpip.o)
 .text          0x00000000        0x0 contiki-srf06-cc26xx.a(tcp-socket.o)
 .data          0x00000000        0x0 contiki-srf06-cc26xx.a(tcp-socket.o)
 .bss           0x00000000        0x0 contiki-srf06-cc26xx.a(tcp-socket.o)
 .text.tcp_socket_max_sendlen
                0x00000000        0x0 contiki-srf06-cc26xx.a(tcp-socket.o)
 .text.tcp_socket_queuelen
                0x00000000        0x0 contiki-srf06-cc26xx.a(tcp-socket.o)
 .text.tcp_socket_unlisten
                0x00000000        0x0 contiki-srf06-cc26xx.a(tcp-socket.o)
 .text.tcp_socket_unregister
                0x00000000        0x0 contiki-srf06-cc26xx.a(tcp-socket.o)
 .text.tcp_socket_listen
                0x00000000        0x0 contiki-srf06-cc26xx.a(tcp-socket.o)
 .text          0x00000000        0x0 contiki-srf06-cc26xx.a(uip-debug.o)
 .data          0x00000000        0x0 contiki-srf06-cc26xx.a(uip-debug.o)
 .bss           0x00000000        0x0 contiki-srf06-cc26xx.a(uip-debug.o)
 .text          0x00000000        0x0 contiki-srf06-cc26xx.a(uiplib.o)
 .data          0x00000000        0x0 contiki-srf06-cc26xx.a(uiplib.o)
 .bss           0x00000000        0x0 contiki-srf06-cc26xx.a(uiplib.o)
 .text          0x00000000        0x0 contiki-srf06-cc26xx.a(uip-nameserver.)
 .data          0x00000000        0x0 contiki-srf06-cc26xx.a(uip-nameserver.)
 .bss           0x00000000        0x0 contiki-srf06-cc26xx.a(uip-nameserver.)
 .text.uip_nameserver_next_expiration
                0x00000000        0x0 contiki-srf06-cc26xx.a(uip-nameserver.)
 .text.uip_nameserver_count
                0x00000000        0x0 contiki-srf06-cc26xx.a(uip-nameserver.)
 .text          0x00000000        0x0 contiki-srf06-cc26xx.a(uip-udp-packet.)
 .data          0x00000000        0x0 contiki-srf06-cc26xx.a(uip-udp-packet.)
 .bss           0x00000000        0x0 contiki-srf06-cc26xx.a(uip-udp-packet.)
 .text          0x00000000        0x0 contiki-srf06-cc26xx.a(adi.o)
 .data          0x00000000        0x0 contiki-srf06-cc26xx.a(adi.o)
 .bss           0x00000000        0x0 contiki-srf06-cc26xx.a(adi.o)
 .text.SafeHapiAuxAdiSelect
                0x00000000        0x0 contiki-srf06-cc26xx.a(adi.o)
 .text          0x00000000        0x0 contiki-srf06-cc26xx.a(aon_rtc.o)
 .data          0x00000000        0x0 contiki-srf06-cc26xx.a(aon_rtc.o)
 .bss           0x00000000        0x0 contiki-srf06-cc26xx.a(aon_rtc.o)
 .text.NOROM_AONRTCCurrent64BitValueGet
                0x00000000        0x0 contiki-srf06-cc26xx.a(aon_rtc.o)
 .text          0x00000000        0x0 contiki-srf06-cc26xx.a(chipinfo.o)
 .data          0x00000000        0x0 contiki-srf06-cc26xx.a(chipinfo.o)
 .bss           0x00000000        0x0 contiki-srf06-cc26xx.a(chipinfo.o)
 .text.NOROM_ChipInfo_GetPackageType
                0x00000000        0x0 contiki-srf06-cc26xx.a(chipinfo.o)
 .text          0x00000000        0x0 contiki-srf06-cc26xx.a(cpu.o)
 .data          0x00000000        0x0 contiki-srf06-cc26xx.a(cpu.o)
 .bss           0x00000000        0x0 contiki-srf06-cc26xx.a(cpu.o)
 .text.NOROM_CPUprimask
                0x00000000        0x0 contiki-srf06-cc26xx.a(cpu.o)
 .text.NOROM_CPUbasepriGet
                0x00000000        0x0 contiki-srf06-cc26xx.a(cpu.o)
 .text.NOROM_CPUdelay
                0x00000000        0x0 contiki-srf06-cc26xx.a(cpu.o)
 .text          0x00000000        0x0 contiki-srf06-cc26xx.a(osc.o)
 .data          0x00000000        0x0 contiki-srf06-cc26xx.a(osc.o)
 .bss           0x00000000        0x0 contiki-srf06-cc26xx.a(osc.o)
 .text.NOROM_OSC_HPOSCRelativeFrequencyOffsetGet
                0x00000000        0x0 contiki-srf06-cc26xx.a(osc.o)
 .text.NOROM_OSC_HPOSCRelativeFrequencyOffsetToRFCoreFormatConvert
                0x00000000        0x0 contiki-srf06-cc26xx.a(osc.o)
 .text.NOROM_OSCHF_DebugGetExpectedAverageCrystalAmplitude
                0x00000000        0x0 contiki-srf06-cc26xx.a(osc.o)
 .text.NOROM_OSCHF_DebugGetCrystalAmplitude
                0x00000000        0x0 contiki-srf06-cc26xx.a(osc.o)
 .text.NOROM_OSCHF_TurnOnXosc
                0x00000000        0x0 contiki-srf06-cc26xx.a(osc.o)
 .text.NOROM_OSCHF_GetStartupTime
                0x00000000        0x0 contiki-srf06-cc26xx.a(osc.o)
 .text.OSCHfSourceSwitch
                0x00000000        0x0 contiki-srf06-cc26xx.a(osc.o)
 .text.NOROM_OSCHF_SwitchToRcOscTurnOffXosc
                0x00000000        0x0 contiki-srf06-cc26xx.a(osc.o)
 .text.NOROM_OSCHF_AttemptToSwitchToXosc
                0x00000000        0x0 contiki-srf06-cc26xx.a(osc.o)
 .bss.oscHfGlobals
                0x00000000        0x0 contiki-srf06-cc26xx.a(osc.o)
 .text          0x00000000        0x0 contiki-srf06-cc26xx.a(pwr_ctrl.o)
 .data          0x00000000        0x0 contiki-srf06-cc26xx.a(pwr_ctrl.o)
 .bss           0x00000000        0x0 contiki-srf06-cc26xx.a(pwr_ctrl.o)
 .text          0x00000000        0x0 contiki-srf06-cc26xx.a(rfc.o)
 .data          0x00000000        0x0 contiki-srf06-cc26xx.a(rfc.o)
 .bss           0x00000000        0x0 contiki-srf06-cc26xx.a(rfc.o)
 .text.RFCAckIntClear
                0x00000000        0x0 contiki-srf06-cc26xx.a(rfc.o)
 .text.NOROM_RFCCpeIntGetAndClear
                0x00000000        0x0 contiki-srf06-cc26xx.a(rfc.o)
 .text.NOROM_RFCDoorbellSendTo
                0x00000000        0x0 contiki-srf06-cc26xx.a(rfc.o)
 .text.NOROM_RFCSynthPowerDown
                0x00000000        0x0 contiki-srf06-cc26xx.a(rfc.o)
 .text.NOROM_RFCRfTrimRead
                0x00000000        0x0 contiki-srf06-cc26xx.a(rfc.o)
 .text.NOROM_RFCCPEPatchReset
                0x00000000        0x0 contiki-srf06-cc26xx.a(rfc.o)
 .text.NOROM_RFCRfTrimSet
                0x00000000        0x0 contiki-srf06-cc26xx.a(rfc.o)
 .rodata.rfc_defaultIrqAddr
                0x00000000        0x0 contiki-srf06-cc26xx.a(rfc.o)
 .text          0x00000000        0x0 contiki-srf06-cc26xx.a(setup.o)
 .data          0x00000000        0x0 contiki-srf06-cc26xx.a(setup.o)
 .bss           0x00000000        0x0 contiki-srf06-cc26xx.a(setup.o)
 .text          0x00000000        0x0 contiki-srf06-cc26xx.a(setup_rom.o)
 .data          0x00000000        0x0 contiki-srf06-cc26xx.a(setup_rom.o)
 .bss           0x00000000        0x0 contiki-srf06-cc26xx.a(setup_rom.o)
 .text          0x00000000        0x0 contiki-srf06-cc26xx.a(sys_ctrl.o)
 .data          0x00000000        0x0 contiki-srf06-cc26xx.a(sys_ctrl.o)
 .bss           0x00000000        0x0 contiki-srf06-cc26xx.a(sys_ctrl.o)
 .text.PRCMLoadSet
                0x00000000        0x0 contiki-srf06-cc26xx.a(sys_ctrl.o)
 .text.PRCMLoadGet
                0x00000000        0x0 contiki-srf06-cc26xx.a(sys_ctrl.o)
 .text.NOROM_SysCtrlResetSourceGet
                0x00000000        0x0 contiki-srf06-cc26xx.a(sys_ctrl.o)
 .text.NOROM_SysCtrlPowerEverything
                0x00000000        0x0 contiki-srf06-cc26xx.a(sys_ctrl.o)
 .rodata.g_pui32ModuleCG
                0x00000000        0x0 contiki-srf06-cc26xx.a(sys_ctrl.o)
 .text          0x00000000        0x0 contiki-srf06-cc26xx.a(trng.o)
 .data          0x00000000        0x0 contiki-srf06-cc26xx.a(trng.o)
 .bss           0x00000000        0x0 contiki-srf06-cc26xx.a(trng.o)
 .text.NOROM_TRNGNumberGet
                0x00000000        0x0 contiki-srf06-cc26xx.a(trng.o)
 .text          0x00000000        0x0 contiki-srf06-cc26xx.a(linkaddr.o)
 .data          0x00000000        0x0 contiki-srf06-cc26xx.a(linkaddr.o)
 .bss           0x00000000        0x0 contiki-srf06-cc26xx.a(linkaddr.o)
 .text.linkaddr_set_node_addr
                0x00000000        0x0 contiki-srf06-cc26xx.a(linkaddr.o)
 .text          0x00000000        0x0 contiki-srf06-cc26xx.a(link-stats.o)
 .data          0x00000000        0x0 contiki-srf06-cc26xx.a(link-stats.o)
 .bss           0x00000000        0x0 contiki-srf06-cc26xx.a(link-stats.o)
 .text.guess_etx_from_rssi
                0x00000000        0x0 contiki-srf06-cc26xx.a(link-stats.o)
 .text.link_stats_from_lladdr
                0x00000000        0x0 contiki-srf06-cc26xx.a(link-stats.o)
 .text.link_stats_input_callback
                0x00000000        0x0 contiki-srf06-cc26xx.a(link-stats.o)
 .text.link_stats_is_fresh
                0x00000000        0x0 contiki-srf06-cc26xx.a(link-stats.o)
 .text.link_stats_packet_sent
                0x00000000        0x0 contiki-srf06-cc26xx.a(link-stats.o)
 .text          0x00000000        0x0 contiki-srf06-cc26xx.a(nbr-table.o)
 .data          0x00000000        0x0 contiki-srf06-cc26xx.a(nbr-table.o)
 .bss           0x00000000        0x0 contiki-srf06-cc26xx.a(nbr-table.o)
 .text.nbr_table_lock
                0x00000000        0x0 contiki-srf06-cc26xx.a(nbr-table.o)
 .text.nbr_table_unlock
                0x00000000        0x0 contiki-srf06-cc26xx.a(nbr-table.o)
 .text          0x00000000        0x0 contiki-srf06-cc26xx.a(netstack.o)
 .data          0x00000000        0x0 contiki-srf06-cc26xx.a(netstack.o)
 .bss           0x00000000        0x0 contiki-srf06-cc26xx.a(netstack.o)
 .text          0x00000000        0x0 contiki-srf06-cc26xx.a(packetbuf.o)
 .data          0x00000000        0x0 contiki-srf06-cc26xx.a(packetbuf.o)
 .bss           0x00000000        0x0 contiki-srf06-cc26xx.a(packetbuf.o)
 .text.packetbuf_hdrreduce
                0x00000000        0x0 contiki-srf06-cc26xx.a(packetbuf.o)
 .text.packetbuf_compact
                0x00000000        0x0 contiki-srf06-cc26xx.a(packetbuf.o)
 .text.packetbuf_hdralloc
                0x00000000        0x0 contiki-srf06-cc26xx.a(packetbuf.o)
 .text.packetbuf_remaininglen
                0x00000000        0x0 contiki-srf06-cc26xx.a(packetbuf.o)
 .text          0x00000000        0x0 contiki-srf06-cc26xx.a(queuebuf.o)
 .data          0x00000000        0x0 contiki-srf06-cc26xx.a(queuebuf.o)
 .bss           0x00000000        0x0 contiki-srf06-cc26xx.a(queuebuf.o)
 .text.queuebuf_datalen
                0x00000000        0x0 contiki-srf06-cc26xx.a(queuebuf.o)
 .text.queuebuf_addr
                0x00000000        0x0 contiki-srf06-cc26xx.a(queuebuf.o)
 .text.queuebuf_attr
                0x00000000        0x0 contiki-srf06-cc26xx.a(queuebuf.o)
 .text.queuebuf_debug_print
                0x00000000        0x0 contiki-srf06-cc26xx.a(queuebuf.o)
 .text.queuebuf_dataptr
                0x00000000        0x0 contiki-srf06-cc26xx.a(queuebuf.o)
 .text.queuebuf_free
                0x00000000        0x0 contiki-srf06-cc26xx.a(queuebuf.o)
 .text.queuebuf_update_attr_from_packetbuf
                0x00000000        0x0 contiki-srf06-cc26xx.a(queuebuf.o)
 .text.queuebuf_new_from_packetbuf
                0x00000000        0x0 contiki-srf06-cc26xx.a(queuebuf.o)
 .text.queuebuf_numfree
                0x00000000        0x0 contiki-srf06-cc26xx.a(queuebuf.o)
 .text          0x00000000        0x0 contiki-srf06-cc26xx.a(frame802154.o)
 .data          0x00000000        0x0 contiki-srf06-cc26xx.a(frame802154.o)
 .bss           0x00000000        0x0 contiki-srf06-cc26xx.a(frame802154.o)
 .text.addr_len
                0x00000000        0x0 contiki-srf06-cc26xx.a(frame802154.o)
 .text.frame802154_get_pan_id
                0x00000000        0x0 contiki-srf06-cc26xx.a(frame802154.o)
 .text.frame802154_set_pan_id
                0x00000000        0x0 contiki-srf06-cc26xx.a(frame802154.o)
 .text.frame802154_check_dest_panid
                0x00000000        0x0 contiki-srf06-cc26xx.a(frame802154.o)
 .text.frame802154_is_broadcast_addr
                0x00000000        0x0 contiki-srf06-cc26xx.a(frame802154.o)
 .text.frame802154_create_fcf
                0x00000000        0x0 contiki-srf06-cc26xx.a(frame802154.o)
 .text.frame802154_extract_linkaddr
                0x00000000        0x0 contiki-srf06-cc26xx.a(frame802154.o)
 .text.field_len
                0x00000000        0x0 contiki-srf06-cc26xx.a(frame802154.o)
 .text.frame802154_create
                0x00000000        0x0 contiki-srf06-cc26xx.a(frame802154.o)
 .text.frame802154_hdrlen
                0x00000000        0x0 contiki-srf06-cc26xx.a(frame802154.o)
 .data.mac_pan_id
                0x00000000        0x0 contiki-srf06-cc26xx.a(frame802154.o)
 .text          0x00000000        0x0 contiki-srf06-cc26xx.a(nullmac.o)
 .data          0x00000000        0x0 contiki-srf06-cc26xx.a(nullmac.o)
 .bss           0x00000000        0x0 contiki-srf06-cc26xx.a(nullmac.o)
 .text          0x00000000        0x0 contiki-srf06-cc26xx.a(contikimac.o)
 .data          0x00000000        0x0 contiki-srf06-cc26xx.a(contikimac.o)
 .bss           0x00000000        0x0 contiki-srf06-cc26xx.a(contikimac.o)
 .text.contikimac_debug_print
                0x00000000        0x0 contiki-srf06-cc26xx.a(contikimac.o)
 .text          0x00000000        0x0 contiki-srf06-cc26xx.a(nullsec.o)
 .data          0x00000000        0x0 contiki-srf06-cc26xx.a(nullsec.o)
 .bss           0x00000000        0x0 contiki-srf06-cc26xx.a(nullsec.o)
 .text          0x00000000        0x0 contiki-srf06-cc26xx.a(smartrf-setting)
 .data          0x00000000        0x0 contiki-srf06-cc26xx.a(smartrf-setting)
 .bss           0x00000000        0x0 contiki-srf06-cc26xx.a(smartrf-setting)
 .text          0x00000000        0x0 contiki-srf06-cc26xx.a(aux-ctrl.o)
 .data          0x00000000        0x0 contiki-srf06-cc26xx.a(aux-ctrl.o)
 .bss           0x00000000        0x0 contiki-srf06-cc26xx.a(aux-ctrl.o)
 .text          0x00000000        0x0 contiki-srf06-cc26xx.a(dbg-sprintf.o)
 .data          0x00000000        0x0 contiki-srf06-cc26xx.a(dbg-sprintf.o)
 .bss           0x00000000        0x0 contiki-srf06-cc26xx.a(dbg-sprintf.o)
 .text          0x00000000        0x0 contiki-srf06-cc26xx.a(stimer.o)
 .data          0x00000000        0x0 contiki-srf06-cc26xx.a(stimer.o)
 .bss           0x00000000        0x0 contiki-srf06-cc26xx.a(stimer.o)
 .text.stimer_reset
                0x00000000        0x0 contiki-srf06-cc26xx.a(stimer.o)
 .text.stimer_elapsed
                0x00000000        0x0 contiki-srf06-cc26xx.a(stimer.o)
 .text.stimer_restart
                0x00000000        0x0 contiki-srf06-cc26xx.a(stimer.o)
 .text          0x00000000        0x0 contiki-srf06-cc26xx.a(memb.o)
 .data          0x00000000        0x0 contiki-srf06-cc26xx.a(memb.o)
 .bss           0x00000000        0x0 contiki-srf06-cc26xx.a(memb.o)
 .text.memb_numfree
                0x00000000        0x0 contiki-srf06-cc26xx.a(memb.o)
 .text          0x00000000        0x0 contiki-srf06-cc26xx.a(aon_batmon.o)
 .data          0x00000000        0x0 contiki-srf06-cc26xx.a(aon_batmon.o)
 .bss           0x00000000        0x0 contiki-srf06-cc26xx.a(aon_batmon.o)
 .text          0x00000000        0x0 contiki-srf06-cc26xx.a(ddi.o)
 .data          0x00000000        0x0 contiki-srf06-cc26xx.a(ddi.o)
 .bss           0x00000000        0x0 contiki-srf06-cc26xx.a(ddi.o)
 .text.AuxAdiDdiSafeRead
                0x00000000        0x0 contiki-srf06-cc26xx.a(ddi.o)
 .text.NOROM_DDI16BitfieldRead
                0x00000000        0x0 contiki-srf06-cc26xx.a(ddi.o)
 .text.NOROM_DDI16BitRead
                0x00000000        0x0 contiki-srf06-cc26xx.a(ddi.o)
 .text.NOROM_DDI16BitfieldWrite
                0x00000000        0x0 contiki-srf06-cc26xx.a(ddi.o)
 .text.NOROM_DDI16BitWrite
                0x00000000        0x0 contiki-srf06-cc26xx.a(ddi.o)
 .text          0x00000000        0x0 contiki-srf06-cc26xx.a(mac.o)
 .data          0x00000000        0x0 contiki-srf06-cc26xx.a(mac.o)
 .bss           0x00000000        0x0 contiki-srf06-cc26xx.a(mac.o)
 .text          0x00000000        0x0 contiki-srf06-cc26xx.a(mac-sequence.o)
 .data          0x00000000        0x0 contiki-srf06-cc26xx.a(mac-sequence.o)
 .bss           0x00000000        0x0 contiki-srf06-cc26xx.a(mac-sequence.o)
 .data          0x00000000        0x0 /home/user/CodeSourcery/Sourcery_G++_Lite/bin/../lib/gcc/arm-none-eabi/4.3.2/thumb2/libgcc.a(_aeabi_uldivmod.o)
 .bss           0x00000000        0x0 /home/user/CodeSourcery/Sourcery_G++_Lite/bin/../lib/gcc/arm-none-eabi/4.3.2/thumb2/libgcc.a(_aeabi_uldivmod.o)
 .data          0x00000000        0x0 /home/user/CodeSourcery/Sourcery_G++_Lite/bin/../lib/gcc/arm-none-eabi/4.3.2/thumb2/libgcc.a(bpabi.o)
 .bss           0x00000000        0x0 /home/user/CodeSourcery/Sourcery_G++_Lite/bin/../lib/gcc/arm-none-eabi/4.3.2/thumb2/libgcc.a(bpabi.o)
 .data          0x00000000        0x0 /home/user/CodeSourcery/Sourcery_G++_Lite/bin/../lib/gcc/arm-none-eabi/4.3.2/thumb2/libgcc.a(_dvmd_tls.o)
 .bss           0x00000000        0x0 /home/user/CodeSourcery/Sourcery_G++_Lite/bin/../lib/gcc/arm-none-eabi/4.3.2/thumb2/libgcc.a(_dvmd_tls.o)
 .data          0x00000000        0x0 /home/user/CodeSourcery/Sourcery_G++_Lite/bin/../lib/gcc/arm-none-eabi/4.3.2/thumb2/libgcc.a(_divdi3.o)
 .bss           0x00000000        0x0 /home/user/CodeSourcery/Sourcery_G++_Lite/bin/../lib/gcc/arm-none-eabi/4.3.2/thumb2/libgcc.a(_divdi3.o)
 .ARM.extab     0x00000000        0x0 /home/user/CodeSourcery/Sourcery_G++_Lite/bin/../lib/gcc/arm-none-eabi/4.3.2/thumb2/libgcc.a(_divdi3.o)
 .data          0x00000000        0x0 /home/user/CodeSourcery/Sourcery_G++_Lite/bin/../lib/gcc/arm-none-eabi/4.3.2/thumb2/libgcc.a(_udivdi3.o)
 .bss           0x00000000        0x0 /home/user/CodeSourcery/Sourcery_G++_Lite/bin/../lib/gcc/arm-none-eabi/4.3.2/thumb2/libgcc.a(_udivdi3.o)
 .ARM.extab     0x00000000        0x0 /home/user/CodeSourcery/Sourcery_G++_Lite/bin/../lib/gcc/arm-none-eabi/4.3.2/thumb2/libgcc.a(_udivdi3.o)
 .data          0x00000000        0x0 /home/user/CodeSourcery/Sourcery_G++_Lite/bin/../lib/gcc/arm-none-eabi/4.3.2/thumb2/libgcc.a(_udivsi3.o)
 .bss           0x00000000        0x0 /home/user/CodeSourcery/Sourcery_G++_Lite/bin/../lib/gcc/arm-none-eabi/4.3.2/thumb2/libgcc.a(_udivsi3.o)
 .text          0x00000000        0x0 /home/user/CodeSourcery/Sourcery_G++_Lite/bin/../lib/gcc/arm-none-eabi/4.3.2/thumb2/libgcc.a(_clz.o)
 .data          0x00000000        0x0 /home/user/CodeSourcery/Sourcery_G++_Lite/bin/../lib/gcc/arm-none-eabi/4.3.2/thumb2/libgcc.a(_clz.o)
 .bss           0x00000000        0x0 /home/user/CodeSourcery/Sourcery_G++_Lite/bin/../lib/gcc/arm-none-eabi/4.3.2/thumb2/libgcc.a(_clz.o)
 .text          0x00000000        0x0 /home/user/CodeSourcery/Sourcery_G++_Lite/bin/../lib/gcc/arm-none-eabi/4.3.2/../../../../arm-none-eabi/lib/thumb2/libc.a(lib_a-ctype_.o)
 .bss           0x00000000        0x0 /home/user/CodeSourcery/Sourcery_G++_Lite/bin/../lib/gcc/arm-none-eabi/4.3.2/../../../../arm-none-eabi/lib/thumb2/libc.a(lib_a-ctype_.o)
 .data          0x00000000        0x0 /home/user/CodeSourcery/Sourcery_G++_Lite/bin/../lib/gcc/arm-none-eabi/4.3.2/../../../../arm-none-eabi/lib/thumb2/libc.a(lib_a-memchr.o)
 .bss           0x00000000        0x0 /home/user/CodeSourcery/Sourcery_G++_Lite/bin/../lib/gcc/arm-none-eabi/4.3.2/../../../../arm-none-eabi/lib/thumb2/libc.a(lib_a-memchr.o)
 .data          0x00000000        0x0 /home/user/CodeSourcery/Sourcery_G++_Lite/bin/../lib/gcc/arm-none-eabi/4.3.2/../../../../arm-none-eabi/lib/thumb2/libc.a(lib_a-memcmp.o)
 .bss           0x00000000        0x0 /home/user/CodeSourcery/Sourcery_G++_Lite/bin/../lib/gcc/arm-none-eabi/4.3.2/../../../../arm-none-eabi/lib/thumb2/libc.a(lib_a-memcmp.o)
 .data          0x00000000        0x0 /home/user/CodeSourcery/Sourcery_G++_Lite/bin/../lib/gcc/arm-none-eabi/4.3.2/../../../../arm-none-eabi/lib/thumb2/libc.a(lib_a-memcpy.o)
 .bss           0x00000000        0x0 /home/user/CodeSourcery/Sourcery_G++_Lite/bin/../lib/gcc/arm-none-eabi/4.3.2/../../../../arm-none-eabi/lib/thumb2/libc.a(lib_a-memcpy.o)
 .data          0x00000000        0x0 /home/user/CodeSourcery/Sourcery_G++_Lite/bin/../lib/gcc/arm-none-eabi/4.3.2/../../../../arm-none-eabi/lib/thumb2/libc.a(lib_a-memmove.o)
 .bss           0x00000000        0x0 /home/user/CodeSourcery/Sourcery_G++_Lite/bin/../lib/gcc/arm-none-eabi/4.3.2/../../../../arm-none-eabi/lib/thumb2/libc.a(lib_a-memmove.o)
 .data          0x00000000        0x0 /home/user/CodeSourcery/Sourcery_G++_Lite/bin/../lib/gcc/arm-none-eabi/4.3.2/../../../../arm-none-eabi/lib/thumb2/libc.a(lib_a-memset.o)
 .bss           0x00000000        0x0 /home/user/CodeSourcery/Sourcery_G++_Lite/bin/../lib/gcc/arm-none-eabi/4.3.2/../../../../arm-none-eabi/lib/thumb2/libc.a(lib_a-memset.o)
 .data          0x00000000        0x0 /home/user/CodeSourcery/Sourcery_G++_Lite/bin/../lib/gcc/arm-none-eabi/4.3.2/../../../../arm-none-eabi/lib/thumb2/libc.a(lib_a-strcasecmp.o)
 .bss           0x00000000        0x0 /home/user/CodeSourcery/Sourcery_G++_Lite/bin/../lib/gcc/arm-none-eabi/4.3.2/../../../../arm-none-eabi/lib/thumb2/libc.a(lib_a-strcasecmp.o)
 .data          0x00000000        0x0 /home/user/CodeSourcery/Sourcery_G++_Lite/bin/../lib/gcc/arm-none-eabi/4.3.2/../../../../arm-none-eabi/lib/thumb2/libc.a(lib_a-strcmp.o)
 .bss           0x00000000        0x0 /home/user/CodeSourcery/Sourcery_G++_Lite/bin/../lib/gcc/arm-none-eabi/4.3.2/../../../../arm-none-eabi/lib/thumb2/libc.a(lib_a-strcmp.o)
 .data          0x00000000        0x0 /home/user/CodeSourcery/Sourcery_G++_Lite/bin/../lib/gcc/arm-none-eabi/4.3.2/../../../../arm-none-eabi/lib/thumb2/libc.a(lib_a-strlen.o)
 .bss           0x00000000        0x0 /home/user/CodeSourcery/Sourcery_G++_Lite/bin/../lib/gcc/arm-none-eabi/4.3.2/../../../../arm-none-eabi/lib/thumb2/libc.a(lib_a-strlen.o)
 .data          0x00000000        0x0 /home/user/CodeSourcery/Sourcery_G++_Lite/bin/../lib/gcc/arm-none-eabi/4.3.2/../../../../arm-none-eabi/lib/thumb2/libc.a(lib_a-strncasecmp.o)
 .bss           0x00000000        0x0 /home/user/CodeSourcery/Sourcery_G++_Lite/bin/../lib/gcc/arm-none-eabi/4.3.2/../../../../arm-none-eabi/lib/thumb2/libc.a(lib_a-strncasecmp.o)
 .data          0x00000000        0x0 /home/user/CodeSourcery/Sourcery_G++_Lite/bin/../lib/gcc/arm-none-eabi/4.3.2/../../../../arm-none-eabi/lib/thumb2/libc.a(lib_a-strncat.o)
 .bss           0x00000000        0x0 /home/user/CodeSourcery/Sourcery_G++_Lite/bin/../lib/gcc/arm-none-eabi/4.3.2/../../../../arm-none-eabi/lib/thumb2/libc.a(lib_a-strncat.o)
 .data          0x00000000        0x0 /home/user/CodeSourcery/Sourcery_G++_Lite/bin/../lib/gcc/arm-none-eabi/4.3.2/../../../../arm-none-eabi/lib/thumb2/libc.a(lib_a-strncmp.o)
 .bss           0x00000000        0x0 /home/user/CodeSourcery/Sourcery_G++_Lite/bin/../lib/gcc/arm-none-eabi/4.3.2/../../../../arm-none-eabi/lib/thumb2/libc.a(lib_a-strncmp.o)
 .data          0x00000000        0x0 /home/user/CodeSourcery/Sourcery_G++_Lite/bin/../lib/gcc/arm-none-eabi/4.3.2/../../../../arm-none-eabi/lib/thumb2/libc.a(lib_a-strncpy.o)
 .bss           0x00000000        0x0 /home/user/CodeSourcery/Sourcery_G++_Lite/bin/../lib/gcc/arm-none-eabi/4.3.2/../../../../arm-none-eabi/lib/thumb2/libc.a(lib_a-strncpy.o)

Memory Configuration

Name             Origin             Length             Attributes
FLASH            0x00000000         0x0001ffa8         xr
FLASH_CCFG       0x0001ffa8         0x00000058         xr
SRAM             0x20000000         0x00005000         xrw
GPRAM            0x11000000         0x00002000         xrw
*default*        0x00000000         0xffffffff

Linker script and memory map

LOAD obj_srf06-cc26xx/fault-handlers.o
LOAD obj_srf06-cc26xx/ccfg.o
LOAD obj_srf06-cc26xx/startup_gcc.o
LOAD slip-radio.co
LOAD obj_srf06-cc26xx/slip-net.o
LOAD obj_srf06-cc26xx/no-framer.o
LOAD contiki-srf06-cc26xx.a
LOAD /home/user/CodeSourcery/Sourcery_G++_Lite/bin/../lib/gcc/arm-none-eabi/4.3.2/../../../../arm-none-eabi/lib/thumb2/libm.a
START GROUP
LOAD /home/user/CodeSourcery/Sourcery_G++_Lite/bin/../lib/gcc/arm-none-eabi/4.3.2/thumb2/libgcc.a
LOAD /home/user/CodeSourcery/Sourcery_G++_Lite/bin/../lib/gcc/arm-none-eabi/4.3.2/../../../../arm-none-eabi/lib/thumb2/libc.a
END GROUP
                0x20005000                _estack = 0x20005000
                0x00000000                _Min_Heap_Size = 0x0
                0x00000100                _Min_Stack_Size = 0x100

.text           0x00000000     0xccdc
                0x00000000                _text = .
 *(SORT(.vectors))
 .vectors       0x00000000       0xc8 obj_srf06-cc26xx/startup_gcc.o
                0x00000000                g_pfnVectors
 *(SORT(.text*))
 .text.FaultISR
                0x000000c8       0x1c obj_srf06-cc26xx/fault-handlers.o
                0x000000c8                FaultISR
 .text.NmiSRHandler
                0x000000e4        0x4 obj_srf06-cc26xx/startup_gcc.o
                0x000000e4                NmiSR
 .text.IntDefaultHandler
                0x000000e8        0x4 obj_srf06-cc26xx/startup_gcc.o
                0x000000e8                SSI0IntHandler
                0x000000e8                SWEvent0IntHandler
                0x000000e8                uDMAIntHandler
                0x000000e8                WatchdogIntHandler
                0x000000e8                RFCHardwareIntHandler
                0x000000e8                Timer1BIntHandler
                0x000000e8                I2SIntHandler
                0x000000e8                Timer2BIntHandler
                0x000000e8                Timer2AIntHandler
                0x000000e8                Timer1AIntHandler
                0x000000e8                AONIntHandler
                0x000000e8                AUXSWEvent0IntHandler
                0x000000e8                AUXADCIntHandler
                0x000000e8                PendSVIntHandler
                0x000000e8                AUXSWEvent1IntHandler
                0x000000e8                SVCallIntHandler
                0x000000e8                MPUFaultIntHandler
                0x000000e8                SysTickIntHandler
                0x000000e8                BusFaultIntHandler
                0x000000e8                AONProgIntHandler
                0x000000e8                AUXCompAIntHandler
                0x000000e8                SSI1IntHandler
                0x000000e8                FlashIntHandler
                0x000000e8                uDMAErrIntHandler
                0x000000e8                UsageFaultIntHandler
                0x000000e8                RFCCmdAckIntHandler
                0x000000e8                CryptoIntHandler
                0x000000e8                Timer0AIntHandler
                0x000000e8                I2CIntHandler
                0x000000e8                DebugMonIntHandler
                0x000000e8                Timer0BIntHandler
                0x000000e8                AUXCombEventIntHandler
                0x000000e8                Timer3AIntHandler
                0x000000e8                DynProgIntHandler
                0x000000e8                Timer3BIntHandler
 .text.ResetISR
                0x000000ec       0x4c obj_srf06-cc26xx/startup_gcc.o
                0x000000ec                ResetISR
 .text.process_thread_http_example_process
                0x00000138       0xbc slip-radio.co
 .text.callback
                0x000001f4       0x64 slip-radio.co
 .text.process_thread_slip_radio_process
                0x00000258       0x80 slip-radio.co
 .text.slip_input_callback
                0x000002d8       0x24 slip-radio.co
 .text.slip_radio_cmd_handler
                0x000002fc       0xd0 slip-radio.co
 .text.packet_sent
                0x000003cc       0x28 slip-radio.co
 .text.slip_radio_cmd_output
                0x000003f4        0x8 slip-radio.co
                0x000003f4                slip_radio_cmd_output
 .text.slipnet_init
                0x000003fc        0x4 obj_srf06-cc26xx/slip-net.o
                0x000003fc                slipnet_init
 .text.slip_send_packet
                0x00000400       0x40 obj_srf06-cc26xx/slip-net.o
                0x00000400                slip_send_packet
 .text.slipnet_input
                0x00000440       0x24 obj_srf06-cc26xx/slip-net.o
                0x00000440                slipnet_input
 .text.hdr_length
                0x00000464        0x4 obj_srf06-cc26xx/no-framer.o
 .text.create   0x00000468        0x4 obj_srf06-cc26xx/no-framer.o
 .text.parse    0x0000046c       0x74 obj_srf06-cc26xx/no-framer.o
 .text.cmd_send
                0x000004e0        0x8 contiki-srf06-cc26xx.a(cmd.o)
                0x000004e0                cmd_send
 .text.cmd_input
                0x000004e8       0x30 contiki-srf06-cc26xx.a(cmd.o)
                0x000004e8                cmd_input
 .text.packetutils_deserialize_atts
                0x00000518       0x40 contiki-srf06-cc26xx.a(packetutils.o)
                0x00000518                packetutils_deserialize_atts
 .text.fade     0x00000558       0x54 contiki-srf06-cc26xx.a(contiki-main.o)
 .text.main     0x000005ac      0x254 contiki-srf06-cc26xx.a(contiki-main.o)
                0x000005ac                main
 .text.get_sensor_index
                0x00000800       0x24 contiki-srf06-cc26xx.a(sensors.o)
 .text.process_thread_sensors_process
                0x00000824       0xdc contiki-srf06-cc26xx.a(sensors.o)
 .text.sensors_changed
                0x00000900       0x24 contiki-srf06-cc26xx.a(sensors.o)
                0x00000900                sensors_changed
 .text.show_leds
                0x00000924       0x10 contiki-srf06-cc26xx.a(leds.o)
 .text.leds_off
                0x00000934       0x14 contiki-srf06-cc26xx.a(leds.o)
                0x00000934                leds_off
 .text.leds_on  0x00000948       0x14 contiki-srf06-cc26xx.a(leds.o)
                0x00000948                leds_on
 .text.leds_init
                0x0000095c       0x14 contiki-srf06-cc26xx.a(leds.o)
                0x0000095c                leds_init
 .text.wakeup_handler
                0x00000970       0x20 contiki-srf06-cc26xx.a(board.o)
 .text.board_init
                0x00000990       0x84 contiki-srf06-cc26xx.a(board.o)
                0x00000990                board_init
 .text.GPIO_setDio
                0x00000a14       0x10 contiki-srf06-cc26xx.a(leds-arch.o)
 .text.GPIO_clearMultiDio
                0x00000a24        0xc contiki-srf06-cc26xx.a(leds-arch.o)
 .text.leds_arch_init
                0x00000a30       0x30 contiki-srf06-cc26xx.a(leds-arch.o)
                0x00000a30                leds_arch_init
 .text.leds_arch_set
                0x00000a60       0x2c contiki-srf06-cc26xx.a(leds-arch.o)
                0x00000a60                leds_arch_set
 .text.GPIO_readDio
                0x00000a8c       0x10 contiki-srf06-cc26xx.a(button-sensor.o)
 .text.GPIO_clearEventDio
                0x00000a9c       0x10 contiki-srf06-cc26xx.a(button-sensor.o)
 .text.status   0x00000aac       0x20 contiki-srf06-cc26xx.a(button-sensor.o)
 .text.value_left
                0x00000acc       0x28 contiki-srf06-cc26xx.a(button-sensor.o)
 .text.value_right
                0x00000af4       0x28 contiki-srf06-cc26xx.a(button-sensor.o)
 .text.status_left
                0x00000b1c        0xc contiki-srf06-cc26xx.a(button-sensor.o)
 .text.status_right
                0x00000b28        0xc contiki-srf06-cc26xx.a(button-sensor.o)
 .text.config_buttons
                0x00000b34       0x70 contiki-srf06-cc26xx.a(button-sensor.o)
 .text.config_right
                0x00000ba4        0xc contiki-srf06-cc26xx.a(button-sensor.o)
 .text.config_left
                0x00000bb0        0xc contiki-srf06-cc26xx.a(button-sensor.o)
 .text.button_press_handler
                0x00000bbc       0x5c contiki-srf06-cc26xx.a(button-sensor.o)
 .text.select_on_bus
                0x00000c18       0x10 contiki-srf06-cc26xx.a(ext-flash.o)
 .text.deselect
                0x00000c28       0x10 contiki-srf06-cc26xx.a(ext-flash.o)
 .text.wait_ready
                0x00000c38       0x48 contiki-srf06-cc26xx.a(ext-flash.o)
 .text.verify_part
                0x00000c80       0x70 contiki-srf06-cc26xx.a(ext-flash.o)
 .text.ext_flash_close
                0x00000cf0       0x3c contiki-srf06-cc26xx.a(ext-flash.o)
                0x00000cf0                ext_flash_close
 .text.ext_flash_open
                0x00000d2c       0x50 contiki-srf06-cc26xx.a(ext-flash.o)
                0x00000d2c                ext_flash_open
 .text.ext_flash_init
                0x00000d7c        0xc contiki-srf06-cc26xx.a(ext-flash.o)
                0x00000d7c                ext_flash_init
 .text.PRCMLoadSet
                0x00000d88        0xc contiki-srf06-cc26xx.a(board-spi.o)
 .text.PRCMLoadGet
                0x00000d94       0x10 contiki-srf06-cc26xx.a(board-spi.o)
 .text.accessible
                0x00000da4       0x28 contiki-srf06-cc26xx.a(board-spi.o)
 .text.board_spi_write
                0x00000dcc       0x3c contiki-srf06-cc26xx.a(board-spi.o)
                0x00000dcc                board_spi_write
 .text.board_spi_read
                0x00000e08       0x44 contiki-srf06-cc26xx.a(board-spi.o)
                0x00000e08                board_spi_read
 .text.board_spi_flush
                0x00000e4c       0x20 contiki-srf06-cc26xx.a(board-spi.o)
                0x00000e4c                board_spi_flush
 .text.board_spi_open
                0x00000e6c       0xac contiki-srf06-cc26xx.a(board-spi.o)
                0x00000e6c                board_spi_open
 .text.board_spi_close
                0x00000f18       0x64 contiki-srf06-cc26xx.a(board-spi.o)
                0x00000f18                board_spi_close
 .text.get_channel
                0x00000f7c       0x30 contiki-srf06-cc26xx.a(prop-mode.o)
 .text.set_channel
                0x00000fac       0x3c contiki-srf06-cc26xx.a(prop-mode.o)
 .text.get_tx_power_array_last_element
                0x00000fe8       0x24 contiki-srf06-cc26xx.a(prop-mode.o)
 .text.get_object
                0x0000100c        0x4 contiki-srf06-cc26xx.a(prop-mode.o)
 .text.set_object
                0x00001010        0x4 contiki-srf06-cc26xx.a(prop-mode.o)
 .text.rf_is_on
                0x00001014       0x1c contiki-srf06-cc26xx.a(prop-mode.o)
 .text.request  0x00001030       0x10 contiki-srf06-cc26xx.a(prop-mode.o)
 .text.soft_off_prop
                0x00001040       0x2c contiki-srf06-cc26xx.a(prop-mode.o)
 .text.rx_off_prop
                0x0000106c       0x3c contiki-srf06-cc26xx.a(prop-mode.o)
 .text.prop_div_radio_setup
                0x000010a8       0x48 contiki-srf06-cc26xx.a(prop-mode.o)
 .text.prop_fs  0x000010f0       0x28 contiki-srf06-cc26xx.a(prop-mode.o)
 .text.rx_on_prop
                0x00001118       0x5c contiki-srf06-cc26xx.a(prop-mode.o)
 .text.soft_on_prop
                0x00001174       0x20 contiki-srf06-cc26xx.a(prop-mode.o)
 .text.off      0x00001194       0x28 contiki-srf06-cc26xx.a(prop-mode.o)
 .text.on       0x000011bc      0x1ec contiki-srf06-cc26xx.a(prop-mode.o)
 .text.set_value
                0x000013a8       0xdc contiki-srf06-cc26xx.a(prop-mode.o)
 .text.get_value
                0x00001484       0xd8 contiki-srf06-cc26xx.a(prop-mode.o)
 .text.channel_clear
                0x0000155c       0x70 contiki-srf06-cc26xx.a(prop-mode.o)
 .text.receiving_packet
                0x000015cc       0x18 contiki-srf06-cc26xx.a(prop-mode.o)
 .text.prepare  0x000015e4       0x1c contiki-srf06-cc26xx.a(prop-mode.o)
 .text.pending_packet
                0x00001600       0x2c contiki-srf06-cc26xx.a(prop-mode.o)
 .text.read_frame
                0x0000162c       0x4c contiki-srf06-cc26xx.a(prop-mode.o)
 .text.transmit
                0x00001678       0x8c contiki-srf06-cc26xx.a(prop-mode.o)
 .text.send     0x00001704       0x10 contiki-srf06-cc26xx.a(prop-mode.o)
 .text.init     0x00001714       0x7c contiki-srf06-cc26xx.a(prop-mode.o)
 .text.PRCMLoadSet
                0x00001790        0xc contiki-srf06-cc26xx.a(clock.o)
 .text.PRCMLoadGet
                0x0000179c       0x10 contiki-srf06-cc26xx.a(clock.o)
 .text.power_domain_on
                0x000017ac       0x20 contiki-srf06-cc26xx.a(clock.o)
 .text.clock_init
                0x000017cc       0x8c contiki-srf06-cc26xx.a(clock.o)
                0x000017cc                clock_init
 .text.update_clock_variable
                0x00001858       0x30 contiki-srf06-cc26xx.a(clock.o)
 .text.clock_time
                0x00001888       0x14 contiki-srf06-cc26xx.a(clock.o)
                0x00001888                clock_time
 .text.clock_seconds
                0x0000189c       0x18 contiki-srf06-cc26xx.a(clock.o)
                0x0000189c                clock_seconds
 .text.clock_update
                0x000018b4       0x14 contiki-srf06-cc26xx.a(clock.o)
                0x000018b4                clock_update
 .text.rtimer_arch_init
                0x000018c8        0x4 contiki-srf06-cc26xx.a(rtimer-arch.o)
                0x000018c8                rtimer_arch_init
 .text.rtimer_arch_now
                0x000018cc        0x8 contiki-srf06-cc26xx.a(rtimer-arch.o)
                0x000018cc                rtimer_arch_now
 .text.rtimer_arch_schedule
                0x000018d4        0xc contiki-srf06-cc26xx.a(rtimer-arch.o)
                0x000018d4                rtimer_arch_schedule
 .text.AONRTCEventClear
                0x000018e0       0x30 contiki-srf06-cc26xx.a(soc-rtc.o)
 .text.AONRTCEventGet
                0x00001910       0x34 contiki-srf06-cc26xx.a(soc-rtc.o)
 .text.AONRTCChannelEnable
                0x00001944       0x34 contiki-srf06-cc26xx.a(soc-rtc.o)
 .text.AONRTCChannelDisable
                0x00001978       0x34 contiki-srf06-cc26xx.a(soc-rtc.o)
 .text.AONRTCCompareValueSet
                0x000019ac       0x2c contiki-srf06-cc26xx.a(soc-rtc.o)
 .text.soc_rtc_schedule_one_shot
                0x000019d8       0x1c contiki-srf06-cc26xx.a(soc-rtc.o)
                0x000019d8                soc_rtc_schedule_one_shot
 .text.soc_rtc_last_isr_time
                0x000019f4        0xc contiki-srf06-cc26xx.a(soc-rtc.o)
                0x000019f4                soc_rtc_last_isr_time
 .text.AONRTCIntHandler
                0x00001a00       0x70 contiki-srf06-cc26xx.a(soc-rtc.o)
                0x00001a00                AONRTCIntHandler
 .text.soc_rtc_init
                0x00001a70       0x94 contiki-srf06-cc26xx.a(soc-rtc.o)
                0x00001a70                soc_rtc_init
 .text.WatchdogReloadSet
                0x00001b04        0xc contiki-srf06-cc26xx.a(contiki-watchdo)
 .text.watchdog_periodic
                0x00001b10       0x18 contiki-srf06-cc26xx.a(contiki-watchdo)
                0x00001b10                watchdog_periodic
 .text.unlock_config
                0x00001b28       0x2c contiki-srf06-cc26xx.a(contiki-watchdo)
 .text.lock_config
                0x00001b54       0x20 contiki-srf06-cc26xx.a(contiki-watchdo)
 .text.watchdog_start
                0x00001b74       0x20 contiki-srf06-cc26xx.a(contiki-watchdo)
                0x00001b74                watchdog_start
 .text.watchdog_init
                0x00001b94       0x14 contiki-srf06-cc26xx.a(contiki-watchdo)
                0x00001b94                watchdog_init
 .text.putchar  0x00001ba8       0x10 contiki-srf06-cc26xx.a(putchar.o)
                0x00001ba8                putchar
 .text.dbg_send_bytes
                0x00001bb8       0x2c contiki-srf06-cc26xx.a(putchar.o)
                0x00001bb8                dbg_send_bytes
 .text.puts     0x00001be4       0x2c contiki-srf06-cc26xx.a(putchar.o)
                0x00001be4                puts
 .text.ieee_addr_cpy_to
                0x00001c10       0x3c contiki-srf06-cc26xx.a(ieee-addr.o)
                0x00001c10                ieee_addr_cpy_to
 .text.slip_arch_init
                0x00001c4c       0x10 contiki-srf06-cc26xx.a(slip-arch.o)
                0x00001c4c                slip_arch_init
 .text.slip_arch_writeb
                0x00001c5c        0x8 contiki-srf06-cc26xx.a(slip-arch.o)
                0x00001c5c                slip_arch_writeb
 .text.slip_set_input_callback
                0x00001c64        0xc contiki-srf06-cc26xx.a(slip.o)
                0x00001c64                slip_set_input_callback
 .text.process_thread_slip_process
                0x00001c70      0x1c8 contiki-srf06-cc26xx.a(slip.o)
 .text.slip_input_byte
                0x00001e38       0xa8 contiki-srf06-cc26xx.a(slip.o)
                0x00001e38                slip_input_byte
 .text.PRCMLoadSet
                0x00001ee0        0xc contiki-srf06-cc26xx.a(cc26xx-uart.o)
 .text.PRCMLoadGet
                0x00001eec       0x10 contiki-srf06-cc26xx.a(cc26xx-uart.o)
 .text.UARTBusy
                0x00001efc        0x8 contiki-srf06-cc26xx.a(cc26xx-uart.o)
 .text.UARTIntClear
                0x00001f04        0x4 contiki-srf06-cc26xx.a(cc26xx-uart.o)
 .text.power_and_clock
                0x00001f08       0x38 contiki-srf06-cc26xx.a(cc26xx-uart.o)
 .text.accessible
                0x00001f40       0x28 contiki-srf06-cc26xx.a(cc26xx-uart.o)
 .text.disable_interrupts
                0x00001f68       0x34 contiki-srf06-cc26xx.a(cc26xx-uart.o)
 .text.enable   0x00001f9c       0xbc contiki-srf06-cc26xx.a(cc26xx-uart.o)
 .text.cc26xx_uart_write_byte
                0x00002058       0x24 contiki-srf06-cc26xx.a(cc26xx-uart.o)
                0x00002058                cc26xx_uart_write_byte
 .text.cc26xx_uart_set_input
                0x0000207c       0x58 contiki-srf06-cc26xx.a(cc26xx-uart.o)
                0x0000207c                cc26xx_uart_set_input
 .text.cc26xx_uart_busy
                0x000020d4       0x18 contiki-srf06-cc26xx.a(cc26xx-uart.o)
                0x000020d4                cc26xx_uart_busy
 .text.UART0IntHandler
                0x000020ec       0x50 contiki-srf06-cc26xx.a(cc26xx-uart.o)
                0x000020ec                UART0IntHandler
 .text.lpm_drop_handler
                0x0000213c       0x8c contiki-srf06-cc26xx.a(cc26xx-uart.o)
 .text.cc26xx_uart_init
                0x000021c8       0x24 contiki-srf06-cc26xx.a(cc26xx-uart.o)
                0x000021c8                cc26xx_uart_init
 .text.PRCMCacheRetentionDisable
                0x000021ec       0x10 contiki-srf06-cc26xx.a(lpm.o)
 .text.GPIO_setOutputEnableDio
                0x000021fc       0x10 contiki-srf06-cc26xx.a(lpm.o)
 .text.AONIOCFreezeEnable
                0x0000220c        0xc contiki-srf06-cc26xx.a(lpm.o)
 .text.AONRTCEventClear
                0x00002218       0x30 contiki-srf06-cc26xx.a(lpm.o)
 .text.AONWUCMcuPowerDownConfig
                0x00002248       0x14 contiki-srf06-cc26xx.a(lpm.o)
 .text.AONWUCMcuSRamConfig
                0x0000225c       0x14 contiki-srf06-cc26xx.a(lpm.o)
 .text.AONWUCDomainPowerDownEnable
                0x00002270       0x14 contiki-srf06-cc26xx.a(lpm.o)
 .text.AONWUCJtagPowerOff
                0x00002284        0xc contiki-srf06-cc26xx.a(lpm.o)
 .text.lpm_sleep
                0x00002290       0x14 contiki-srf06-cc26xx.a(lpm.o)
                0x00002290                lpm_sleep
 .text.lpm_pin_set_default_state
                0x000022a4       0x28 contiki-srf06-cc26xx.a(lpm.o)
                0x000022a4                lpm_pin_set_default_state
 .text.lpm_init
                0x000022cc       0x20 contiki-srf06-cc26xx.a(lpm.o)
                0x000022cc                lpm_init
 .text.lpm_unregister_module
                0x000022ec       0x10 contiki-srf06-cc26xx.a(lpm.o)
                0x000022ec                lpm_unregister_module
 .text.lpm_register_module
                0x000022fc       0x10 contiki-srf06-cc26xx.a(lpm.o)
                0x000022fc                lpm_register_module
 .text.IntMasterDisable
                0x0000230c       0x10 contiki-srf06-cc26xx.a(lpm.o)
 .text.IntMasterEnable
                0x0000231c       0x10 contiki-srf06-cc26xx.a(lpm.o)
 .text.lpm_drop
                0x0000232c      0x208 contiki-srf06-cc26xx.a(lpm.o)
                0x0000232c                lpm_drop
 .text.lpm_shutdown
                0x00002534      0x174 contiki-srf06-cc26xx.a(lpm.o)
                0x00002534                lpm_shutdown
 .text.gpio_interrupt_init
                0x000026a8       0x24 contiki-srf06-cc26xx.a(gpio-interrupt.)
                0x000026a8                gpio_interrupt_init
 .text.GPIOIntHandler
                0x000026cc       0x30 contiki-srf06-cc26xx.a(gpio-interrupt.)
                0x000026cc                GPIOIntHandler
 .text.gpio_interrupt_register_handler
                0x000026fc       0x28 contiki-srf06-cc26xx.a(gpio-interrupt.)
                0x000026fc                gpio_interrupt_register_handler
 .text.oscillators_request_hf_xosc
                0x00002724       0x2c contiki-srf06-cc26xx.a(oscillators.o)
                0x00002724                oscillators_request_hf_xosc
 .text.oscillators_select_lf_rcosc
                0x00002750       0x34 contiki-srf06-cc26xx.a(oscillators.o)
                0x00002750                oscillators_select_lf_rcosc
 .text.oscillators_select_lf_xosc
                0x00002784       0x50 contiki-srf06-cc26xx.a(oscillators.o)
                0x00002784                oscillators_select_lf_xosc
 .text.OSCHfSourceSwitch
                0x000027d4       0x10 contiki-srf06-cc26xx.a(oscillators.o)
 .text.oscillators_switch_to_hf_rc
                0x000027e4       0x2c contiki-srf06-cc26xx.a(oscillators.o)
                0x000027e4                oscillators_switch_to_hf_rc
 .text.oscillators_switch_to_hf_xosc
                0x00002810       0x28 contiki-srf06-cc26xx.a(oscillators.o)
                0x00002810                oscillators_switch_to_hf_xosc
 .text.PRCMLoadSet
                0x00002838        0xc contiki-srf06-cc26xx.a(rf-core.o)
 .text.PRCMLoadGet
                0x00002844       0x10 contiki-srf06-cc26xx.a(rf-core.o)
 .text.rf_core_is_accessible
                0x00002854       0x10 contiki-srf06-cc26xx.a(rf-core.o)
                0x00002854                rf_core_is_accessible
 .text.rf_core_wait_cmd_done
                0x00002864       0x30 contiki-srf06-cc26xx.a(rf-core.o)
                0x00002864                rf_core_wait_cmd_done
 .text.rf_core_cmd_done_en
                0x00002894       0x24 contiki-srf06-cc26xx.a(rf-core.o)
                0x00002894                rf_core_cmd_done_en
 .text.rf_core_cmd_done_dis
                0x000028b8       0x18 contiki-srf06-cc26xx.a(rf-core.o)
                0x000028b8                rf_core_cmd_done_dis
 .text.rf_core_get_last_radio_op
                0x000028d0        0xc contiki-srf06-cc26xx.a(rf-core.o)
                0x000028d0                rf_core_get_last_radio_op
 .text.rf_core_primary_mode_register
                0x000028dc        0xc contiki-srf06-cc26xx.a(rf-core.o)
                0x000028dc                rf_core_primary_mode_register
 .text.process_thread_rf_core_process
                0x000028e8       0x5c contiki-srf06-cc26xx.a(rf-core.o)
 .text.IntMasterDisable
                0x00002944       0x10 contiki-srf06-cc26xx.a(rf-core.o)
 .text.IntMasterEnable
                0x00002954       0x10 contiki-srf06-cc26xx.a(rf-core.o)
 .text.rf_core_setup_interrupts
                0x00002964       0x60 contiki-srf06-cc26xx.a(rf-core.o)
                0x00002964                rf_core_setup_interrupts
 .text.rf_core_send_cmd
                0x000029c4       0x9c contiki-srf06-cc26xx.a(rf-core.o)
                0x000029c4                rf_core_send_cmd
 .text.rf_core_power_up
                0x00002a60       0xbc contiki-srf06-cc26xx.a(rf-core.o)
                0x00002a60                rf_core_power_up
 .text.RFCCPE1IntHandler
                0x00002b1c       0x20 contiki-srf06-cc26xx.a(rf-core.o)
                0x00002b1c                RFCCPE1IntHandler
 .text.RFCCPE0IntHandler
                0x00002b3c       0x54 contiki-srf06-cc26xx.a(rf-core.o)
                0x00002b3c                RFCCPE0IntHandler
 .text.rf_core_init_radio_op
                0x00002b90       0x20 contiki-srf06-cc26xx.a(rf-core.o)
                0x00002b90                rf_core_init_radio_op
 .text.rf_core_stop_rat
                0x00002bb0       0x48 contiki-srf06-cc26xx.a(rf-core.o)
                0x00002bb0                rf_core_stop_rat
 .text.rf_core_power_down
                0x00002bf8       0xb8 contiki-srf06-cc26xx.a(rf-core.o)
                0x00002bf8                rf_core_power_down
 .text.rf_core_start_rat
                0x00002cb0       0x40 contiki-srf06-cc26xx.a(rf-core.o)
                0x00002cb0                rf_core_start_rat
 .text.rf_core_set_modesel
                0x00002cf0       0x3c contiki-srf06-cc26xx.a(rf-core.o)
                0x00002cf0                rf_core_set_modesel
 .text.rf_ble_is_active
                0x00002d2c        0xc contiki-srf06-cc26xx.a(rf-ble.o)
                0x00002d2c                rf_ble_is_active
 .text.random_init
                0x00002d38        0x8 contiki-srf06-cc26xx.a(random.o)
                0x00002d38                random_init
 .text.random_rand
                0x00002d40        0xc contiki-srf06-cc26xx.a(random.o)
                0x00002d40                random_rand
 .text.PRCMLoadSet
                0x00002d4c        0xc contiki-srf06-cc26xx.a(soc-trng.o)
 .text.PRCMLoadGet
                0x00002d58       0x10 contiki-srf06-cc26xx.a(soc-trng.o)
 .text.TRNGEnable
                0x00002d68        0xc contiki-srf06-cc26xx.a(soc-trng.o)
 .text.TRNGDisable
                0x00002d74        0xc contiki-srf06-cc26xx.a(soc-trng.o)
 .text.accessible
                0x00002d80       0x28 contiki-srf06-cc26xx.a(soc-trng.o)
 .text.power_up
                0x00002da8       0x38 contiki-srf06-cc26xx.a(soc-trng.o)
 .text.reset_synchronous
                0x00002de0       0x14 contiki-srf06-cc26xx.a(soc-trng.o)
 .text.request  0x00002df4       0x14 contiki-srf06-cc26xx.a(soc-trng.o)
 .text.read_number
                0x00002e08       0x28 contiki-srf06-cc26xx.a(soc-trng.o)
 .text.process_thread_soc_trng_process
                0x00002e30       0x70 contiki-srf06-cc26xx.a(soc-trng.o)
 .text.soc_trng_init
                0x00002ea0       0x24 contiki-srf06-cc26xx.a(soc-trng.o)
                0x00002ea0                soc_trng_init
 .text.TRNGIntHandler
                0x00002ec4       0x48 contiki-srf06-cc26xx.a(soc-trng.o)
                0x00002ec4                TRNGIntHandler
 .text.IntMasterDisable
                0x00002f0c       0x10 contiki-srf06-cc26xx.a(soc-trng.o)
 .text.IntMasterEnable
                0x00002f1c       0x10 contiki-srf06-cc26xx.a(soc-trng.o)
 .text.soc_trng_rand_synchronous
                0x00002f2c       0xa4 contiki-srf06-cc26xx.a(soc-trng.o)
                0x00002f2c                soc_trng_rand_synchronous
 .text.printf   0x00002fd0       0x20 contiki-srf06-cc26xx.a(dbg-printf.o)
                0x00002fd0                printf
 .text.write_str
                0x00002ff0       0x10 contiki-srf06-cc26xx.a(dbg-printf.o)
 .text.parse_uint
                0x00003000       0x24 contiki-srf06-cc26xx.a(strformat.o)
 .text.output_uint_hex
                0x00003024       0x48 contiki-srf06-cc26xx.a(strformat.o)
 .text.fill_space
                0x0000306c       0x38 contiki-srf06-cc26xx.a(strformat.o)
 .text.format_str_v
                0x000030a4      0x6c8 contiki-srf06-cc26xx.a(strformat.o)
                0x000030a4                format_str_v
 .text.call_callback
                0x0000376c       0x18 contiki-srf06-cc26xx.a(http-socket.o)
 .text.parse_url
                0x00003784       0xf4 contiki-srf06-cc26xx.a(http-socket.o)
 .text.start_request
                0x00003878       0xbc contiki-srf06-cc26xx.a(http-socket.o)
 .text.removesocket
                0x00003934       0x20 contiki-srf06-cc26xx.a(http-socket.o)
 .text.process_thread_http_socket_process
                0x00003954       0xc8 contiki-srf06-cc26xx.a(http-socket.o)
 .text.initialize_socket
                0x00003a1c       0x4c contiki-srf06-cc26xx.a(http-socket.o)
 .text.http_socket_get
                0x00003a68       0x4c contiki-srf06-cc26xx.a(http-socket.o)
                0x00003a68                http_socket_get
 .text.start_timeout_timer
                0x00003ab4       0x2c contiki-srf06-cc26xx.a(http-socket.o)
 .text.event    0x00003ae0      0x280 contiki-srf06-cc26xx.a(http-socket.o)
 .text.input    0x00003d60      0x594 contiki-srf06-cc26xx.a(http-socket.o)
 .text.http_socket_init
                0x000042f4       0x48 contiki-srf06-cc26xx.a(http-socket.o)
                0x000042f4                http_socket_init
 .text.autostart_start
                0x0000433c       0x18 contiki-srf06-cc26xx.a(autostart.o)
                0x0000433c                autostart_start
 .text.process_thread_ctimer_process
                0x00004354       0x8c contiki-srf06-cc26xx.a(ctimer.o)
 .text.ctimer_stop
                0x000043e0       0x28 contiki-srf06-cc26xx.a(ctimer.o)
                0x000043e0                ctimer_stop
 .text.ctimer_set_with_process
                0x00004408       0x44 contiki-srf06-cc26xx.a(ctimer.o)
                0x00004408                ctimer_set_with_process
 .text.ctimer_set
                0x0000444c       0x14 contiki-srf06-cc26xx.a(ctimer.o)
                0x0000444c                ctimer_set
 .text.ctimer_reset
                0x00004460       0x34 contiki-srf06-cc26xx.a(ctimer.o)
                0x00004460                ctimer_reset
 .text.ctimer_init
                0x00004494       0x24 contiki-srf06-cc26xx.a(ctimer.o)
                0x00004494                ctimer_init
 .text.energest_init
                0x000044b8        0x4 contiki-srf06-cc26xx.a(energest.o)
                0x000044b8                energest_init
 .text.etimer_expired
                0x000044bc        0xc contiki-srf06-cc26xx.a(etimer.o)
                0x000044bc                etimer_expired
 .text.etimer_pending
                0x000044c8       0x10 contiki-srf06-cc26xx.a(etimer.o)
                0x000044c8                etimer_pending
 .text.etimer_next_expiration_time
                0x000044d8       0x14 contiki-srf06-cc26xx.a(etimer.o)
                0x000044d8                etimer_next_expiration_time
 .text.update_time
                0x000044ec       0x44 contiki-srf06-cc26xx.a(etimer.o)
 .text.etimer_stop
                0x00004530       0x34 contiki-srf06-cc26xx.a(etimer.o)
                0x00004530                etimer_stop
 .text.etimer_request_poll
                0x00004564       0x10 contiki-srf06-cc26xx.a(etimer.o)
                0x00004564                etimer_request_poll
 .text.process_thread_etimer_process
                0x00004574       0xa0 contiki-srf06-cc26xx.a(etimer.o)
 .text.add_timer
                0x00004614       0x40 contiki-srf06-cc26xx.a(etimer.o)
 .text.etimer_restart
                0x00004654       0x10 contiki-srf06-cc26xx.a(etimer.o)
                0x00004654                etimer_restart
 .text.etimer_reset
                0x00004664       0x10 contiki-srf06-cc26xx.a(etimer.o)
                0x00004664                etimer_reset
 .text.etimer_set
                0x00004674       0x10 contiki-srf06-cc26xx.a(etimer.o)
                0x00004674                etimer_set
 .text.process_alloc_event
                0x00004684       0x10 contiki-srf06-cc26xx.a(process.o)
                0x00004684                process_alloc_event
 .text.process_init
                0x00004694       0x30 contiki-srf06-cc26xx.a(process.o)
                0x00004694                process_init
 .text.process_nevents
                0x000046c4       0x14 contiki-srf06-cc26xx.a(process.o)
                0x000046c4                process_nevents
 .text.process_post
                0x000046d8       0x48 contiki-srf06-cc26xx.a(process.o)
                0x000046d8                process_post
 .text.process_poll
                0x00004720       0x1c contiki-srf06-cc26xx.a(process.o)
                0x00004720                process_poll
 .text.process_is_running
                0x0000473c        0xc contiki-srf06-cc26xx.a(process.o)
                0x0000473c                process_is_running
 .text.exit_process
                0x00004748       0x8c contiki-srf06-cc26xx.a(process.o)
 .text.call_process
                0x000047d4       0x40 contiki-srf06-cc26xx.a(process.o)
 .text.process_post_synch
                0x00004814       0x14 contiki-srf06-cc26xx.a(process.o)
                0x00004814                process_post_synch
 .text.process_start
                0x00004828       0x30 contiki-srf06-cc26xx.a(process.o)
                0x00004828                process_start
 .text.do_poll  0x00004858       0x34 contiki-srf06-cc26xx.a(process.o)
 .text.process_run
                0x0000488c       0x90 contiki-srf06-cc26xx.a(process.o)
                0x0000488c                process_run
 .text.process_exit
                0x0000491c       0x10 contiki-srf06-cc26xx.a(process.o)
                0x0000491c                process_exit
 .text.rtimer_run_next
                0x0000492c       0x24 contiki-srf06-cc26xx.a(rtimer.o)
                0x0000492c                rtimer_run_next
 .text.rtimer_set
                0x00004950       0x24 contiki-srf06-cc26xx.a(rtimer.o)
                0x00004950                rtimer_set
 .text.rtimer_init
                0x00004974        0x8 contiki-srf06-cc26xx.a(rtimer.o)
                0x00004974                rtimer_init
 .text.timer_reset
                0x0000497c        0xc contiki-srf06-cc26xx.a(timer.o)
                0x0000497c                timer_reset
 .text.timer_expired
                0x00004988       0x1c contiki-srf06-cc26xx.a(timer.o)
                0x00004988                timer_expired
 .text.timer_restart
                0x000049a4        0xc contiki-srf06-cc26xx.a(timer.o)
                0x000049a4                timer_restart
 .text.timer_set
                0x000049b0       0x10 contiki-srf06-cc26xx.a(timer.o)
                0x000049b0                timer_set
 .text.process_thread_serial_line_process
                0x000049c0       0xa8 contiki-srf06-cc26xx.a(serial-line.o)
 .text.serial_line_init
                0x00004a68       0x24 contiki-srf06-cc26xx.a(serial-line.o)
                0x00004a68                serial_line_init
 .text.list_init
                0x00004a8c        0x8 contiki-srf06-cc26xx.a(list.o)
                0x00004a8c                list_init
 .text.list_head
                0x00004a94        0x4 contiki-srf06-cc26xx.a(list.o)
                0x00004a94                list_head
 .text.list_tail
                0x00004a98       0x10 contiki-srf06-cc26xx.a(list.o)
                0x00004a98                list_tail
 .text.list_remove
                0x00004aa8       0x28 contiki-srf06-cc26xx.a(list.o)
                0x00004aa8                list_remove
 .text.list_push
                0x00004ad0       0x14 contiki-srf06-cc26xx.a(list.o)
                0x00004ad0                list_push
 .text.list_add
                0x00004ae4       0x20 contiki-srf06-cc26xx.a(list.o)
                0x00004ae4                list_add
 .text.list_length
                0x00004b04       0x10 contiki-srf06-cc26xx.a(list.o)
                0x00004b04                list_length
 .text.list_item_next
                0x00004b14        0x8 contiki-srf06-cc26xx.a(list.o)
                0x00004b14                list_item_next
 .text.ringbuf_init
                0x00004b1c       0x10 contiki-srf06-cc26xx.a(ringbuf.o)
                0x00004b1c                ringbuf_init
 .text.ringbuf_get
                0x00004b2c       0x28 contiki-srf06-cc26xx.a(ringbuf.o)
                0x00004b2c                ringbuf_get
 .text.uip_add32
                0x00004b54       0x60 contiki-srf06-cc26xx.a(uip6.o)
                0x00004b54                uip_add32
 .text.chksum   0x00004bb4       0x38 contiki-srf06-cc26xx.a(uip6.o)
 .text.uip_unlisten
                0x00004bec       0x24 contiki-srf06-cc26xx.a(uip6.o)
                0x00004bec                uip_unlisten
 .text.uip_add_rcv_nxt
                0x00004c10       0x34 contiki-srf06-cc26xx.a(uip6.o)
 .text.uip_htons
                0x00004c44        0xc contiki-srf06-cc26xx.a(uip6.o)
                0x00004c44                uip_htons
 .text.uip_connect
                0x00004c50       0xd8 contiki-srf06-cc26xx.a(uip6.o)
                0x00004c50                uip_connect
 .text.upper_layer_chksum
                0x00004d28       0x50 contiki-srf06-cc26xx.a(uip6.o)
 .text.uip_udpchksum
                0x00004d78        0xc contiki-srf06-cc26xx.a(uip6.o)
                0x00004d78                uip_udpchksum
 .text.uip_tcpchksum
                0x00004d84        0xc contiki-srf06-cc26xx.a(uip6.o)
                0x00004d84                uip_tcpchksum
 .text.uip_icmp6chksum
                0x00004d90        0xc contiki-srf06-cc26xx.a(uip6.o)
                0x00004d90                uip_icmp6chksum
 .text.uip_htonl
                0x00004d9c       0x18 contiki-srf06-cc26xx.a(uip6.o)
                0x00004d9c                uip_htonl
 .text.uip_send
                0x00004db4       0x48 contiki-srf06-cc26xx.a(uip6.o)
                0x00004db4                uip_send
 .text.ext_hdr_options_process
                0x00004dfc       0xa0 contiki-srf06-cc26xx.a(uip6.o)
 .text.uip_udp_new
                0x00004e9c       0x90 contiki-srf06-cc26xx.a(uip6.o)
                0x00004e9c                uip_udp_new
 .text.remove_ext_hdr
                0x00004f2c       0x58 contiki-srf06-cc26xx.a(uip6.o)
                0x00004f2c                remove_ext_hdr
 .text.uip_process
                0x00004f84      0xc6c contiki-srf06-cc26xx.a(uip6.o)
                0x00004f84                uip_process
 .text.uip_init
                0x00005bf0       0x60 contiki-srf06-cc26xx.a(uip6.o)
                0x00005bf0                uip_init
 .text.uip_ds6_prefix_rm
                0x00005c50        0x8 contiki-srf06-cc26xx.a(uip-ds6.o)
                0x00005c50                uip_ds6_prefix_rm
 .text.uip_ds6_get_link_local
                0x00005c58       0x44 contiki-srf06-cc26xx.a(uip-ds6.o)
                0x00005c58                uip_ds6_get_link_local
 .text.uip_ds6_maddr_rm
                0x00005c9c        0x8 contiki-srf06-cc26xx.a(uip-ds6.o)
                0x00005c9c                uip_ds6_maddr_rm
 .text.get_match_length
                0x00005ca4       0x44 contiki-srf06-cc26xx.a(uip-ds6.o)
                0x00005ca4                get_match_length
 .text.uip_ds6_select_src
                0x00005ce8       0x98 contiki-srf06-cc26xx.a(uip-ds6.o)
                0x00005ce8                uip_ds6_select_src
 .text.uip_ds6_compute_reachable_time
                0x00005d80       0x28 contiki-srf06-cc26xx.a(uip-ds6.o)
                0x00005d80                uip_ds6_compute_reachable_time
 .text.uip_ds6_send_rs
                0x00005da8       0x38 contiki-srf06-cc26xx.a(uip-ds6.o)
                0x00005da8                uip_ds6_send_rs
 .text.uip_ds6_set_addr_iid
                0x00005de0       0x18 contiki-srf06-cc26xx.a(uip-ds6.o)
                0x00005de0                uip_ds6_set_addr_iid
 .text.uip_ds6_is_addr_onlink
                0x00005df8       0x40 contiki-srf06-cc26xx.a(uip-ds6.o)
                0x00005df8                uip_ds6_is_addr_onlink
 .text.uip_ds6_list_loop
                0x00005e38       0x48 contiki-srf06-cc26xx.a(uip-ds6.o)
                0x00005e38                uip_ds6_list_loop
 .text.uip_ds6_maddr_lookup
                0x00005e80       0x28 contiki-srf06-cc26xx.a(uip-ds6.o)
                0x00005e80                uip_ds6_maddr_lookup
 .text.uip_ds6_addr_rm
                0x00005ea8       0x48 contiki-srf06-cc26xx.a(uip-ds6.o)
                0x00005ea8                uip_ds6_addr_rm
 .text.uip_ds6_maddr_add
                0x00005ef0       0x3c contiki-srf06-cc26xx.a(uip-ds6.o)
                0x00005ef0                uip_ds6_maddr_add
 .text.uip_ds6_addr_lookup
                0x00005f2c       0x28 contiki-srf06-cc26xx.a(uip-ds6.o)
                0x00005f2c                uip_ds6_addr_lookup
 .text.uip_ds6_addr_add
                0x00005f54       0x98 contiki-srf06-cc26xx.a(uip-ds6.o)
                0x00005f54                uip_ds6_addr_add
 .text.uip_ds6_prefix_lookup
                0x00005fec       0x28 contiki-srf06-cc26xx.a(uip-ds6.o)
                0x00005fec                uip_ds6_prefix_lookup
 .text.uip_ds6_prefix_add
                0x00006014       0x68 contiki-srf06-cc26xx.a(uip-ds6.o)
                0x00006014                uip_ds6_prefix_add
 .text.uip_ds6_periodic
                0x0000607c       0x90 contiki-srf06-cc26xx.a(uip-ds6.o)
                0x0000607c                uip_ds6_periodic
 .text.uip_ds6_init
                0x0000610c       0xd0 contiki-srf06-cc26xx.a(uip-ds6.o)
                0x0000610c                uip_ds6_init
 .text.uip_ds6_nbr_ll_lookup
                0x000061dc       0x14 contiki-srf06-cc26xx.a(uip-ds6-nbr.o)
                0x000061dc                uip_ds6_nbr_ll_lookup
 .text.uip_ds6_nbr_ipaddr_from_lladdr
                0x000061f0        0x8 contiki-srf06-cc26xx.a(uip-ds6-nbr.o)
                0x000061f0                uip_ds6_nbr_ipaddr_from_lladdr
 .text.uip_ds6_nbr_lookup
                0x000061f8       0x38 contiki-srf06-cc26xx.a(uip-ds6-nbr.o)
                0x000061f8                uip_ds6_nbr_lookup
 .text.uip_ds6_nbr_refresh_reachable_state
                0x00006230       0x20 contiki-srf06-cc26xx.a(uip-ds6-nbr.o)
                0x00006230                uip_ds6_nbr_refresh_reachable_state
 .text.uip_ds6_nbr_get_ll
                0x00006250       0x14 contiki-srf06-cc26xx.a(uip-ds6-nbr.o)
                0x00006250                uip_ds6_nbr_get_ll
 .text.uip_ds6_nbr_rm
                0x00006264       0x18 contiki-srf06-cc26xx.a(uip-ds6-nbr.o)
                0x00006264                uip_ds6_nbr_rm
 .text.uip_ds6_neighbor_periodic
                0x0000627c       0xec contiki-srf06-cc26xx.a(uip-ds6-nbr.o)
                0x0000627c                uip_ds6_neighbor_periodic
 .text.uip_ds6_nbr_add
                0x00006368       0x58 contiki-srf06-cc26xx.a(uip-ds6-nbr.o)
                0x00006368                uip_ds6_nbr_add
 .text.uip_ds6_neighbors_init
                0x000063c0       0x1c contiki-srf06-cc26xx.a(uip-ds6-nbr.o)
                0x000063c0                uip_ds6_neighbors_init
 .text.uip_ds6_route_head
                0x000063dc       0x10 contiki-srf06-cc26xx.a(uip-ds6-route.o)
                0x000063dc                uip_ds6_route_head
 .text.uip_ds6_route_next
                0x000063ec        0xc contiki-srf06-cc26xx.a(uip-ds6-route.o)
                0x000063ec                uip_ds6_route_next
 .text.uip_ds6_defrt_choose
                0x000063f8       0x30 contiki-srf06-cc26xx.a(uip-ds6-route.o)
                0x000063f8                uip_ds6_defrt_choose
 .text.uip_ds6_defrt_lookup
                0x00006428       0x2c contiki-srf06-cc26xx.a(uip-ds6-route.o)
                0x00006428                uip_ds6_defrt_lookup
 .text.call_route_callback
                0x00006454       0x4c contiki-srf06-cc26xx.a(uip-ds6-route.o)
 .text.uip_ds6_defrt_rm
                0x000064a0       0x44 contiki-srf06-cc26xx.a(uip-ds6-route.o)
                0x000064a0                uip_ds6_defrt_rm
 .text.uip_ds6_defrt_periodic
                0x000064e4       0x34 contiki-srf06-cc26xx.a(uip-ds6-route.o)
                0x000064e4                uip_ds6_defrt_periodic
 .text.uip_ds6_route_lookup
                0x00006518       0x6c contiki-srf06-cc26xx.a(uip-ds6-route.o)
                0x00006518                uip_ds6_route_lookup
 .text.uip_ds6_defrt_add
                0x00006584       0x54 contiki-srf06-cc26xx.a(uip-ds6-route.o)
                0x00006584                uip_ds6_defrt_add
 .text.uip_ds6_route_nexthop
                0x000065d8       0x1c contiki-srf06-cc26xx.a(uip-ds6-route.o)
                0x000065d8                uip_ds6_route_nexthop
 .text.uip_ds6_route_rm
                0x000065f4       0x9c contiki-srf06-cc26xx.a(uip-ds6-route.o)
                0x000065f4                uip_ds6_route_rm
 .text.rm_routelist
                0x00006690       0x2c contiki-srf06-cc26xx.a(uip-ds6-route.o)
 .text.rm_routelist_callback
                0x000066bc        0x8 contiki-srf06-cc26xx.a(uip-ds6-route.o)
 .text.uip_ds6_route_init
                0x000066c4       0x48 contiki-srf06-cc26xx.a(uip-ds6-route.o)
                0x000066c4                uip_ds6_route_init
 .text.echo_reply_input
                0x0000670c       0x98 contiki-srf06-cc26xx.a(uip-icmp6.o)
 .text.uip_icmp6_input
                0x000067a4       0x3c contiki-srf06-cc26xx.a(uip-icmp6.o)
                0x000067a4                uip_icmp6_input
 .text.echo_request_input
                0x000067e0       0xb8 contiki-srf06-cc26xx.a(uip-icmp6.o)
 .text.uip_icmp6_register_input_handler
                0x00006898       0x10 contiki-srf06-cc26xx.a(uip-icmp6.o)
                0x00006898                uip_icmp6_register_input_handler
 .text.uip_icmp6_init
                0x000068a8       0x18 contiki-srf06-cc26xx.a(uip-icmp6.o)
                0x000068a8                uip_icmp6_init
 .text.uip_icmp6_error_output
                0x000068c0      0x15c contiki-srf06-cc26xx.a(uip-icmp6.o)
                0x000068c0                uip_icmp6_error_output
 .text.uip_nd6_init
                0x00006a1c       0x24 contiki-srf06-cc26xx.a(uip-nd6.o)
                0x00006a1c                uip_nd6_init
 .text.extract_lladdr_from_llao_aligned
                0x00006a40       0x20 contiki-srf06-cc26xx.a(uip-nd6.o)
 .text.na_input
                0x00006a60      0x190 contiki-srf06-cc26xx.a(uip-nd6.o)
 .text.create_llao
                0x00006bf0       0x28 contiki-srf06-cc26xx.a(uip-nd6.o)
 .text.ns_input
                0x00006c18      0x23c contiki-srf06-cc26xx.a(uip-nd6.o)
 .text.ra_input
                0x00006e54      0x384 contiki-srf06-cc26xx.a(uip-nd6.o)
                0x00006e54                ra_input
 .text.uip_nd6_rs_output
                0x000071d8       0xc0 contiki-srf06-cc26xx.a(uip-nd6.o)
                0x000071d8                uip_nd6_rs_output
 .text.uip_nd6_ns_output
                0x00007298      0x130 contiki-srf06-cc26xx.a(uip-nd6.o)
                0x00007298                uip_nd6_ns_output
 .text.ip64_addr_4to6
                0x000073c8       0x28 contiki-srf06-cc26xx.a(ip64-addr.o)
                0x000073c8                ip64_addr_4to6
 .text.dns_name_isequal
                0x000073f0       0xa0 contiki-srf06-cc26xx.a(resolv.o)
 .text.skip_name
                0x00007490       0x1c contiki-srf06-cc26xx.a(resolv.o)
 .text.encode_name
                0x000074ac       0x38 contiki-srf06-cc26xx.a(resolv.o)
 .text.mdns_announce_requested
                0x000074e4        0xc contiki-srf06-cc26xx.a(resolv.o)
 .text.mdns_write_announce_records
                0x000074f0       0x98 contiki-srf06-cc26xx.a(resolv.o)
 .text.mdns_prep_host_announce_packet
                0x00007588       0x78 contiki-srf06-cc26xx.a(resolv.o)
 .text.start_name_collision_check
                0x00007600       0x20 contiki-srf06-cc26xx.a(resolv.o)
 .text.resolv_found
                0x00007620       0xd0 contiki-srf06-cc26xx.a(resolv.o)
 .text.try_next_server
                0x000076f0       0x20 contiki-srf06-cc26xx.a(resolv.o)
 .text.remove_trailing_dots
                0x00007710       0x44 contiki-srf06-cc26xx.a(resolv.o)
 .text.resolv_lookup
                0x00007754       0x6c contiki-srf06-cc26xx.a(resolv.o)
                0x00007754                resolv_lookup
 .text.resolv_set_hostname
                0x000077c0       0x48 contiki-srf06-cc26xx.a(resolv.o)
                0x000077c0                resolv_set_hostname
 .text.process_thread_resolv_process
                0x00007808      0x5c0 contiki-srf06-cc26xx.a(resolv.o)
 .text.resolv_query
                0x00007dc8      0x118 contiki-srf06-cc26xx.a(resolv.o)
                0x00007dc8                resolv_query
 .text.process_thread_mdns_probe_process
                0x00007ee0       0xa4 contiki-srf06-cc26xx.a(resolv.o)
 .text.tcpip_output
                0x00007f84       0x14 contiki-srf06-cc26xx.a(tcpip.o)
                0x00007f84                tcpip_output
 .text.tcp_attach
                0x00007f98       0x10 contiki-srf06-cc26xx.a(tcpip.o)
                0x00007f98                tcp_attach
 .text.start_periodic_tcp_timer
                0x00007fa8       0x18 contiki-srf06-cc26xx.a(tcpip.o)
 .text.tcpip_uipcall
                0x00007fc0       0x70 contiki-srf06-cc26xx.a(tcpip.o)
                0x00007fc0                tcpip_uipcall
 .text.tcpip_input
                0x00008030       0x24 contiki-srf06-cc26xx.a(tcpip.o)
                0x00008030                tcpip_input
 .text.tcpip_icmp6_call
                0x00008054       0x24 contiki-srf06-cc26xx.a(tcpip.o)
                0x00008054                tcpip_icmp6_call
 .text.tcpip_poll_tcp
                0x00008078       0x14 contiki-srf06-cc26xx.a(tcpip.o)
                0x00008078                tcpip_poll_tcp
 .text.tcpip_poll_udp
                0x0000808c       0x14 contiki-srf06-cc26xx.a(tcpip.o)
                0x0000808c                tcpip_poll_udp
 .text.tcpip_ipv6_output
                0x000080a0      0x11c contiki-srf06-cc26xx.a(tcpip.o)
                0x000080a0                tcpip_ipv6_output
 .text.process_thread_tcpip_process
                0x000081bc      0x1d0 contiki-srf06-cc26xx.a(tcpip.o)
 .text.udp_new  0x0000838c       0x1c contiki-srf06-cc26xx.a(tcpip.o)
                0x0000838c                udp_new
 .text.tcp_connect
                0x000083a8       0x20 contiki-srf06-cc26xx.a(tcpip.o)
                0x000083a8                tcp_connect
 .text.call_event
                0x000083c8       0x10 contiki-srf06-cc26xx.a(tcp-socket.o)
 .text.relisten
                0x000083d8       0x14 contiki-srf06-cc26xx.a(tcp-socket.o)
 .text.tcp_socket_close
                0x000083ec       0x18 contiki-srf06-cc26xx.a(tcp-socket.o)
                0x000083ec                tcp_socket_close
 .text.newdata  0x00008404       0x48 contiki-srf06-cc26xx.a(tcp-socket.o)
 .text.senddata
                0x0000844c       0x28 contiki-srf06-cc26xx.a(tcp-socket.o)
 .text.process_thread_tcp_socket_process
                0x00008474      0x200 contiki-srf06-cc26xx.a(tcp-socket.o)
 .text.tcp_socket_send
                0x00008674       0x3c contiki-srf06-cc26xx.a(tcp-socket.o)
                0x00008674                tcp_socket_send
 .text.tcp_socket_send_str
                0x000086b0       0x18 contiki-srf06-cc26xx.a(tcp-socket.o)
                0x000086b0                tcp_socket_send_str
 .text.tcp_socket_connect
                0x000086c8       0x4c contiki-srf06-cc26xx.a(tcp-socket.o)
                0x000086c8                tcp_socket_connect
 .text.tcp_socket_register
                0x00008714       0x6c contiki-srf06-cc26xx.a(tcp-socket.o)
                0x00008714                tcp_socket_register
 .text.uip_debug_ipaddr_print
                0x00008780       0x94 contiki-srf06-cc26xx.a(uip-debug.o)
                0x00008780                uip_debug_ipaddr_print
 .text.uiplib_ip4addrconv
                0x00008814       0x60 contiki-srf06-cc26xx.a(uiplib.o)
                0x00008814                uiplib_ip4addrconv
 .text.uiplib_ip6addrconv
                0x00008874       0xd4 contiki-srf06-cc26xx.a(uiplib.o)
                0x00008874                uiplib_ip6addrconv
 .text.uip_nameserver_update
                0x00008948       0x20 contiki-srf06-cc26xx.a(uip-nameserver.)
                0x00008948                uip_nameserver_update
 .text.uip_nameserver_get
                0x00008968       0x10 contiki-srf06-cc26xx.a(uip-nameserver.)
                0x00008968                uip_nameserver_get
 .text.uip_udp_packet_send
                0x00008978       0x38 contiki-srf06-cc26xx.a(uip-udp-packet.)
                0x00008978                uip_udp_packet_send
 .text.uip_udp_packet_sendto
                0x000089b0       0x44 contiki-srf06-cc26xx.a(uip-udp-packet.)
                0x000089b0                uip_udp_packet_sendto
 .text.SafeHapiVoid
                0x000089f4       0x24 contiki-srf06-cc26xx.a(adi.o)
                0x000089f4                SafeHapiVoid
 .text.NOROM_AONRTCCurrentCompareValueGet
                0x00008a18       0x20 contiki-srf06-cc26xx.a(aon_rtc.o)
                0x00008a18                NOROM_AONRTCCurrentCompareValueGet
 .text.ChipInfo_GetDeviceIdHwRevCode
                0x00008a38        0xc contiki-srf06-cc26xx.a(chipinfo.o)
 .text.NOROM_ChipInfo_GetSupportedProtocol_BV
                0x00008a44       0x10 contiki-srf06-cc26xx.a(chipinfo.o)
                0x00008a44                NOROM_ChipInfo_GetSupportedProtocol_BV
 .text.NOROM_ChipInfo_GetChipFamily
                0x00008a54       0x4c contiki-srf06-cc26xx.a(chipinfo.o)
                0x00008a54                NOROM_ChipInfo_GetChipFamily
 .text.NOROM_ChipInfo_GetChipType
                0x00008aa0       0x2c contiki-srf06-cc26xx.a(chipinfo.o)
                0x00008aa0                NOROM_ChipInfo_GetChipType
 .text.NOROM_ChipInfo_GetHwRevision
                0x00008acc       0x70 contiki-srf06-cc26xx.a(chipinfo.o)
                0x00008acc                NOROM_ChipInfo_GetHwRevision
 .text.NOROM_ThisCodeIsBuiltForCC13xxHwRev20AndLater_HaltIfViolated
                0x00008b3c       0x1c contiki-srf06-cc26xx.a(chipinfo.o)
                0x00008b3c                NOROM_ThisCodeIsBuiltForCC13xxHwRev20AndLater_HaltIfViolated
 .text.NOROM_CPUcpsid
                0x00008b58        0x8 contiki-srf06-cc26xx.a(cpu.o)
                0x00008b58                NOROM_CPUcpsid
 .text.NOROM_CPUcpsie
                0x00008b60        0x8 contiki-srf06-cc26xx.a(cpu.o)
                0x00008b60                NOROM_CPUcpsie
 .text.NOROM_OSCClockSourceSet
                0x00008b68       0x60 contiki-srf06-cc26xx.a(osc.o)
                0x00008b68                NOROM_OSCClockSourceSet
 .text.NOROM_OSCClockSourceGet
                0x00008bc8       0x34 contiki-srf06-cc26xx.a(osc.o)
                0x00008bc8                NOROM_OSCClockSourceGet
 .text.NOROM_PowerCtrlSourceSet
                0x00008bfc       0x2c contiki-srf06-cc26xx.a(pwr_ctrl.o)
                0x00008bfc                NOROM_PowerCtrlSourceSet
 .text.NOROM_RFCRTrim
                0x00008c28       0xf8 contiki-srf06-cc26xx.a(rfc.o)
                0x00008c28                NOROM_RFCRTrim
 .text.NOROM_RFCAdi3VcoLdoVoltageMode
                0x00008d20       0x20 contiki-srf06-cc26xx.a(rfc.o)
                0x00008d20                NOROM_RFCAdi3VcoLdoVoltageMode
 .text.TrimAfterColdResetWakeupFromShutDown
                0x00008d40       0xdc contiki-srf06-cc26xx.a(setup.o)
 .text.NOROM_SetupTrimDevice
                0x00008e1c       0xa4 contiki-srf06-cc26xx.a(setup.o)
                0x00008e1c                NOROM_SetupTrimDevice
 .text.SetupSignExtendVddrTrimValue
                0x00008ec0        0x8 contiki-srf06-cc26xx.a(setup_rom.o)
 .text.NOROM_SetupSetVddrLevel
                0x00008ec8       0x78 contiki-srf06-cc26xx.a(setup_rom.o)
                0x00008ec8                NOROM_SetupSetVddrLevel
 .text.NOROM_SetupAfterColdResetWakeupFromShutDownCfg1
                0x00008f40       0xac contiki-srf06-cc26xx.a(setup_rom.o)
                0x00008f40                NOROM_SetupAfterColdResetWakeupFromShutDownCfg1
 .text.NOROM_SetupGetTrimForAnabypassValue1
                0x00008fec       0x64 contiki-srf06-cc26xx.a(setup_rom.o)
                0x00008fec                NOROM_SetupGetTrimForAnabypassValue1
 .text.NOROM_SetupGetTrimForRcOscLfRtuneCtuneTrim
                0x00009050       0x18 contiki-srf06-cc26xx.a(setup_rom.o)
                0x00009050                NOROM_SetupGetTrimForRcOscLfRtuneCtuneTrim
 .text.NOROM_SetupGetTrimForXoscHfIbiastherm
                0x00009068       0x10 contiki-srf06-cc26xx.a(setup_rom.o)
                0x00009068                NOROM_SetupGetTrimForXoscHfIbiastherm
 .text.NOROM_SetupGetTrimForAmpcompTh2
                0x00009078       0x10 contiki-srf06-cc26xx.a(setup_rom.o)
                0x00009078                NOROM_SetupGetTrimForAmpcompTh2
 .text.NOROM_SetupGetTrimForAmpcompTh1
                0x00009088       0x14 contiki-srf06-cc26xx.a(setup_rom.o)
                0x00009088                NOROM_SetupGetTrimForAmpcompTh1
 .text.NOROM_SetupGetTrimForAmpcompCtrl
                0x0000909c       0x68 contiki-srf06-cc26xx.a(setup_rom.o)
                0x0000909c                NOROM_SetupGetTrimForAmpcompCtrl
 .text.NOROM_SetupGetTrimForDblrLoopFilterResetVoltage
                0x00009104       0x18 contiki-srf06-cc26xx.a(setup_rom.o)
                0x00009104                NOROM_SetupGetTrimForDblrLoopFilterResetVoltage
 .text.NOROM_SetupGetTrimForAdcShModeEn
                0x0000911c       0x18 contiki-srf06-cc26xx.a(setup_rom.o)
                0x0000911c                NOROM_SetupGetTrimForAdcShModeEn
 .text.NOROM_SetupGetTrimForAdcShVbufEn
                0x00009134       0x18 contiki-srf06-cc26xx.a(setup_rom.o)
                0x00009134                NOROM_SetupGetTrimForAdcShVbufEn
 .text.NOROM_SetupGetTrimForXoscHfCtl
                0x0000914c       0x28 contiki-srf06-cc26xx.a(setup_rom.o)
                0x0000914c                NOROM_SetupGetTrimForXoscHfCtl
 .text.NOROM_SetupGetTrimForXoscHfFastStart
                0x00009174       0x10 contiki-srf06-cc26xx.a(setup_rom.o)
                0x00009174                NOROM_SetupGetTrimForXoscHfFastStart
 .text.NOROM_SetupGetTrimForRadcExtCfg
                0x00009184       0x30 contiki-srf06-cc26xx.a(setup_rom.o)
                0x00009184                NOROM_SetupGetTrimForRadcExtCfg
 .text.NOROM_SetupGetTrimForRcOscLfIBiasTrim
                0x000091b4       0x18 contiki-srf06-cc26xx.a(setup_rom.o)
                0x000091b4                NOROM_SetupGetTrimForRcOscLfIBiasTrim
 .text.NOROM_SetupGetTrimForXoscLfRegulatorAndCmirrwrRatio
                0x000091cc       0x18 contiki-srf06-cc26xx.a(setup_rom.o)
                0x000091cc                NOROM_SetupGetTrimForXoscLfRegulatorAndCmirrwrRatio
 .text.NOROM_SetupSetCacheModeAccordingToCcfgSetting
                0x000091e4       0x64 contiki-srf06-cc26xx.a(setup_rom.o)
                0x000091e4                NOROM_SetupSetCacheModeAccordingToCcfgSetting
 .text.NOROM_SetupSetAonRtcSubSecInc
                0x00009248       0x38 contiki-srf06-cc26xx.a(setup_rom.o)
                0x00009248                NOROM_SetupSetAonRtcSubSecInc
 .text.NOROM_SetupAfterColdResetWakeupFromShutDownCfg3
                0x00009280      0x15c contiki-srf06-cc26xx.a(setup_rom.o)
                0x00009280                NOROM_SetupAfterColdResetWakeupFromShutDownCfg3
 .text.NOROM_SetupAfterColdResetWakeupFromShutDownCfg2
                0x000093dc      0x10c contiki-srf06-cc26xx.a(setup_rom.o)
                0x000093dc                NOROM_SetupAfterColdResetWakeupFromShutDownCfg2
 .text.SetupSignExtendVddrTrimValue
                0x000094e8        0x8 contiki-srf06-cc26xx.a(sys_ctrl.o)
 .text.NOROM_SysCtrl_DCDC_VoltageConditionalControl
                0x000094f0       0x7c contiki-srf06-cc26xx.a(sys_ctrl.o)
                0x000094f0                NOROM_SysCtrl_DCDC_VoltageConditionalControl
 .text.NOROM_SysCtrlAdjustRechargeAfterPowerDown
                0x0000956c       0x64 contiki-srf06-cc26xx.a(sys_ctrl.o)
                0x0000956c                NOROM_SysCtrlAdjustRechargeAfterPowerDown
 .text.NOROM_SysCtrlSetRechargeBeforePowerDown
                0x000095d0      0x230 contiki-srf06-cc26xx.a(sys_ctrl.o)
                0x000095d0                NOROM_SysCtrlSetRechargeBeforePowerDown
 .text.NOROM_TRNGConfigure
                0x00009800       0x3c contiki-srf06-cc26xx.a(trng.o)
                0x00009800                NOROM_TRNGConfigure
 .text.linkaddr_cmp
                0x0000983c       0x14 contiki-srf06-cc26xx.a(linkaddr.o)
                0x0000983c                linkaddr_cmp
 .text.linkaddr_copy
                0x00009850        0xc contiki-srf06-cc26xx.a(linkaddr.o)
                0x00009850                linkaddr_copy
 .text.link_stats_init
                0x0000985c       0x28 contiki-srf06-cc26xx.a(link-stats.o)
                0x0000985c                link_stats_init
 .text.periodic
                0x00009884       0x2c contiki-srf06-cc26xx.a(link-stats.o)
 .text.key_from_index
                0x000098b0       0x1c contiki-srf06-cc26xx.a(nbr-table.o)
 .text.item_from_index
                0x000098cc       0x18 contiki-srf06-cc26xx.a(nbr-table.o)
 .text.index_from_key
                0x000098e4       0x20 contiki-srf06-cc26xx.a(nbr-table.o)
 .text.index_from_item
                0x00009904       0x18 contiki-srf06-cc26xx.a(nbr-table.o)
 .text.item_from_key
                0x0000991c       0x14 contiki-srf06-cc26xx.a(nbr-table.o)
 .text.key_from_item
                0x00009930        0xc contiki-srf06-cc26xx.a(nbr-table.o)
 .text.nbr_get_bit
                0x0000993c       0x28 contiki-srf06-cc26xx.a(nbr-table.o)
 .text.nbr_set_bit
                0x00009964       0x40 contiki-srf06-cc26xx.a(nbr-table.o)
 .text.nbr_table_register
                0x000099a4       0x28 contiki-srf06-cc26xx.a(nbr-table.o)
                0x000099a4                nbr_table_register
 .text.nbr_table_remove
                0x000099cc       0x2c contiki-srf06-cc26xx.a(nbr-table.o)
                0x000099cc                nbr_table_remove
 .text.nbr_table_get_lladdr
                0x000099f8       0x10 contiki-srf06-cc26xx.a(nbr-table.o)
                0x000099f8                nbr_table_get_lladdr
 .text.index_from_lladdr
                0x00009a08       0x40 contiki-srf06-cc26xx.a(nbr-table.o)
 .text.nbr_table_get_from_lladdr
                0x00009a48       0x2c contiki-srf06-cc26xx.a(nbr-table.o)
                0x00009a48                nbr_table_get_from_lladdr
 .text.nbr_table_next
                0x00009a74       0x34 contiki-srf06-cc26xx.a(nbr-table.o)
                0x00009a74                nbr_table_next
 .text.nbr_table_head
                0x00009aa8       0x38 contiki-srf06-cc26xx.a(nbr-table.o)
                0x00009aa8                nbr_table_head
 .text.remove_key
                0x00009ae0       0x60 contiki-srf06-cc26xx.a(nbr-table.o)
 .text.nbr_table_update_lladdr
                0x00009b40       0x48 contiki-srf06-cc26xx.a(nbr-table.o)
                0x00009b40                nbr_table_update_lladdr
 .text.nbr_table_add_lladdr
                0x00009b88       0xd8 contiki-srf06-cc26xx.a(nbr-table.o)
                0x00009b88                nbr_table_add_lladdr
 .text.netstack_init
                0x00009c60       0x38 contiki-srf06-cc26xx.a(netstack.o)
                0x00009c60                netstack_init
 .text.packetbuf_set_datalen
                0x00009c98        0xc contiki-srf06-cc26xx.a(packetbuf.o)
                0x00009c98                packetbuf_set_datalen
 .text.packetbuf_hdrptr
                0x00009ca4        0xc contiki-srf06-cc26xx.a(packetbuf.o)
                0x00009ca4                packetbuf_hdrptr
 .text.packetbuf_datalen
                0x00009cb0        0xc contiki-srf06-cc26xx.a(packetbuf.o)
                0x00009cb0                packetbuf_datalen
 .text.packetbuf_hdrlen
                0x00009cbc       0x18 contiki-srf06-cc26xx.a(packetbuf.o)
                0x00009cbc                packetbuf_hdrlen
 .text.packetbuf_dataptr
                0x00009cd4       0x14 contiki-srf06-cc26xx.a(packetbuf.o)
                0x00009cd4                packetbuf_dataptr
 .text.packetbuf_totlen
                0x00009ce8       0x14 contiki-srf06-cc26xx.a(packetbuf.o)
                0x00009ce8                packetbuf_totlen
 .text.packetbuf_set_attr
                0x00009cfc       0x10 contiki-srf06-cc26xx.a(packetbuf.o)
                0x00009cfc                packetbuf_set_attr
 .text.packetbuf_attr
                0x00009d0c        0xc contiki-srf06-cc26xx.a(packetbuf.o)
                0x00009d0c                packetbuf_attr
 .text.packetbuf_addr
                0x00009d18       0x10 contiki-srf06-cc26xx.a(packetbuf.o)
                0x00009d18                packetbuf_addr
 .text.packetbuf_holds_broadcast
                0x00009d28       0x14 contiki-srf06-cc26xx.a(packetbuf.o)
                0x00009d28                packetbuf_holds_broadcast
 .text.packetbuf_set_addr
                0x00009d3c       0x18 contiki-srf06-cc26xx.a(packetbuf.o)
                0x00009d3c                packetbuf_set_addr
 .text.packetbuf_attr_copyfrom
                0x00009d54       0x24 contiki-srf06-cc26xx.a(packetbuf.o)
                0x00009d54                packetbuf_attr_copyfrom
 .text.packetbuf_attr_copyto
                0x00009d78       0x20 contiki-srf06-cc26xx.a(packetbuf.o)
                0x00009d78                packetbuf_attr_copyto
 .text.packetbuf_copyto
                0x00009d98       0x44 contiki-srf06-cc26xx.a(packetbuf.o)
                0x00009d98                packetbuf_copyto
 .text.packetbuf_attr_clear
                0x00009ddc       0x30 contiki-srf06-cc26xx.a(packetbuf.o)
                0x00009ddc                packetbuf_attr_clear
 .text.packetbuf_clear
                0x00009e0c       0x24 contiki-srf06-cc26xx.a(packetbuf.o)
                0x00009e0c                packetbuf_clear
 .text.packetbuf_copyfrom
                0x00009e30       0x2c contiki-srf06-cc26xx.a(packetbuf.o)
                0x00009e30                packetbuf_copyfrom
 .text.queuebuf_to_packetbuf
                0x00009e5c       0x2c contiki-srf06-cc26xx.a(queuebuf.o)
                0x00009e5c                queuebuf_to_packetbuf
 .text.queuebuf_update_from_packetbuf
                0x00009e88       0x1c contiki-srf06-cc26xx.a(queuebuf.o)
                0x00009e88                queuebuf_update_from_packetbuf
 .text.queuebuf_init
                0x00009ea4       0x18 contiki-srf06-cc26xx.a(queuebuf.o)
                0x00009ea4                queuebuf_init
 .text.frame802154_has_panid
                0x00009ebc       0xc0 contiki-srf06-cc26xx.a(frame802154.o)
                0x00009ebc                frame802154_has_panid
 .text.frame802154_parse_fcf
                0x00009f7c       0x64 contiki-srf06-cc26xx.a(frame802154.o)
                0x00009f7c                frame802154_parse_fcf
 .text.frame802154_parse
                0x00009fe0      0x110 contiki-srf06-cc26xx.a(frame802154.o)
                0x00009fe0                frame802154_parse
 .text.send_packet
                0x0000a0f0       0x10 contiki-srf06-cc26xx.a(nullmac.o)
 .text.packet_input
                0x0000a100       0x10 contiki-srf06-cc26xx.a(nullmac.o)
 .text.on       0x0000a110       0x10 contiki-srf06-cc26xx.a(nullmac.o)
 .text.off      0x0000a120       0x10 contiki-srf06-cc26xx.a(nullmac.o)
 .text.channel_check_interval
                0x0000a130        0x4 contiki-srf06-cc26xx.a(nullmac.o)
 .text.init     0x0000a134        0x4 contiki-srf06-cc26xx.a(nullmac.o)
 .text.on       0x0000a138       0x28 contiki-srf06-cc26xx.a(contikimac.o)
 .text.off      0x0000a160       0x30 contiki-srf06-cc26xx.a(contikimac.o)
 .text.powercycle_turn_radio_off
                0x0000a190       0x1c contiki-srf06-cc26xx.a(contikimac.o)
 .text.recv_burst_off
                0x0000a1ac       0x14 contiki-srf06-cc26xx.a(contikimac.o)
 .text.turn_off
                0x0000a1c0       0x34 contiki-srf06-cc26xx.a(contikimac.o)
 .text.duty_cycle
                0x0000a1f4        0x4 contiki-srf06-cc26xx.a(contikimac.o)
 .text.turn_on  0x0000a1f8       0x3c contiki-srf06-cc26xx.a(contikimac.o)
 .text.schedule_powercycle_fixed
                0x0000a234       0x34 contiki-srf06-cc26xx.a(contikimac.o)
 .text.powercycle_wrapper
                0x0000a268      0x1dc contiki-srf06-cc26xx.a(contikimac.o)
 .text.init     0x0000a444       0x3c contiki-srf06-cc26xx.a(contikimac.o)
 .text.input_packet
                0x0000a480      0x114 contiki-srf06-cc26xx.a(contikimac.o)
 .text.send_packet
                0x0000a594      0x1d4 contiki-srf06-cc26xx.a(contikimac.o)
 .text.qsend_list
                0x0000a768       0xd8 contiki-srf06-cc26xx.a(contikimac.o)
 .text.qsend_packet
                0x0000a840       0x20 contiki-srf06-cc26xx.a(contikimac.o)
 .text.init     0x0000a860        0x4 contiki-srf06-cc26xx.a(nullsec.o)
 .text.input    0x0000a864       0x10 contiki-srf06-cc26xx.a(nullsec.o)
 .text.send     0x0000a874       0x20 contiki-srf06-cc26xx.a(nullsec.o)
 .text.AONWUCAuxPowerDownConfig
                0x0000a894       0x14 contiki-srf06-cc26xx.a(aux-ctrl.o)
 .text.AONWUCAuxWakeupEvent
                0x0000a8a8        0xc contiki-srf06-cc26xx.a(aux-ctrl.o)
 .text.aux_ctrl_power_down
                0x0000a8b4       0x5c contiki-srf06-cc26xx.a(aux-ctrl.o)
                0x0000a8b4                aux_ctrl_power_down
 .text.aux_ctrl_power_up
                0x0000a910       0x24 contiki-srf06-cc26xx.a(aux-ctrl.o)
                0x0000a910                aux_ctrl_power_up
 .text.IntMasterDisable
                0x0000a934       0x10 contiki-srf06-cc26xx.a(aux-ctrl.o)
 .text.IntMasterEnable
                0x0000a944       0x10 contiki-srf06-cc26xx.a(aux-ctrl.o)
 .text.aux_ctrl_unregister_consumer
                0x0000a954       0x24 contiki-srf06-cc26xx.a(aux-ctrl.o)
                0x0000a954                aux_ctrl_unregister_consumer
 .text.aux_ctrl_register_consumer
                0x0000a978       0x40 contiki-srf06-cc26xx.a(aux-ctrl.o)
                0x0000a978                aux_ctrl_register_consumer
 .text.sprintf  0x0000a9b8       0x30 contiki-srf06-cc26xx.a(dbg-sprintf.o)
                0x0000a9b8                sprintf
 .text.buffer_str
                0x0000a9e8       0x18 contiki-srf06-cc26xx.a(dbg-sprintf.o)
 .text.stimer_remaining
                0x0000aa00       0x10 contiki-srf06-cc26xx.a(stimer.o)
                0x0000aa00                stimer_remaining
 .text.stimer_expired
                0x0000aa10       0x20 contiki-srf06-cc26xx.a(stimer.o)
                0x0000aa10                stimer_expired
 .text.stimer_set
                0x0000aa30       0x10 contiki-srf06-cc26xx.a(stimer.o)
                0x0000aa30                stimer_set
 .text.memb_alloc
                0x0000aa40       0x2c contiki-srf06-cc26xx.a(memb.o)
                0x0000aa40                memb_alloc
 .text.memb_free
                0x0000aa6c       0x30 contiki-srf06-cc26xx.a(memb.o)
                0x0000aa6c                memb_free
 .text.memb_inmemb
                0x0000aa9c       0x20 contiki-srf06-cc26xx.a(memb.o)
                0x0000aa9c                memb_inmemb
 .text.memb_init
                0x0000aabc       0x20 contiki-srf06-cc26xx.a(memb.o)
                0x0000aabc                memb_init
 .text.NOROM_AONBatMonTemperatureGetDegC
                0x0000aadc       0x30 contiki-srf06-cc26xx.a(aon_batmon.o)
                0x0000aadc                NOROM_AONBatMonTemperatureGetDegC
 .text.AuxAdiDdiSafeWrite
                0x0000ab0c       0x40 contiki-srf06-cc26xx.a(ddi.o)
 .text.NOROM_DDI32RegWrite
                0x0000ab4c       0x10 contiki-srf06-cc26xx.a(ddi.o)
                0x0000ab4c                NOROM_DDI32RegWrite
 .text.mac_call_sent_callback
                0x0000ab5c       0x10 contiki-srf06-cc26xx.a(mac.o)
                0x0000ab5c                mac_call_sent_callback
 .text.mac_sequence_is_duplicate
                0x0000ab6c       0x50 contiki-srf06-cc26xx.a(mac-sequence.o)
                0x0000ab6c                mac_sequence_is_duplicate
 .text.mac_sequence_register_seqno
                0x0000abbc       0x74 contiki-srf06-cc26xx.a(mac-sequence.o)
                0x0000abbc                mac_sequence_register_seqno
 .text          0x0000ac30       0x2c /home/user/CodeSourcery/Sourcery_G++_Lite/bin/../lib/gcc/arm-none-eabi/4.3.2/thumb2/libgcc.a(_aeabi_uldivmod.o)
                0x0000ac30                __aeabi_uldivmod
 .text          0x0000ac5c       0x60 /home/user/CodeSourcery/Sourcery_G++_Lite/bin/../lib/gcc/arm-none-eabi/4.3.2/thumb2/libgcc.a(bpabi.o)
                0x0000ac5c                __gnu_uldivmod_helper
                0x0000ac8c                __gnu_ldivmod_helper
 .text          0x0000acbc        0x4 /home/user/CodeSourcery/Sourcery_G++_Lite/bin/../lib/gcc/arm-none-eabi/4.3.2/thumb2/libgcc.a(_dvmd_tls.o)
                0x0000acbc                __aeabi_ldiv0
                0x0000acbc                __aeabi_idiv0
 .text          0x0000acc0      0x424 /home/user/CodeSourcery/Sourcery_G++_Lite/bin/../lib/gcc/arm-none-eabi/4.3.2/thumb2/libgcc.a(_divdi3.o)
                0x0000acc0                __divdi3
 .text          0x0000b0e4      0x3e4 /home/user/CodeSourcery/Sourcery_G++_Lite/bin/../lib/gcc/arm-none-eabi/4.3.2/thumb2/libgcc.a(_udivdi3.o)
                0x0000b0e4                __udivdi3
 .text          0x0000b4c8       0x8c /home/user/CodeSourcery/Sourcery_G++_Lite/bin/../lib/gcc/arm-none-eabi/4.3.2/thumb2/libgcc.a(_udivsi3.o)
                0x0000b4c8                __udivsi3
                0x0000b4c8                __aeabi_uidiv
                0x0000b540                __aeabi_uidivmod
 .text          0x0000b554       0x80 /home/user/CodeSourcery/Sourcery_G++_Lite/bin/../lib/gcc/arm-none-eabi/4.3.2/../../../../arm-none-eabi/lib/thumb2/libc.a(lib_a-memchr.o)
                0x0000b554                memchr
 .text          0x0000b5d4       0x60 /home/user/CodeSourcery/Sourcery_G++_Lite/bin/../lib/gcc/arm-none-eabi/4.3.2/../../../../arm-none-eabi/lib/thumb2/libc.a(lib_a-memcmp.o)
                0x0000b5d4                memcmp
 .text          0x0000b634       0x98 /home/user/CodeSourcery/Sourcery_G++_Lite/bin/../lib/gcc/arm-none-eabi/4.3.2/../../../../arm-none-eabi/lib/thumb2/libc.a(lib_a-memcpy.o)
                0x0000b634                memcpy
 .text          0x0000b6cc       0xc0 /home/user/CodeSourcery/Sourcery_G++_Lite/bin/../lib/gcc/arm-none-eabi/4.3.2/../../../../arm-none-eabi/lib/thumb2/libc.a(lib_a-memmove.o)
                0x0000b6cc                memmove
 .text          0x0000b78c       0x88 /home/user/CodeSourcery/Sourcery_G++_Lite/bin/../lib/gcc/arm-none-eabi/4.3.2/../../../../arm-none-eabi/lib/thumb2/libc.a(lib_a-memset.o)
                0x0000b78c                memset
 .text          0x0000b814       0x80 /home/user/CodeSourcery/Sourcery_G++_Lite/bin/../lib/gcc/arm-none-eabi/4.3.2/../../../../arm-none-eabi/lib/thumb2/libc.a(lib_a-strcasecmp.o)
                0x0000b814                strcasecmp
 .text          0x0000b894       0x50 /home/user/CodeSourcery/Sourcery_G++_Lite/bin/../lib/gcc/arm-none-eabi/4.3.2/../../../../arm-none-eabi/lib/thumb2/libc.a(lib_a-strcmp.o)
                0x0000b894                strcmp
 .text          0x0000b8e4       0x34 /home/user/CodeSourcery/Sourcery_G++_Lite/bin/../lib/gcc/arm-none-eabi/4.3.2/../../../../arm-none-eabi/lib/thumb2/libc.a(lib_a-strlen.o)
                0x0000b8e4                strlen
 .text          0x0000b918       0x88 /home/user/CodeSourcery/Sourcery_G++_Lite/bin/../lib/gcc/arm-none-eabi/4.3.2/../../../../arm-none-eabi/lib/thumb2/libc.a(lib_a-strncasecmp.o)
                0x0000b918                strncasecmp
 .text          0x0000b9a0       0x58 /home/user/CodeSourcery/Sourcery_G++_Lite/bin/../lib/gcc/arm-none-eabi/4.3.2/../../../../arm-none-eabi/lib/thumb2/libc.a(lib_a-strncat.o)
                0x0000b9a0                strncat
 .text          0x0000b9f8       0x88 /home/user/CodeSourcery/Sourcery_G++_Lite/bin/../lib/gcc/arm-none-eabi/4.3.2/../../../../arm-none-eabi/lib/thumb2/libc.a(lib_a-strncmp.o)
                0x0000b9f8                strncmp
 .text          0x0000ba80       0x84 /home/user/CodeSourcery/Sourcery_G++_Lite/bin/../lib/gcc/arm-none-eabi/4.3.2/../../../../arm-none-eabi/lib/thumb2/libc.a(lib_a-strncpy.o)
                0x0000ba80                strncpy
 *(SORT(.rodata*))
 .rodata.cmd_handlers
                0x0000bb04        0x8 slip-radio.co
                0x0000bb04                cmd_handlers
 .rodata.autostart_processes
                0x0000bb0c        0xc slip-radio.co
                0x0000bb0c                autostart_processes
 .rodata.slipnet_driver
                0x0000bb18        0xc obj_srf06-cc26xx/slip-net.o
                0x0000bb18                slipnet_driver
 .rodata.no_framer
                0x0000bb24        0xc obj_srf06-cc26xx/no-framer.o
                0x0000bb24                no_framer
 .rodata.C.36.5360
                0x0000bb30       0x44 contiki-srf06-cc26xx.a(board.o)
 .rodata.button_left_sensor
                0x0000bb74       0x10 contiki-srf06-cc26xx.a(button-sensor.o)
                0x0000bb74                button_left_sensor
 .rodata.button_right_sensor
                0x0000bb84       0x10 contiki-srf06-cc26xx.a(button-sensor.o)
                0x0000bb84                button_right_sensor
 .rodata.patchImageGenfsk
                0x0000bb94      0x28c contiki-srf06-cc26xx.a(prop-mode.o)
 .rodata.mode_prop
                0x0000be20        0x8 contiki-srf06-cc26xx.a(prop-mode.o)
 .rodata.prop_mode_driver
                0x0000be28       0x38 contiki-srf06-cc26xx.a(prop-mode.o)
                0x0000be28                prop_mode_driver
 .rodata.patchGenfskRfe
                0x0000be60      0x6b4 contiki-srf06-cc26xx.a(prop-mode.o)
 .rodata.prop_mode_tx_power_779_930
                0x0000c514       0x88 contiki-srf06-cc26xx.a(prop-mode-tx-po)
                0x0000c514                prop_mode_tx_power_779_930
 .rodata.packetbuf
                0x0000c59c        0x4 contiki-srf06-cc26xx.a(packetbuf.o)
 .rodata.nullmac_driver
                0x0000c5a0       0x1c contiki-srf06-cc26xx.a(nullmac.o)
                0x0000c5a0                nullmac_driver
 .rodata.contikimac_driver
                0x0000c5bc       0x20 contiki-srf06-cc26xx.a(contikimac.o)
                0x0000c5bc                contikimac_driver
 .rodata.nullsec_driver
                0x0000c5dc       0x10 contiki-srf06-cc26xx.a(nullsec.o)
                0x0000c5dc                nullsec_driver
 .rodata.resolv_mdns_addr
                0x0000c5ec       0x10 contiki-srf06-cc26xx.a(resolv.o)
 .rodata.nsec_record.3646
                0x0000c5fc       0x12 contiki-srf06-cc26xx.a(resolv.o)
 .rodata.str1.1
                0x0000c60e      0x10f slip-radio.co
 .rodata.str1.1
                0x0000c71d        0x8 obj_srf06-cc26xx/slip-net.o
 .rodata.str1.1
                0x0000c725       0x11 contiki-srf06-cc26xx.a(cmd.o)
 .rodata.str1.1
                0x0000c736       0xd8 contiki-srf06-cc26xx.a(contiki-main.o)
 .rodata.str1.1
                0x0000c80e        0x8 contiki-srf06-cc26xx.a(sensors.o)
 .rodata.str1.1
                0x0000c816        0x7 contiki-srf06-cc26xx.a(button-sensor.o)
 .rodata.wbuf.5321
                0x0000c81d        0x4 contiki-srf06-cc26xx.a(ext-flash.o)
 .rodata.C.39.5324
                0x0000c821        0x2 contiki-srf06-cc26xx.a(ext-flash.o)
 .rodata.str1.1
                0x0000c823        0xc contiki-srf06-cc26xx.a(slip.o)
 .rodata.str1.1
                0x0000c82f       0x44 contiki-srf06-cc26xx.a(rf-core.o)
 .rodata.str1.1
                0x0000c873       0x1b contiki-srf06-cc26xx.a(soc-trng.o)
 .rodata.buffer.1223
                0x0000c88e       0x10 contiki-srf06-cc26xx.a(strformat.o)
 .rodata.str1.1
                0x0000c89e       0x33 contiki-srf06-cc26xx.a(strformat.o)
                                 0x37 (size before relaxing)
 .rodata.buffer.1237
                0x0000c8d1       0x10 contiki-srf06-cc26xx.a(strformat.o)
 .rodata.str1.1
                0x0000c8e1      0x13c contiki-srf06-cc26xx.a(http-socket.o)
                                0x14a (size before relaxing)
 .rodata.str1.1
                0x0000ca1d        0xf contiki-srf06-cc26xx.a(ctimer.o)
 .rodata.str1.1
                0x0000ca2c        0xc contiki-srf06-cc26xx.a(etimer.o)
 .rodata.str1.1
                0x0000ca38        0xe contiki-srf06-cc26xx.a(serial-line.o)
 .rodata.str1.1
                0x0000ca46       0x27 contiki-srf06-cc26xx.a(resolv.o)
                                 0x2d (size before relaxing)
 .rodata.str1.1
                0x0000ca6d        0xd contiki-srf06-cc26xx.a(tcpip.o)
 .rodata.str1.1
                0x0000ca7a       0x13 contiki-srf06-cc26xx.a(tcp-socket.o)
 .rodata.str1.1
                0x0000ca8d       0x28 contiki-srf06-cc26xx.a(uip-debug.o)
 .rodata.linkaddr_null
                0x0000cab5        0x8 contiki-srf06-cc26xx.a(linkaddr.o)
                0x0000cab5                linkaddr_null
 .rodata.str1.1
                0x0000cabd        0x8 contiki-srf06-cc26xx.a(nullmac.o)
 .rodata.str1.1
                0x0000cac5        0xb contiki-srf06-cc26xx.a(contikimac.o)
 .rodata.C.55.4252
                0x0000cad0        0x3 contiki-srf06-cc26xx.a(contikimac.o)
 .rodata.str1.1
                0x0000cad3        0x8 contiki-srf06-cc26xx.a(nullsec.o)
 .rodata        0x0000cadb      0x100 /home/user/CodeSourcery/Sourcery_G++_Lite/bin/../lib/gcc/arm-none-eabi/4.3.2/thumb2/libgcc.a(_clz.o)
                0x0000cadb                __clz_tab
 .rodata        0x0000cbdb      0x101 /home/user/CodeSourcery/Sourcery_G++_Lite/bin/../lib/gcc/arm-none-eabi/4.3.2/../../../../arm-none-eabi/lib/thumb2/libc.a(lib_a-ctype_.o)
                0x0000cbdb                _ctype_
                0x0000ccdc                _etext = .

.glue_7         0x0000ccdc        0x0
 .glue_7        0x0000ccdc        0x0 obj_srf06-cc26xx/fault-handlers.o
 .glue_7        0x0000ccdc        0x0 obj_srf06-cc26xx/ccfg.o
 .glue_7        0x0000ccdc        0x0 obj_srf06-cc26xx/startup_gcc.o
 .glue_7        0x0000ccdc        0x0 slip-radio.co
 .glue_7        0x0000ccdc        0x0 obj_srf06-cc26xx/slip-net.o
 .glue_7        0x0000ccdc        0x0 obj_srf06-cc26xx/no-framer.o
 .glue_7        0x0000ccdc        0x0 contiki-srf06-cc26xx.a(cmd.o)
 .glue_7        0x0000ccdc        0x0 contiki-srf06-cc26xx.a(packetutils.o)
 .glue_7        0x0000ccdc        0x0 contiki-srf06-cc26xx.a(contiki-main.o)
 .glue_7        0x0000ccdc        0x0 contiki-srf06-cc26xx.a(sensors.o)
 .glue_7        0x0000ccdc        0x0 contiki-srf06-cc26xx.a(leds.o)
 .glue_7        0x0000ccdc        0x0 contiki-srf06-cc26xx.a(board.o)
 .glue_7        0x0000ccdc        0x0 contiki-srf06-cc26xx.a(launchpad-senso)
 .glue_7        0x0000ccdc        0x0 contiki-srf06-cc26xx.a(leds-arch.o)
 .glue_7        0x0000ccdc        0x0 contiki-srf06-cc26xx.a(button-sensor.o)
 .glue_7        0x0000ccdc        0x0 contiki-srf06-cc26xx.a(ext-flash.o)
 .glue_7        0x0000ccdc        0x0 contiki-srf06-cc26xx.a(board-spi.o)
 .glue_7        0x0000ccdc        0x0 contiki-srf06-cc26xx.a(prop-mode.o)
 .glue_7        0x0000ccdc        0x0 contiki-srf06-cc26xx.a(prop-mode-tx-po)
 .glue_7        0x0000ccdc        0x0 contiki-srf06-cc26xx.a(clock.o)
 .glue_7        0x0000ccdc        0x0 contiki-srf06-cc26xx.a(rtimer-arch.o)
 .glue_7        0x0000ccdc        0x0 contiki-srf06-cc26xx.a(soc-rtc.o)
 .glue_7        0x0000ccdc        0x0 contiki-srf06-cc26xx.a(contiki-watchdo)
 .glue_7        0x0000ccdc        0x0 contiki-srf06-cc26xx.a(putchar.o)
 .glue_7        0x0000ccdc        0x0 contiki-srf06-cc26xx.a(ieee-addr.o)
 .glue_7        0x0000ccdc        0x0 contiki-srf06-cc26xx.a(slip-arch.o)
 .glue_7        0x0000ccdc        0x0 contiki-srf06-cc26xx.a(slip.o)
 .glue_7        0x0000ccdc        0x0 contiki-srf06-cc26xx.a(cc26xx-uart.o)
 .glue_7        0x0000ccdc        0x0 contiki-srf06-cc26xx.a(lpm.o)
 .glue_7        0x0000ccdc        0x0 contiki-srf06-cc26xx.a(gpio-interrupt.)
 .glue_7        0x0000ccdc        0x0 contiki-srf06-cc26xx.a(oscillators.o)
 .glue_7        0x0000ccdc        0x0 contiki-srf06-cc26xx.a(rf-core.o)
 .glue_7        0x0000ccdc        0x0 contiki-srf06-cc26xx.a(rf-ble.o)
 .glue_7        0x0000ccdc        0x0 contiki-srf06-cc26xx.a(random.o)
 .glue_7        0x0000ccdc        0x0 contiki-srf06-cc26xx.a(soc-trng.o)
 .glue_7        0x0000ccdc        0x0 contiki-srf06-cc26xx.a(dbg-printf.o)
 .glue_7        0x0000ccdc        0x0 contiki-srf06-cc26xx.a(strformat.o)
 .glue_7        0x0000ccdc        0x0 contiki-srf06-cc26xx.a(http-socket.o)
 .glue_7        0x0000ccdc        0x0 contiki-srf06-cc26xx.a(autostart.o)
 .glue_7        0x0000ccdc        0x0 contiki-srf06-cc26xx.a(ctimer.o)
 .glue_7        0x0000ccdc        0x0 contiki-srf06-cc26xx.a(energest.o)
 .glue_7        0x0000ccdc        0x0 contiki-srf06-cc26xx.a(etimer.o)
 .glue_7        0x0000ccdc        0x0 contiki-srf06-cc26xx.a(process.o)
 .glue_7        0x0000ccdc        0x0 contiki-srf06-cc26xx.a(rtimer.o)
 .glue_7        0x0000ccdc        0x0 contiki-srf06-cc26xx.a(timer.o)
 .glue_7        0x0000ccdc        0x0 contiki-srf06-cc26xx.a(serial-line.o)
 .glue_7        0x0000ccdc        0x0 contiki-srf06-cc26xx.a(list.o)
 .glue_7        0x0000ccdc        0x0 contiki-srf06-cc26xx.a(ringbuf.o)
 .glue_7        0x0000ccdc        0x0 contiki-srf06-cc26xx.a(uip6.o)
 .glue_7        0x0000ccdc        0x0 contiki-srf06-cc26xx.a(uip-ds6.o)
 .glue_7        0x0000ccdc        0x0 contiki-srf06-cc26xx.a(uip-ds6-nbr.o)
 .glue_7        0x0000ccdc        0x0 contiki-srf06-cc26xx.a(uip-ds6-route.o)
 .glue_7        0x0000ccdc        0x0 contiki-srf06-cc26xx.a(uip-icmp6.o)
 .glue_7        0x0000ccdc        0x0 contiki-srf06-cc26xx.a(uip-nd6.o)
 .glue_7        0x0000ccdc        0x0 contiki-srf06-cc26xx.a(ip64-addr.o)
 .glue_7        0x0000ccdc        0x0 contiki-srf06-cc26xx.a(resolv.o)
 .glue_7        0x0000ccdc        0x0 contiki-srf06-cc26xx.a(tcpip.o)
 .glue_7        0x0000ccdc        0x0 contiki-srf06-cc26xx.a(tcp-socket.o)
 .glue_7        0x0000ccdc        0x0 contiki-srf06-cc26xx.a(uip-debug.o)
 .glue_7        0x0000ccdc        0x0 contiki-srf06-cc26xx.a(uiplib.o)
 .glue_7        0x0000ccdc        0x0 contiki-srf06-cc26xx.a(uip-nameserver.)
 .glue_7        0x0000ccdc        0x0 contiki-srf06-cc26xx.a(uip-udp-packet.)
 .glue_7        0x0000ccdc        0x0 contiki-srf06-cc26xx.a(adi.o)
 .glue_7        0x0000ccdc        0x0 contiki-srf06-cc26xx.a(aon_rtc.o)
 .glue_7        0x0000ccdc        0x0 contiki-srf06-cc26xx.a(chipinfo.o)
 .glue_7        0x0000ccdc        0x0 contiki-srf06-cc26xx.a(cpu.o)
 .glue_7        0x0000ccdc        0x0 contiki-srf06-cc26xx.a(osc.o)
 .glue_7        0x0000ccdc        0x0 contiki-srf06-cc26xx.a(pwr_ctrl.o)
 .glue_7        0x0000ccdc        0x0 contiki-srf06-cc26xx.a(rfc.o)
 .glue_7        0x0000ccdc        0x0 contiki-srf06-cc26xx.a(setup.o)
 .glue_7        0x0000ccdc        0x0 contiki-srf06-cc26xx.a(setup_rom.o)
 .glue_7        0x0000ccdc        0x0 contiki-srf06-cc26xx.a(sys_ctrl.o)
 .glue_7        0x0000ccdc        0x0 contiki-srf06-cc26xx.a(trng.o)
 .glue_7        0x0000ccdc        0x0 contiki-srf06-cc26xx.a(linkaddr.o)
 .glue_7        0x0000ccdc        0x0 contiki-srf06-cc26xx.a(link-stats.o)
 .glue_7        0x0000ccdc        0x0 contiki-srf06-cc26xx.a(nbr-table.o)
 .glue_7        0x0000ccdc        0x0 contiki-srf06-cc26xx.a(netstack.o)
 .glue_7        0x0000ccdc        0x0 contiki-srf06-cc26xx.a(packetbuf.o)
 .glue_7        0x0000ccdc        0x0 contiki-srf06-cc26xx.a(queuebuf.o)
 .glue_7        0x0000ccdc        0x0 contiki-srf06-cc26xx.a(frame802154.o)
 .glue_7        0x0000ccdc        0x0 contiki-srf06-cc26xx.a(nullmac.o)
 .glue_7        0x0000ccdc        0x0 contiki-srf06-cc26xx.a(contikimac.o)
 .glue_7        0x0000ccdc        0x0 contiki-srf06-cc26xx.a(nullsec.o)
 .glue_7        0x0000ccdc        0x0 contiki-srf06-cc26xx.a(smartrf-setting)
 .glue_7        0x0000ccdc        0x0 contiki-srf06-cc26xx.a(aux-ctrl.o)
 .glue_7        0x0000ccdc        0x0 contiki-srf06-cc26xx.a(dbg-sprintf.o)
 .glue_7        0x0000ccdc        0x0 contiki-srf06-cc26xx.a(stimer.o)
 .glue_7        0x0000ccdc        0x0 contiki-srf06-cc26xx.a(memb.o)
 .glue_7        0x0000ccdc        0x0 contiki-srf06-cc26xx.a(aon_batmon.o)
 .glue_7        0x0000ccdc        0x0 contiki-srf06-cc26xx.a(ddi.o)
 .glue_7        0x0000ccdc        0x0 contiki-srf06-cc26xx.a(mac.o)
 .glue_7        0x0000ccdc        0x0 contiki-srf06-cc26xx.a(mac-sequence.o)
 .glue_7        0x0000ccdc        0x0 /home/user/CodeSourcery/Sourcery_G++_Lite/bin/../lib/gcc/arm-none-eabi/4.3.2/thumb2/libgcc.a(_aeabi_uldivmod.o)
 .glue_7        0x0000ccdc        0x0 /home/user/CodeSourcery/Sourcery_G++_Lite/bin/../lib/gcc/arm-none-eabi/4.3.2/thumb2/libgcc.a(bpabi.o)
 .glue_7        0x0000ccdc        0x0 /home/user/CodeSourcery/Sourcery_G++_Lite/bin/../lib/gcc/arm-none-eabi/4.3.2/thumb2/libgcc.a(_dvmd_tls.o)
 .glue_7        0x0000ccdc        0x0 /home/user/CodeSourcery/Sourcery_G++_Lite/bin/../lib/gcc/arm-none-eabi/4.3.2/thumb2/libgcc.a(_divdi3.o)
 .glue_7        0x0000ccdc        0x0 /home/user/CodeSourcery/Sourcery_G++_Lite/bin/../lib/gcc/arm-none-eabi/4.3.2/thumb2/libgcc.a(_udivdi3.o)
 .glue_7        0x0000ccdc        0x0 /home/user/CodeSourcery/Sourcery_G++_Lite/bin/../lib/gcc/arm-none-eabi/4.3.2/thumb2/libgcc.a(_udivsi3.o)
 .glue_7        0x0000ccdc        0x0 /home/user/CodeSourcery/Sourcery_G++_Lite/bin/../lib/gcc/arm-none-eabi/4.3.2/thumb2/libgcc.a(_clz.o)
 .glue_7        0x0000ccdc        0x0 /home/user/CodeSourcery/Sourcery_G++_Lite/bin/../lib/gcc/arm-none-eabi/4.3.2/../../../../arm-none-eabi/lib/thumb2/libc.a(lib_a-ctype_.o)
 .glue_7        0x0000ccdc        0x0 /home/user/CodeSourcery/Sourcery_G++_Lite/bin/../lib/gcc/arm-none-eabi/4.3.2/../../../../arm-none-eabi/lib/thumb2/libc.a(lib_a-memchr.o)
 .glue_7        0x0000ccdc        0x0 /home/user/CodeSourcery/Sourcery_G++_Lite/bin/../lib/gcc/arm-none-eabi/4.3.2/../../../../arm-none-eabi/lib/thumb2/libc.a(lib_a-memcmp.o)
 .glue_7        0x0000ccdc        0x0 /home/user/CodeSourcery/Sourcery_G++_Lite/bin/../lib/gcc/arm-none-eabi/4.3.2/../../../../arm-none-eabi/lib/thumb2/libc.a(lib_a-memcpy.o)
 .glue_7        0x0000ccdc        0x0 /home/user/CodeSourcery/Sourcery_G++_Lite/bin/../lib/gcc/arm-none-eabi/4.3.2/../../../../arm-none-eabi/lib/thumb2/libc.a(lib_a-memmove.o)
 .glue_7        0x0000ccdc        0x0 /home/user/CodeSourcery/Sourcery_G++_Lite/bin/../lib/gcc/arm-none-eabi/4.3.2/../../../../arm-none-eabi/lib/thumb2/libc.a(lib_a-memset.o)
 .glue_7        0x0000ccdc        0x0 /home/user/CodeSourcery/Sourcery_G++_Lite/bin/../lib/gcc/arm-none-eabi/4.3.2/../../../../arm-none-eabi/lib/thumb2/libc.a(lib_a-strcasecmp.o)
 .glue_7        0x0000ccdc        0x0 /home/user/CodeSourcery/Sourcery_G++_Lite/bin/../lib/gcc/arm-none-eabi/4.3.2/../../../../arm-none-eabi/lib/thumb2/libc.a(lib_a-strcmp.o)
 .glue_7        0x0000ccdc        0x0 /home/user/CodeSourcery/Sourcery_G++_Lite/bin/../lib/gcc/arm-none-eabi/4.3.2/../../../../arm-none-eabi/lib/thumb2/libc.a(lib_a-strlen.o)
 .glue_7        0x0000ccdc        0x0 /home/user/CodeSourcery/Sourcery_G++_Lite/bin/../lib/gcc/arm-none-eabi/4.3.2/../../../../arm-none-eabi/lib/thumb2/libc.a(lib_a-strncasecmp.o)
 .glue_7        0x0000ccdc        0x0 /home/user/CodeSourcery/Sourcery_G++_Lite/bin/../lib/gcc/arm-none-eabi/4.3.2/../../../../arm-none-eabi/lib/thumb2/libc.a(lib_a-strncat.o)
 .glue_7        0x0000ccdc        0x0 /home/user/CodeSourcery/Sourcery_G++_Lite/bin/../lib/gcc/arm-none-eabi/4.3.2/../../../../arm-none-eabi/lib/thumb2/libc.a(lib_a-strncmp.o)
 .glue_7        0x0000ccdc        0x0 /home/user/CodeSourcery/Sourcery_G++_Lite/bin/../lib/gcc/arm-none-eabi/4.3.2/../../../../arm-none-eabi/lib/thumb2/libc.a(lib_a-strncpy.o)

.glue_7t        0x0000ccdc        0x0
 .glue_7t       0x0000ccdc        0x0 obj_srf06-cc26xx/fault-handlers.o
 .glue_7t       0x0000ccdc        0x0 obj_srf06-cc26xx/ccfg.o
 .glue_7t       0x0000ccdc        0x0 obj_srf06-cc26xx/startup_gcc.o
 .glue_7t       0x0000ccdc        0x0 slip-radio.co
 .glue_7t       0x0000ccdc        0x0 obj_srf06-cc26xx/slip-net.o
 .glue_7t       0x0000ccdc        0x0 obj_srf06-cc26xx/no-framer.o
 .glue_7t       0x0000ccdc        0x0 contiki-srf06-cc26xx.a(cmd.o)
 .glue_7t       0x0000ccdc        0x0 contiki-srf06-cc26xx.a(packetutils.o)
 .glue_7t       0x0000ccdc        0x0 contiki-srf06-cc26xx.a(contiki-main.o)
 .glue_7t       0x0000ccdc        0x0 contiki-srf06-cc26xx.a(sensors.o)
 .glue_7t       0x0000ccdc        0x0 contiki-srf06-cc26xx.a(leds.o)
 .glue_7t       0x0000ccdc        0x0 contiki-srf06-cc26xx.a(board.o)
 .glue_7t       0x0000ccdc        0x0 contiki-srf06-cc26xx.a(launchpad-senso)
 .glue_7t       0x0000ccdc        0x0 contiki-srf06-cc26xx.a(leds-arch.o)
 .glue_7t       0x0000ccdc        0x0 contiki-srf06-cc26xx.a(button-sensor.o)
 .glue_7t       0x0000ccdc        0x0 contiki-srf06-cc26xx.a(ext-flash.o)
 .glue_7t       0x0000ccdc        0x0 contiki-srf06-cc26xx.a(board-spi.o)
 .glue_7t       0x0000ccdc        0x0 contiki-srf06-cc26xx.a(prop-mode.o)
 .glue_7t       0x0000ccdc        0x0 contiki-srf06-cc26xx.a(prop-mode-tx-po)
 .glue_7t       0x0000ccdc        0x0 contiki-srf06-cc26xx.a(clock.o)
 .glue_7t       0x0000ccdc        0x0 contiki-srf06-cc26xx.a(rtimer-arch.o)
 .glue_7t       0x0000ccdc        0x0 contiki-srf06-cc26xx.a(soc-rtc.o)
 .glue_7t       0x0000ccdc        0x0 contiki-srf06-cc26xx.a(contiki-watchdo)
 .glue_7t       0x0000ccdc        0x0 contiki-srf06-cc26xx.a(putchar.o)
 .glue_7t       0x0000ccdc        0x0 contiki-srf06-cc26xx.a(ieee-addr.o)
 .glue_7t       0x0000ccdc        0x0 contiki-srf06-cc26xx.a(slip-arch.o)
 .glue_7t       0x0000ccdc        0x0 contiki-srf06-cc26xx.a(slip.o)
 .glue_7t       0x0000ccdc        0x0 contiki-srf06-cc26xx.a(cc26xx-uart.o)
 .glue_7t       0x0000ccdc        0x0 contiki-srf06-cc26xx.a(lpm.o)
 .glue_7t       0x0000ccdc        0x0 contiki-srf06-cc26xx.a(gpio-interrupt.)
 .glue_7t       0x0000ccdc        0x0 contiki-srf06-cc26xx.a(oscillators.o)
 .glue_7t       0x0000ccdc        0x0 contiki-srf06-cc26xx.a(rf-core.o)
 .glue_7t       0x0000ccdc        0x0 contiki-srf06-cc26xx.a(rf-ble.o)
 .glue_7t       0x0000ccdc        0x0 contiki-srf06-cc26xx.a(random.o)
 .glue_7t       0x0000ccdc        0x0 contiki-srf06-cc26xx.a(soc-trng.o)
 .glue_7t       0x0000ccdc        0x0 contiki-srf06-cc26xx.a(dbg-printf.o)
 .glue_7t       0x0000ccdc        0x0 contiki-srf06-cc26xx.a(strformat.o)
 .glue_7t       0x0000ccdc        0x0 contiki-srf06-cc26xx.a(http-socket.o)
 .glue_7t       0x0000ccdc        0x0 contiki-srf06-cc26xx.a(autostart.o)
 .glue_7t       0x0000ccdc        0x0 contiki-srf06-cc26xx.a(ctimer.o)
 .glue_7t       0x0000ccdc        0x0 contiki-srf06-cc26xx.a(energest.o)
 .glue_7t       0x0000ccdc        0x0 contiki-srf06-cc26xx.a(etimer.o)
 .glue_7t       0x0000ccdc        0x0 contiki-srf06-cc26xx.a(process.o)
 .glue_7t       0x0000ccdc        0x0 contiki-srf06-cc26xx.a(rtimer.o)
 .glue_7t       0x0000ccdc        0x0 contiki-srf06-cc26xx.a(timer.o)
 .glue_7t       0x0000ccdc        0x0 contiki-srf06-cc26xx.a(serial-line.o)
 .glue_7t       0x0000ccdc        0x0 contiki-srf06-cc26xx.a(list.o)
 .glue_7t       0x0000ccdc        0x0 contiki-srf06-cc26xx.a(ringbuf.o)
 .glue_7t       0x0000ccdc        0x0 contiki-srf06-cc26xx.a(uip6.o)
 .glue_7t       0x0000ccdc        0x0 contiki-srf06-cc26xx.a(uip-ds6.o)
 .glue_7t       0x0000ccdc        0x0 contiki-srf06-cc26xx.a(uip-ds6-nbr.o)
 .glue_7t       0x0000ccdc        0x0 contiki-srf06-cc26xx.a(uip-ds6-route.o)
 .glue_7t       0x0000ccdc        0x0 contiki-srf06-cc26xx.a(uip-icmp6.o)
 .glue_7t       0x0000ccdc        0x0 contiki-srf06-cc26xx.a(uip-nd6.o)
 .glue_7t       0x0000ccdc        0x0 contiki-srf06-cc26xx.a(ip64-addr.o)
 .glue_7t       0x0000ccdc        0x0 contiki-srf06-cc26xx.a(resolv.o)
 .glue_7t       0x0000ccdc        0x0 contiki-srf06-cc26xx.a(tcpip.o)
 .glue_7t       0x0000ccdc        0x0 contiki-srf06-cc26xx.a(tcp-socket.o)
 .glue_7t       0x0000ccdc        0x0 contiki-srf06-cc26xx.a(uip-debug.o)
 .glue_7t       0x0000ccdc        0x0 contiki-srf06-cc26xx.a(uiplib.o)
 .glue_7t       0x0000ccdc        0x0 contiki-srf06-cc26xx.a(uip-nameserver.)
 .glue_7t       0x0000ccdc        0x0 contiki-srf06-cc26xx.a(uip-udp-packet.)
 .glue_7t       0x0000ccdc        0x0 contiki-srf06-cc26xx.a(adi.o)
 .glue_7t       0x0000ccdc        0x0 contiki-srf06-cc26xx.a(aon_rtc.o)
 .glue_7t       0x0000ccdc        0x0 contiki-srf06-cc26xx.a(chipinfo.o)
 .glue_7t       0x0000ccdc        0x0 contiki-srf06-cc26xx.a(cpu.o)
 .glue_7t       0x0000ccdc        0x0 contiki-srf06-cc26xx.a(osc.o)
 .glue_7t       0x0000ccdc        0x0 contiki-srf06-cc26xx.a(pwr_ctrl.o)
 .glue_7t       0x0000ccdc        0x0 contiki-srf06-cc26xx.a(rfc.o)
 .glue_7t       0x0000ccdc        0x0 contiki-srf06-cc26xx.a(setup.o)
 .glue_7t       0x0000ccdc        0x0 contiki-srf06-cc26xx.a(setup_rom.o)
 .glue_7t       0x0000ccdc        0x0 contiki-srf06-cc26xx.a(sys_ctrl.o)
 .glue_7t       0x0000ccdc        0x0 contiki-srf06-cc26xx.a(trng.o)
 .glue_7t       0x0000ccdc        0x0 contiki-srf06-cc26xx.a(linkaddr.o)
 .glue_7t       0x0000ccdc        0x0 contiki-srf06-cc26xx.a(link-stats.o)
 .glue_7t       0x0000ccdc        0x0 contiki-srf06-cc26xx.a(nbr-table.o)
 .glue_7t       0x0000ccdc        0x0 contiki-srf06-cc26xx.a(netstack.o)
 .glue_7t       0x0000ccdc        0x0 contiki-srf06-cc26xx.a(packetbuf.o)
 .glue_7t       0x0000ccdc        0x0 contiki-srf06-cc26xx.a(queuebuf.o)
 .glue_7t       0x0000ccdc        0x0 contiki-srf06-cc26xx.a(frame802154.o)
 .glue_7t       0x0000ccdc        0x0 contiki-srf06-cc26xx.a(nullmac.o)
 .glue_7t       0x0000ccdc        0x0 contiki-srf06-cc26xx.a(contikimac.o)
 .glue_7t       0x0000ccdc        0x0 contiki-srf06-cc26xx.a(nullsec.o)
 .glue_7t       0x0000ccdc        0x0 contiki-srf06-cc26xx.a(smartrf-setting)
 .glue_7t       0x0000ccdc        0x0 contiki-srf06-cc26xx.a(aux-ctrl.o)
 .glue_7t       0x0000ccdc        0x0 contiki-srf06-cc26xx.a(dbg-sprintf.o)
 .glue_7t       0x0000ccdc        0x0 contiki-srf06-cc26xx.a(stimer.o)
 .glue_7t       0x0000ccdc        0x0 contiki-srf06-cc26xx.a(memb.o)
 .glue_7t       0x0000ccdc        0x0 contiki-srf06-cc26xx.a(aon_batmon.o)
 .glue_7t       0x0000ccdc        0x0 contiki-srf06-cc26xx.a(ddi.o)
 .glue_7t       0x0000ccdc        0x0 contiki-srf06-cc26xx.a(mac.o)
 .glue_7t       0x0000ccdc        0x0 contiki-srf06-cc26xx.a(mac-sequence.o)
 .glue_7t       0x0000ccdc        0x0 /home/user/CodeSourcery/Sourcery_G++_Lite/bin/../lib/gcc/arm-none-eabi/4.3.2/thumb2/libgcc.a(_aeabi_uldivmod.o)
 .glue_7t       0x0000ccdc        0x0 /home/user/CodeSourcery/Sourcery_G++_Lite/bin/../lib/gcc/arm-none-eabi/4.3.2/thumb2/libgcc.a(bpabi.o)
 .glue_7t       0x0000ccdc        0x0 /home/user/CodeSourcery/Sourcery_G++_Lite/bin/../lib/gcc/arm-none-eabi/4.3.2/thumb2/libgcc.a(_dvmd_tls.o)
 .glue_7t       0x0000ccdc        0x0 /home/user/CodeSourcery/Sourcery_G++_Lite/bin/../lib/gcc/arm-none-eabi/4.3.2/thumb2/libgcc.a(_divdi3.o)
 .glue_7t       0x0000ccdc        0x0 /home/user/CodeSourcery/Sourcery_G++_Lite/bin/../lib/gcc/arm-none-eabi/4.3.2/thumb2/libgcc.a(_udivdi3.o)
 .glue_7t       0x0000ccdc        0x0 /home/user/CodeSourcery/Sourcery_G++_Lite/bin/../lib/gcc/arm-none-eabi/4.3.2/thumb2/libgcc.a(_udivsi3.o)
 .glue_7t       0x0000ccdc        0x0 /home/user/CodeSourcery/Sourcery_G++_Lite/bin/../lib/gcc/arm-none-eabi/4.3.2/thumb2/libgcc.a(_clz.o)
 .glue_7t       0x0000ccdc        0x0 /home/user/CodeSourcery/Sourcery_G++_Lite/bin/../lib/gcc/arm-none-eabi/4.3.2/../../../../arm-none-eabi/lib/thumb2/libc.a(lib_a-ctype_.o)
 .glue_7t       0x0000ccdc        0x0 /home/user/CodeSourcery/Sourcery_G++_Lite/bin/../lib/gcc/arm-none-eabi/4.3.2/../../../../arm-none-eabi/lib/thumb2/libc.a(lib_a-memchr.o)
 .glue_7t       0x0000ccdc        0x0 /home/user/CodeSourcery/Sourcery_G++_Lite/bin/../lib/gcc/arm-none-eabi/4.3.2/../../../../arm-none-eabi/lib/thumb2/libc.a(lib_a-memcmp.o)
 .glue_7t       0x0000ccdc        0x0 /home/user/CodeSourcery/Sourcery_G++_Lite/bin/../lib/gcc/arm-none-eabi/4.3.2/../../../../arm-none-eabi/lib/thumb2/libc.a(lib_a-memcpy.o)
 .glue_7t       0x0000ccdc        0x0 /home/user/CodeSourcery/Sourcery_G++_Lite/bin/../lib/gcc/arm-none-eabi/4.3.2/../../../../arm-none-eabi/lib/thumb2/libc.a(lib_a-memmove.o)
 .glue_7t       0x0000ccdc        0x0 /home/user/CodeSourcery/Sourcery_G++_Lite/bin/../lib/gcc/arm-none-eabi/4.3.2/../../../../arm-none-eabi/lib/thumb2/libc.a(lib_a-memset.o)
 .glue_7t       0x0000ccdc        0x0 /home/user/CodeSourcery/Sourcery_G++_Lite/bin/../lib/gcc/arm-none-eabi/4.3.2/../../../../arm-none-eabi/lib/thumb2/libc.a(lib_a-strcasecmp.o)
 .glue_7t       0x0000ccdc        0x0 /home/user/CodeSourcery/Sourcery_G++_Lite/bin/../lib/gcc/arm-none-eabi/4.3.2/../../../../arm-none-eabi/lib/thumb2/libc.a(lib_a-strcmp.o)
 .glue_7t       0x0000ccdc        0x0 /home/user/CodeSourcery/Sourcery_G++_Lite/bin/../lib/gcc/arm-none-eabi/4.3.2/../../../../arm-none-eabi/lib/thumb2/libc.a(lib_a-strlen.o)
 .glue_7t       0x0000ccdc        0x0 /home/user/CodeSourcery/Sourcery_G++_Lite/bin/../lib/gcc/arm-none-eabi/4.3.2/../../../../arm-none-eabi/lib/thumb2/libc.a(lib_a-strncasecmp.o)
 .glue_7t       0x0000ccdc        0x0 /home/user/CodeSourcery/Sourcery_G++_Lite/bin/../lib/gcc/arm-none-eabi/4.3.2/../../../../arm-none-eabi/lib/thumb2/libc.a(lib_a-strncat.o)
 .glue_7t       0x0000ccdc        0x0 /home/user/CodeSourcery/Sourcery_G++_Lite/bin/../lib/gcc/arm-none-eabi/4.3.2/../../../../arm-none-eabi/lib/thumb2/libc.a(lib_a-strncmp.o)
 .glue_7t       0x0000ccdc        0x0 /home/user/CodeSourcery/Sourcery_G++_Lite/bin/../lib/gcc/arm-none-eabi/4.3.2/../../../../arm-none-eabi/lib/thumb2/libc.a(lib_a-strncpy.o)

.vfp11_veneer   0x0000ccdc        0x0
 .vfp11_veneer  0x0000ccdc        0x0 obj_srf06-cc26xx/fault-handlers.o
 .vfp11_veneer  0x0000ccdc        0x0 obj_srf06-cc26xx/ccfg.o
 .vfp11_veneer  0x0000ccdc        0x0 obj_srf06-cc26xx/startup_gcc.o
 .vfp11_veneer  0x0000ccdc        0x0 slip-radio.co
 .vfp11_veneer  0x0000ccdc        0x0 obj_srf06-cc26xx/slip-net.o
 .vfp11_veneer  0x0000ccdc        0x0 obj_srf06-cc26xx/no-framer.o
 .vfp11_veneer  0x0000ccdc        0x0 contiki-srf06-cc26xx.a(cmd.o)
 .vfp11_veneer  0x0000ccdc        0x0 contiki-srf06-cc26xx.a(packetutils.o)
 .vfp11_veneer  0x0000ccdc        0x0 contiki-srf06-cc26xx.a(contiki-main.o)
 .vfp11_veneer  0x0000ccdc        0x0 contiki-srf06-cc26xx.a(sensors.o)
 .vfp11_veneer  0x0000ccdc        0x0 contiki-srf06-cc26xx.a(leds.o)
 .vfp11_veneer  0x0000ccdc        0x0 contiki-srf06-cc26xx.a(board.o)
 .vfp11_veneer  0x0000ccdc        0x0 contiki-srf06-cc26xx.a(launchpad-senso)
 .vfp11_veneer  0x0000ccdc        0x0 contiki-srf06-cc26xx.a(leds-arch.o)
 .vfp11_veneer  0x0000ccdc        0x0 contiki-srf06-cc26xx.a(button-sensor.o)
 .vfp11_veneer  0x0000ccdc        0x0 contiki-srf06-cc26xx.a(ext-flash.o)
 .vfp11_veneer  0x0000ccdc        0x0 contiki-srf06-cc26xx.a(board-spi.o)
 .vfp11_veneer  0x0000ccdc        0x0 contiki-srf06-cc26xx.a(prop-mode.o)
 .vfp11_veneer  0x0000ccdc        0x0 contiki-srf06-cc26xx.a(prop-mode-tx-po)
 .vfp11_veneer  0x0000ccdc        0x0 contiki-srf06-cc26xx.a(clock.o)
 .vfp11_veneer  0x0000ccdc        0x0 contiki-srf06-cc26xx.a(rtimer-arch.o)
 .vfp11_veneer  0x0000ccdc        0x0 contiki-srf06-cc26xx.a(soc-rtc.o)
 .vfp11_veneer  0x0000ccdc        0x0 contiki-srf06-cc26xx.a(contiki-watchdo)
 .vfp11_veneer  0x0000ccdc        0x0 contiki-srf06-cc26xx.a(putchar.o)
 .vfp11_veneer  0x0000ccdc        0x0 contiki-srf06-cc26xx.a(ieee-addr.o)
 .vfp11_veneer  0x0000ccdc        0x0 contiki-srf06-cc26xx.a(slip-arch.o)
 .vfp11_veneer  0x0000ccdc        0x0 contiki-srf06-cc26xx.a(slip.o)
 .vfp11_veneer  0x0000ccdc        0x0 contiki-srf06-cc26xx.a(cc26xx-uart.o)
 .vfp11_veneer  0x0000ccdc        0x0 contiki-srf06-cc26xx.a(lpm.o)
 .vfp11_veneer  0x0000ccdc        0x0 contiki-srf06-cc26xx.a(gpio-interrupt.)
 .vfp11_veneer  0x0000ccdc        0x0 contiki-srf06-cc26xx.a(oscillators.o)
 .vfp11_veneer  0x0000ccdc        0x0 contiki-srf06-cc26xx.a(rf-core.o)
 .vfp11_veneer  0x0000ccdc        0x0 contiki-srf06-cc26xx.a(rf-ble.o)
 .vfp11_veneer  0x0000ccdc        0x0 contiki-srf06-cc26xx.a(random.o)
 .vfp11_veneer  0x0000ccdc        0x0 contiki-srf06-cc26xx.a(soc-trng.o)
 .vfp11_veneer  0x0000ccdc        0x0 contiki-srf06-cc26xx.a(dbg-printf.o)
 .vfp11_veneer  0x0000ccdc        0x0 contiki-srf06-cc26xx.a(strformat.o)
 .vfp11_veneer  0x0000ccdc        0x0 contiki-srf06-cc26xx.a(http-socket.o)
 .vfp11_veneer  0x0000ccdc        0x0 contiki-srf06-cc26xx.a(autostart.o)
 .vfp11_veneer  0x0000ccdc        0x0 contiki-srf06-cc26xx.a(ctimer.o)
 .vfp11_veneer  0x0000ccdc        0x0 contiki-srf06-cc26xx.a(energest.o)
 .vfp11_veneer  0x0000ccdc        0x0 contiki-srf06-cc26xx.a(etimer.o)
 .vfp11_veneer  0x0000ccdc        0x0 contiki-srf06-cc26xx.a(process.o)
 .vfp11_veneer  0x0000ccdc        0x0 contiki-srf06-cc26xx.a(rtimer.o)
 .vfp11_veneer  0x0000ccdc        0x0 contiki-srf06-cc26xx.a(timer.o)
 .vfp11_veneer  0x0000ccdc        0x0 contiki-srf06-cc26xx.a(serial-line.o)
 .vfp11_veneer  0x0000ccdc        0x0 contiki-srf06-cc26xx.a(list.o)
 .vfp11_veneer  0x0000ccdc        0x0 contiki-srf06-cc26xx.a(ringbuf.o)
 .vfp11_veneer  0x0000ccdc        0x0 contiki-srf06-cc26xx.a(uip6.o)
 .vfp11_veneer  0x0000ccdc        0x0 contiki-srf06-cc26xx.a(uip-ds6.o)
 .vfp11_veneer  0x0000ccdc        0x0 contiki-srf06-cc26xx.a(uip-ds6-nbr.o)
 .vfp11_veneer  0x0000ccdc        0x0 contiki-srf06-cc26xx.a(uip-ds6-route.o)
 .vfp11_veneer  0x0000ccdc        0x0 contiki-srf06-cc26xx.a(uip-icmp6.o)
 .vfp11_veneer  0x0000ccdc        0x0 contiki-srf06-cc26xx.a(uip-nd6.o)
 .vfp11_veneer  0x0000ccdc        0x0 contiki-srf06-cc26xx.a(ip64-addr.o)
 .vfp11_veneer  0x0000ccdc        0x0 contiki-srf06-cc26xx.a(resolv.o)
 .vfp11_veneer  0x0000ccdc        0x0 contiki-srf06-cc26xx.a(tcpip.o)
 .vfp11_veneer  0x0000ccdc        0x0 contiki-srf06-cc26xx.a(tcp-socket.o)
 .vfp11_veneer  0x0000ccdc        0x0 contiki-srf06-cc26xx.a(uip-debug.o)
 .vfp11_veneer  0x0000ccdc        0x0 contiki-srf06-cc26xx.a(uiplib.o)
 .vfp11_veneer  0x0000ccdc        0x0 contiki-srf06-cc26xx.a(uip-nameserver.)
 .vfp11_veneer  0x0000ccdc        0x0 contiki-srf06-cc26xx.a(uip-udp-packet.)
 .vfp11_veneer  0x0000ccdc        0x0 contiki-srf06-cc26xx.a(adi.o)
 .vfp11_veneer  0x0000ccdc        0x0 contiki-srf06-cc26xx.a(aon_rtc.o)
 .vfp11_veneer  0x0000ccdc        0x0 contiki-srf06-cc26xx.a(chipinfo.o)
 .vfp11_veneer  0x0000ccdc        0x0 contiki-srf06-cc26xx.a(cpu.o)
 .vfp11_veneer  0x0000ccdc        0x0 contiki-srf06-cc26xx.a(osc.o)
 .vfp11_veneer  0x0000ccdc        0x0 contiki-srf06-cc26xx.a(pwr_ctrl.o)
 .vfp11_veneer  0x0000ccdc        0x0 contiki-srf06-cc26xx.a(rfc.o)
 .vfp11_veneer  0x0000ccdc        0x0 contiki-srf06-cc26xx.a(setup.o)
 .vfp11_veneer  0x0000ccdc        0x0 contiki-srf06-cc26xx.a(setup_rom.o)
 .vfp11_veneer  0x0000ccdc        0x0 contiki-srf06-cc26xx.a(sys_ctrl.o)
 .vfp11_veneer  0x0000ccdc        0x0 contiki-srf06-cc26xx.a(trng.o)
 .vfp11_veneer  0x0000ccdc        0x0 contiki-srf06-cc26xx.a(linkaddr.o)
 .vfp11_veneer  0x0000ccdc        0x0 contiki-srf06-cc26xx.a(link-stats.o)
 .vfp11_veneer  0x0000ccdc        0x0 contiki-srf06-cc26xx.a(nbr-table.o)
 .vfp11_veneer  0x0000ccdc        0x0 contiki-srf06-cc26xx.a(netstack.o)
 .vfp11_veneer  0x0000ccdc        0x0 contiki-srf06-cc26xx.a(packetbuf.o)
 .vfp11_veneer  0x0000ccdc        0x0 contiki-srf06-cc26xx.a(queuebuf.o)
 .vfp11_veneer  0x0000ccdc        0x0 contiki-srf06-cc26xx.a(frame802154.o)
 .vfp11_veneer  0x0000ccdc        0x0 contiki-srf06-cc26xx.a(nullmac.o)
 .vfp11_veneer  0x0000ccdc        0x0 contiki-srf06-cc26xx.a(contikimac.o)
 .vfp11_veneer  0x0000ccdc        0x0 contiki-srf06-cc26xx.a(nullsec.o)
 .vfp11_veneer  0x0000ccdc        0x0 contiki-srf06-cc26xx.a(smartrf-setting)
 .vfp11_veneer  0x0000ccdc        0x0 contiki-srf06-cc26xx.a(aux-ctrl.o)
 .vfp11_veneer  0x0000ccdc        0x0 contiki-srf06-cc26xx.a(dbg-sprintf.o)
 .vfp11_veneer  0x0000ccdc        0x0 contiki-srf06-cc26xx.a(stimer.o)
 .vfp11_veneer  0x0000ccdc        0x0 contiki-srf06-cc26xx.a(memb.o)
 .vfp11_veneer  0x0000ccdc        0x0 contiki-srf06-cc26xx.a(aon_batmon.o)
 .vfp11_veneer  0x0000ccdc        0x0 contiki-srf06-cc26xx.a(ddi.o)
 .vfp11_veneer  0x0000ccdc        0x0 contiki-srf06-cc26xx.a(mac.o)
 .vfp11_veneer  0x0000ccdc        0x0 contiki-srf06-cc26xx.a(mac-sequence.o)
 .vfp11_veneer  0x0000ccdc        0x0 /home/user/CodeSourcery/Sourcery_G++_Lite/bin/../lib/gcc/arm-none-eabi/4.3.2/thumb2/libgcc.a(_aeabi_uldivmod.o)
 .vfp11_veneer  0x0000ccdc        0x0 /home/user/CodeSourcery/Sourcery_G++_Lite/bin/../lib/gcc/arm-none-eabi/4.3.2/thumb2/libgcc.a(bpabi.o)
 .vfp11_veneer  0x0000ccdc        0x0 /home/user/CodeSourcery/Sourcery_G++_Lite/bin/../lib/gcc/arm-none-eabi/4.3.2/thumb2/libgcc.a(_dvmd_tls.o)
 .vfp11_veneer  0x0000ccdc        0x0 /home/user/CodeSourcery/Sourcery_G++_Lite/bin/../lib/gcc/arm-none-eabi/4.3.2/thumb2/libgcc.a(_divdi3.o)
 .vfp11_veneer  0x0000ccdc        0x0 /home/user/CodeSourcery/Sourcery_G++_Lite/bin/../lib/gcc/arm-none-eabi/4.3.2/thumb2/libgcc.a(_udivdi3.o)
 .vfp11_veneer  0x0000ccdc        0x0 /home/user/CodeSourcery/Sourcery_G++_Lite/bin/../lib/gcc/arm-none-eabi/4.3.2/thumb2/libgcc.a(_udivsi3.o)
 .vfp11_veneer  0x0000ccdc        0x0 /home/user/CodeSourcery/Sourcery_G++_Lite/bin/../lib/gcc/arm-none-eabi/4.3.2/thumb2/libgcc.a(_clz.o)
 .vfp11_veneer  0x0000ccdc        0x0 /home/user/CodeSourcery/Sourcery_G++_Lite/bin/../lib/gcc/arm-none-eabi/4.3.2/../../../../arm-none-eabi/lib/thumb2/libc.a(lib_a-ctype_.o)
 .vfp11_veneer  0x0000ccdc        0x0 /home/user/CodeSourcery/Sourcery_G++_Lite/bin/../lib/gcc/arm-none-eabi/4.3.2/../../../../arm-none-eabi/lib/thumb2/libc.a(lib_a-memchr.o)
 .vfp11_veneer  0x0000ccdc        0x0 /home/user/CodeSourcery/Sourcery_G++_Lite/bin/../lib/gcc/arm-none-eabi/4.3.2/../../../../arm-none-eabi/lib/thumb2/libc.a(lib_a-memcmp.o)
 .vfp11_veneer  0x0000ccdc        0x0 /home/user/CodeSourcery/Sourcery_G++_Lite/bin/../lib/gcc/arm-none-eabi/4.3.2/../../../../arm-none-eabi/lib/thumb2/libc.a(lib_a-memcpy.o)
 .vfp11_veneer  0x0000ccdc        0x0 /home/user/CodeSourcery/Sourcery_G++_Lite/bin/../lib/gcc/arm-none-eabi/4.3.2/../../../../arm-none-eabi/lib/thumb2/libc.a(lib_a-memmove.o)
 .vfp11_veneer  0x0000ccdc        0x0 /home/user/CodeSourcery/Sourcery_G++_Lite/bin/../lib/gcc/arm-none-eabi/4.3.2/../../../../arm-none-eabi/lib/thumb2/libc.a(lib_a-memset.o)
 .vfp11_veneer  0x0000ccdc        0x0 /home/user/CodeSourcery/Sourcery_G++_Lite/bin/../lib/gcc/arm-none-eabi/4.3.2/../../../../arm-none-eabi/lib/thumb2/libc.a(lib_a-strcasecmp.o)
 .vfp11_veneer  0x0000ccdc        0x0 /home/user/CodeSourcery/Sourcery_G++_Lite/bin/../lib/gcc/arm-none-eabi/4.3.2/../../../../arm-none-eabi/lib/thumb2/libc.a(lib_a-strcmp.o)
 .vfp11_veneer  0x0000ccdc        0x0 /home/user/CodeSourcery/Sourcery_G++_Lite/bin/../lib/gcc/arm-none-eabi/4.3.2/../../../../arm-none-eabi/lib/thumb2/libc.a(lib_a-strlen.o)
 .vfp11_veneer  0x0000ccdc        0x0 /home/user/CodeSourcery/Sourcery_G++_Lite/bin/../lib/gcc/arm-none-eabi/4.3.2/../../../../arm-none-eabi/lib/thumb2/libc.a(lib_a-strncasecmp.o)
 .vfp11_veneer  0x0000ccdc        0x0 /home/user/CodeSourcery/Sourcery_G++_Lite/bin/../lib/gcc/arm-none-eabi/4.3.2/../../../../arm-none-eabi/lib/thumb2/libc.a(lib_a-strncat.o)
 .vfp11_veneer  0x0000ccdc        0x0 /home/user/CodeSourcery/Sourcery_G++_Lite/bin/../lib/gcc/arm-none-eabi/4.3.2/../../../../arm-none-eabi/lib/thumb2/libc.a(lib_a-strncmp.o)
 .vfp11_veneer  0x0000ccdc        0x0 /home/user/CodeSourcery/Sourcery_G++_Lite/bin/../lib/gcc/arm-none-eabi/4.3.2/../../../../arm-none-eabi/lib/thumb2/libc.a(lib_a-strncpy.o)

.janus_2cc_veneer
                0x0000ccdc        0x0
 .janus_2cc_veneer
                0x0000ccdc        0x0 obj_srf06-cc26xx/fault-handlers.o
 .janus_2cc_veneer
                0x0000ccdc        0x0 obj_srf06-cc26xx/ccfg.o
 .janus_2cc_veneer
                0x0000ccdc        0x0 obj_srf06-cc26xx/startup_gcc.o
 .janus_2cc_veneer
                0x0000ccdc        0x0 slip-radio.co
 .janus_2cc_veneer
                0x0000ccdc        0x0 obj_srf06-cc26xx/slip-net.o
 .janus_2cc_veneer
                0x0000ccdc        0x0 obj_srf06-cc26xx/no-framer.o
 .janus_2cc_veneer
                0x0000ccdc        0x0 contiki-srf06-cc26xx.a(cmd.o)
 .janus_2cc_veneer
                0x0000ccdc        0x0 contiki-srf06-cc26xx.a(packetutils.o)
 .janus_2cc_veneer
                0x0000ccdc        0x0 contiki-srf06-cc26xx.a(contiki-main.o)
 .janus_2cc_veneer
                0x0000ccdc        0x0 contiki-srf06-cc26xx.a(sensors.o)
 .janus_2cc_veneer
                0x0000ccdc        0x0 contiki-srf06-cc26xx.a(leds.o)
 .janus_2cc_veneer
                0x0000ccdc        0x0 contiki-srf06-cc26xx.a(board.o)
 .janus_2cc_veneer
                0x0000ccdc        0x0 contiki-srf06-cc26xx.a(launchpad-senso)
 .janus_2cc_veneer
                0x0000ccdc        0x0 contiki-srf06-cc26xx.a(leds-arch.o)
 .janus_2cc_veneer
                0x0000ccdc        0x0 contiki-srf06-cc26xx.a(button-sensor.o)
 .janus_2cc_veneer
                0x0000ccdc        0x0 contiki-srf06-cc26xx.a(ext-flash.o)
 .janus_2cc_veneer
                0x0000ccdc        0x0 contiki-srf06-cc26xx.a(board-spi.o)
 .janus_2cc_veneer
                0x0000ccdc        0x0 contiki-srf06-cc26xx.a(prop-mode.o)
 .janus_2cc_veneer
                0x0000ccdc        0x0 contiki-srf06-cc26xx.a(prop-mode-tx-po)
 .janus_2cc_veneer
                0x0000ccdc        0x0 contiki-srf06-cc26xx.a(clock.o)
 .janus_2cc_veneer
                0x0000ccdc        0x0 contiki-srf06-cc26xx.a(rtimer-arch.o)
 .janus_2cc_veneer
                0x0000ccdc        0x0 contiki-srf06-cc26xx.a(soc-rtc.o)
 .janus_2cc_veneer
                0x0000ccdc        0x0 contiki-srf06-cc26xx.a(contiki-watchdo)
 .janus_2cc_veneer
                0x0000ccdc        0x0 contiki-srf06-cc26xx.a(putchar.o)
 .janus_2cc_veneer
                0x0000ccdc        0x0 contiki-srf06-cc26xx.a(ieee-addr.o)
 .janus_2cc_veneer
                0x0000ccdc        0x0 contiki-srf06-cc26xx.a(slip-arch.o)
 .janus_2cc_veneer
                0x0000ccdc        0x0 contiki-srf06-cc26xx.a(slip.o)
 .janus_2cc_veneer
                0x0000ccdc        0x0 contiki-srf06-cc26xx.a(cc26xx-uart.o)
 .janus_2cc_veneer
                0x0000ccdc        0x0 contiki-srf06-cc26xx.a(lpm.o)
 .janus_2cc_veneer
                0x0000ccdc        0x0 contiki-srf06-cc26xx.a(gpio-interrupt.)
 .janus_2cc_veneer
                0x0000ccdc        0x0 contiki-srf06-cc26xx.a(oscillators.o)
 .janus_2cc_veneer
                0x0000ccdc        0x0 contiki-srf06-cc26xx.a(rf-core.o)
 .janus_2cc_veneer
                0x0000ccdc        0x0 contiki-srf06-cc26xx.a(rf-ble.o)
 .janus_2cc_veneer
                0x0000ccdc        0x0 contiki-srf06-cc26xx.a(random.o)
 .janus_2cc_veneer
                0x0000ccdc        0x0 contiki-srf06-cc26xx.a(soc-trng.o)
 .janus_2cc_veneer
                0x0000ccdc        0x0 contiki-srf06-cc26xx.a(dbg-printf.o)
 .janus_2cc_veneer
                0x0000ccdc        0x0 contiki-srf06-cc26xx.a(strformat.o)
 .janus_2cc_veneer
                0x0000ccdc        0x0 contiki-srf06-cc26xx.a(http-socket.o)
 .janus_2cc_veneer
                0x0000ccdc        0x0 contiki-srf06-cc26xx.a(autostart.o)
 .janus_2cc_veneer
                0x0000ccdc        0x0 contiki-srf06-cc26xx.a(ctimer.o)
 .janus_2cc_veneer
                0x0000ccdc        0x0 contiki-srf06-cc26xx.a(energest.o)
 .janus_2cc_veneer
                0x0000ccdc        0x0 contiki-srf06-cc26xx.a(etimer.o)
 .janus_2cc_veneer
                0x0000ccdc        0x0 contiki-srf06-cc26xx.a(process.o)
 .janus_2cc_veneer
                0x0000ccdc        0x0 contiki-srf06-cc26xx.a(rtimer.o)
 .janus_2cc_veneer
                0x0000ccdc        0x0 contiki-srf06-cc26xx.a(timer.o)
 .janus_2cc_veneer
                0x0000ccdc        0x0 contiki-srf06-cc26xx.a(serial-line.o)
 .janus_2cc_veneer
                0x0000ccdc        0x0 contiki-srf06-cc26xx.a(list.o)
 .janus_2cc_veneer
                0x0000ccdc        0x0 contiki-srf06-cc26xx.a(ringbuf.o)
 .janus_2cc_veneer
                0x0000ccdc        0x0 contiki-srf06-cc26xx.a(uip6.o)
 .janus_2cc_veneer
                0x0000ccdc        0x0 contiki-srf06-cc26xx.a(uip-ds6.o)
 .janus_2cc_veneer
                0x0000ccdc        0x0 contiki-srf06-cc26xx.a(uip-ds6-nbr.o)
 .janus_2cc_veneer
                0x0000ccdc        0x0 contiki-srf06-cc26xx.a(uip-ds6-route.o)
 .janus_2cc_veneer
                0x0000ccdc        0x0 contiki-srf06-cc26xx.a(uip-icmp6.o)
 .janus_2cc_veneer
                0x0000ccdc        0x0 contiki-srf06-cc26xx.a(uip-nd6.o)
 .janus_2cc_veneer
                0x0000ccdc        0x0 contiki-srf06-cc26xx.a(ip64-addr.o)
 .janus_2cc_veneer
                0x0000ccdc        0x0 contiki-srf06-cc26xx.a(resolv.o)
 .janus_2cc_veneer
                0x0000ccdc        0x0 contiki-srf06-cc26xx.a(tcpip.o)
 .janus_2cc_veneer
                0x0000ccdc        0x0 contiki-srf06-cc26xx.a(tcp-socket.o)
 .janus_2cc_veneer
                0x0000ccdc        0x0 contiki-srf06-cc26xx.a(uip-debug.o)
 .janus_2cc_veneer
                0x0000ccdc        0x0 contiki-srf06-cc26xx.a(uiplib.o)
 .janus_2cc_veneer
                0x0000ccdc        0x0 contiki-srf06-cc26xx.a(uip-nameserver.)
 .janus_2cc_veneer
                0x0000ccdc        0x0 contiki-srf06-cc26xx.a(uip-udp-packet.)
 .janus_2cc_veneer
                0x0000ccdc        0x0 contiki-srf06-cc26xx.a(adi.o)
 .janus_2cc_veneer
                0x0000ccdc        0x0 contiki-srf06-cc26xx.a(aon_rtc.o)
 .janus_2cc_veneer
                0x0000ccdc        0x0 contiki-srf06-cc26xx.a(chipinfo.o)
 .janus_2cc_veneer
                0x0000ccdc        0x0 contiki-srf06-cc26xx.a(cpu.o)
 .janus_2cc_veneer
                0x0000ccdc        0x0 contiki-srf06-cc26xx.a(osc.o)
 .janus_2cc_veneer
                0x0000ccdc        0x0 contiki-srf06-cc26xx.a(pwr_ctrl.o)
 .janus_2cc_veneer
                0x0000ccdc        0x0 contiki-srf06-cc26xx.a(rfc.o)
 .janus_2cc_veneer
                0x0000ccdc        0x0 contiki-srf06-cc26xx.a(setup.o)
 .janus_2cc_veneer
                0x0000ccdc        0x0 contiki-srf06-cc26xx.a(setup_rom.o)
 .janus_2cc_veneer
                0x0000ccdc        0x0 contiki-srf06-cc26xx.a(sys_ctrl.o)
 .janus_2cc_veneer
                0x0000ccdc        0x0 contiki-srf06-cc26xx.a(trng.o)
 .janus_2cc_veneer
                0x0000ccdc        0x0 contiki-srf06-cc26xx.a(linkaddr.o)
 .janus_2cc_veneer
                0x0000ccdc        0x0 contiki-srf06-cc26xx.a(link-stats.o)
 .janus_2cc_veneer
                0x0000ccdc        0x0 contiki-srf06-cc26xx.a(nbr-table.o)
 .janus_2cc_veneer
                0x0000ccdc        0x0 contiki-srf06-cc26xx.a(netstack.o)
 .janus_2cc_veneer
                0x0000ccdc        0x0 contiki-srf06-cc26xx.a(packetbuf.o)
 .janus_2cc_veneer
                0x0000ccdc        0x0 contiki-srf06-cc26xx.a(queuebuf.o)
 .janus_2cc_veneer
                0x0000ccdc        0x0 contiki-srf06-cc26xx.a(frame802154.o)
 .janus_2cc_veneer
                0x0000ccdc        0x0 contiki-srf06-cc26xx.a(nullmac.o)
 .janus_2cc_veneer
                0x0000ccdc        0x0 contiki-srf06-cc26xx.a(contikimac.o)
 .janus_2cc_veneer
                0x0000ccdc        0x0 contiki-srf06-cc26xx.a(nullsec.o)
 .janus_2cc_veneer
                0x0000ccdc        0x0 contiki-srf06-cc26xx.a(smartrf-setting)
 .janus_2cc_veneer
                0x0000ccdc        0x0 contiki-srf06-cc26xx.a(aux-ctrl.o)
 .janus_2cc_veneer
                0x0000ccdc        0x0 contiki-srf06-cc26xx.a(dbg-sprintf.o)
 .janus_2cc_veneer
                0x0000ccdc        0x0 contiki-srf06-cc26xx.a(stimer.o)
 .janus_2cc_veneer
                0x0000ccdc        0x0 contiki-srf06-cc26xx.a(memb.o)
 .janus_2cc_veneer
                0x0000ccdc        0x0 contiki-srf06-cc26xx.a(aon_batmon.o)
 .janus_2cc_veneer
                0x0000ccdc        0x0 contiki-srf06-cc26xx.a(ddi.o)
 .janus_2cc_veneer
                0x0000ccdc        0x0 contiki-srf06-cc26xx.a(mac.o)
 .janus_2cc_veneer
                0x0000ccdc        0x0 contiki-srf06-cc26xx.a(mac-sequence.o)
 .janus_2cc_veneer
                0x0000ccdc        0x0 /home/user/CodeSourcery/Sourcery_G++_Lite/bin/../lib/gcc/arm-none-eabi/4.3.2/thumb2/libgcc.a(_aeabi_uldivmod.o)
 .janus_2cc_veneer
                0x0000ccdc        0x0 /home/user/CodeSourcery/Sourcery_G++_Lite/bin/../lib/gcc/arm-none-eabi/4.3.2/thumb2/libgcc.a(bpabi.o)
 .janus_2cc_veneer
                0x0000ccdc        0x0 /home/user/CodeSourcery/Sourcery_G++_Lite/bin/../lib/gcc/arm-none-eabi/4.3.2/thumb2/libgcc.a(_dvmd_tls.o)
 .janus_2cc_veneer
                0x0000ccdc        0x0 /home/user/CodeSourcery/Sourcery_G++_Lite/bin/../lib/gcc/arm-none-eabi/4.3.2/thumb2/libgcc.a(_divdi3.o)
 .janus_2cc_veneer
                0x0000ccdc        0x0 /home/user/CodeSourcery/Sourcery_G++_Lite/bin/../lib/gcc/arm-none-eabi/4.3.2/thumb2/libgcc.a(_udivdi3.o)
 .janus_2cc_veneer
                0x0000ccdc        0x0 /home/user/CodeSourcery/Sourcery_G++_Lite/bin/../lib/gcc/arm-none-eabi/4.3.2/thumb2/libgcc.a(_udivsi3.o)
 .janus_2cc_veneer
                0x0000ccdc        0x0 /home/user/CodeSourcery/Sourcery_G++_Lite/bin/../lib/gcc/arm-none-eabi/4.3.2/thumb2/libgcc.a(_clz.o)
 .janus_2cc_veneer
                0x0000ccdc        0x0 /home/user/CodeSourcery/Sourcery_G++_Lite/bin/../lib/gcc/arm-none-eabi/4.3.2/../../../../arm-none-eabi/lib/thumb2/libc.a(lib_a-ctype_.o)
 .janus_2cc_veneer
                0x0000ccdc        0x0 /home/user/CodeSourcery/Sourcery_G++_Lite/bin/../lib/gcc/arm-none-eabi/4.3.2/../../../../arm-none-eabi/lib/thumb2/libc.a(lib_a-memchr.o)
 .janus_2cc_veneer
                0x0000ccdc        0x0 /home/user/CodeSourcery/Sourcery_G++_Lite/bin/../lib/gcc/arm-none-eabi/4.3.2/../../../../arm-none-eabi/lib/thumb2/libc.a(lib_a-memcmp.o)
 .janus_2cc_veneer
                0x0000ccdc        0x0 /home/user/CodeSourcery/Sourcery_G++_Lite/bin/../lib/gcc/arm-none-eabi/4.3.2/../../../../arm-none-eabi/lib/thumb2/libc.a(lib_a-memcpy.o)
 .janus_2cc_veneer
                0x0000ccdc        0x0 /home/user/CodeSourcery/Sourcery_G++_Lite/bin/../lib/gcc/arm-none-eabi/4.3.2/../../../../arm-none-eabi/lib/thumb2/libc.a(lib_a-memmove.o)
 .janus_2cc_veneer
                0x0000ccdc        0x0 /home/user/CodeSourcery/Sourcery_G++_Lite/bin/../lib/gcc/arm-none-eabi/4.3.2/../../../../arm-none-eabi/lib/thumb2/libc.a(lib_a-memset.o)
 .janus_2cc_veneer
                0x0000ccdc        0x0 /home/user/CodeSourcery/Sourcery_G++_Lite/bin/../lib/gcc/arm-none-eabi/4.3.2/../../../../arm-none-eabi/lib/thumb2/libc.a(lib_a-strcasecmp.o)
 .janus_2cc_veneer
                0x0000ccdc        0x0 /home/user/CodeSourcery/Sourcery_G++_Lite/bin/../lib/gcc/arm-none-eabi/4.3.2/../../../../arm-none-eabi/lib/thumb2/libc.a(lib_a-strcmp.o)
 .janus_2cc_veneer
                0x0000ccdc        0x0 /home/user/CodeSourcery/Sourcery_G++_Lite/bin/../lib/gcc/arm-none-eabi/4.3.2/../../../../arm-none-eabi/lib/thumb2/libc.a(lib_a-strlen.o)
 .janus_2cc_veneer
                0x0000ccdc        0x0 /home/user/CodeSourcery/Sourcery_G++_Lite/bin/../lib/gcc/arm-none-eabi/4.3.2/../../../../arm-none-eabi/lib/thumb2/libc.a(lib_a-strncasecmp.o)
 .janus_2cc_veneer
                0x0000ccdc        0x0 /home/user/CodeSourcery/Sourcery_G++_Lite/bin/../lib/gcc/arm-none-eabi/4.3.2/../../../../arm-none-eabi/lib/thumb2/libc.a(lib_a-strncat.o)
 .janus_2cc_veneer
                0x0000ccdc        0x0 /home/user/CodeSourcery/Sourcery_G++_Lite/bin/../lib/gcc/arm-none-eabi/4.3.2/../../../../arm-none-eabi/lib/thumb2/libc.a(lib_a-strncmp.o)
 .janus_2cc_veneer
                0x0000ccdc        0x0 /home/user/CodeSourcery/Sourcery_G++_Lite/bin/../lib/gcc/arm-none-eabi/4.3.2/../../../../arm-none-eabi/lib/thumb2/libc.a(lib_a-strncpy.o)

.v4_bx          0x0000ccdc        0x0
 .v4_bx         0x0000ccdc        0x0 obj_srf06-cc26xx/fault-handlers.o
 .v4_bx         0x0000ccdc        0x0 obj_srf06-cc26xx/ccfg.o
 .v4_bx         0x0000ccdc        0x0 obj_srf06-cc26xx/startup_gcc.o
 .v4_bx         0x0000ccdc        0x0 slip-radio.co
 .v4_bx         0x0000ccdc        0x0 obj_srf06-cc26xx/slip-net.o
 .v4_bx         0x0000ccdc        0x0 obj_srf06-cc26xx/no-framer.o
 .v4_bx         0x0000ccdc        0x0 contiki-srf06-cc26xx.a(cmd.o)
 .v4_bx         0x0000ccdc        0x0 contiki-srf06-cc26xx.a(packetutils.o)
 .v4_bx         0x0000ccdc        0x0 contiki-srf06-cc26xx.a(contiki-main.o)
 .v4_bx         0x0000ccdc        0x0 contiki-srf06-cc26xx.a(sensors.o)
 .v4_bx         0x0000ccdc        0x0 contiki-srf06-cc26xx.a(leds.o)
 .v4_bx         0x0000ccdc        0x0 contiki-srf06-cc26xx.a(board.o)
 .v4_bx         0x0000ccdc        0x0 contiki-srf06-cc26xx.a(launchpad-senso)
 .v4_bx         0x0000ccdc        0x0 contiki-srf06-cc26xx.a(leds-arch.o)
 .v4_bx         0x0000ccdc        0x0 contiki-srf06-cc26xx.a(button-sensor.o)
 .v4_bx         0x0000ccdc        0x0 contiki-srf06-cc26xx.a(ext-flash.o)
 .v4_bx         0x0000ccdc        0x0 contiki-srf06-cc26xx.a(board-spi.o)
 .v4_bx         0x0000ccdc        0x0 contiki-srf06-cc26xx.a(prop-mode.o)
 .v4_bx         0x0000ccdc        0x0 contiki-srf06-cc26xx.a(prop-mode-tx-po)
 .v4_bx         0x0000ccdc        0x0 contiki-srf06-cc26xx.a(clock.o)
 .v4_bx         0x0000ccdc        0x0 contiki-srf06-cc26xx.a(rtimer-arch.o)
 .v4_bx         0x0000ccdc        0x0 contiki-srf06-cc26xx.a(soc-rtc.o)
 .v4_bx         0x0000ccdc        0x0 contiki-srf06-cc26xx.a(contiki-watchdo)
 .v4_bx         0x0000ccdc        0x0 contiki-srf06-cc26xx.a(putchar.o)
 .v4_bx         0x0000ccdc        0x0 contiki-srf06-cc26xx.a(ieee-addr.o)
 .v4_bx         0x0000ccdc        0x0 contiki-srf06-cc26xx.a(slip-arch.o)
 .v4_bx         0x0000ccdc        0x0 contiki-srf06-cc26xx.a(slip.o)
 .v4_bx         0x0000ccdc        0x0 contiki-srf06-cc26xx.a(cc26xx-uart.o)
 .v4_bx         0x0000ccdc        0x0 contiki-srf06-cc26xx.a(lpm.o)
 .v4_bx         0x0000ccdc        0x0 contiki-srf06-cc26xx.a(gpio-interrupt.)
 .v4_bx         0x0000ccdc        0x0 contiki-srf06-cc26xx.a(oscillators.o)
 .v4_bx         0x0000ccdc        0x0 contiki-srf06-cc26xx.a(rf-core.o)
 .v4_bx         0x0000ccdc        0x0 contiki-srf06-cc26xx.a(rf-ble.o)
 .v4_bx         0x0000ccdc        0x0 contiki-srf06-cc26xx.a(random.o)
 .v4_bx         0x0000ccdc        0x0 contiki-srf06-cc26xx.a(soc-trng.o)
 .v4_bx         0x0000ccdc        0x0 contiki-srf06-cc26xx.a(dbg-printf.o)
 .v4_bx         0x0000ccdc        0x0 contiki-srf06-cc26xx.a(strformat.o)
 .v4_bx         0x0000ccdc        0x0 contiki-srf06-cc26xx.a(http-socket.o)
 .v4_bx         0x0000ccdc        0x0 contiki-srf06-cc26xx.a(autostart.o)
 .v4_bx         0x0000ccdc        0x0 contiki-srf06-cc26xx.a(ctimer.o)
 .v4_bx         0x0000ccdc        0x0 contiki-srf06-cc26xx.a(energest.o)
 .v4_bx         0x0000ccdc        0x0 contiki-srf06-cc26xx.a(etimer.o)
 .v4_bx         0x0000ccdc        0x0 contiki-srf06-cc26xx.a(process.o)
 .v4_bx         0x0000ccdc        0x0 contiki-srf06-cc26xx.a(rtimer.o)
 .v4_bx         0x0000ccdc        0x0 contiki-srf06-cc26xx.a(timer.o)
 .v4_bx         0x0000ccdc        0x0 contiki-srf06-cc26xx.a(serial-line.o)
 .v4_bx         0x0000ccdc        0x0 contiki-srf06-cc26xx.a(list.o)
 .v4_bx         0x0000ccdc        0x0 contiki-srf06-cc26xx.a(ringbuf.o)
 .v4_bx         0x0000ccdc        0x0 contiki-srf06-cc26xx.a(uip6.o)
 .v4_bx         0x0000ccdc        0x0 contiki-srf06-cc26xx.a(uip-ds6.o)
 .v4_bx         0x0000ccdc        0x0 contiki-srf06-cc26xx.a(uip-ds6-nbr.o)
 .v4_bx         0x0000ccdc        0x0 contiki-srf06-cc26xx.a(uip-ds6-route.o)
 .v4_bx         0x0000ccdc        0x0 contiki-srf06-cc26xx.a(uip-icmp6.o)
 .v4_bx         0x0000ccdc        0x0 contiki-srf06-cc26xx.a(uip-nd6.o)
 .v4_bx         0x0000ccdc        0x0 contiki-srf06-cc26xx.a(ip64-addr.o)
 .v4_bx         0x0000ccdc        0x0 contiki-srf06-cc26xx.a(resolv.o)
 .v4_bx         0x0000ccdc        0x0 contiki-srf06-cc26xx.a(tcpip.o)
 .v4_bx         0x0000ccdc        0x0 contiki-srf06-cc26xx.a(tcp-socket.o)
 .v4_bx         0x0000ccdc        0x0 contiki-srf06-cc26xx.a(uip-debug.o)
 .v4_bx         0x0000ccdc        0x0 contiki-srf06-cc26xx.a(uiplib.o)
 .v4_bx         0x0000ccdc        0x0 contiki-srf06-cc26xx.a(uip-nameserver.)
 .v4_bx         0x0000ccdc        0x0 contiki-srf06-cc26xx.a(uip-udp-packet.)
 .v4_bx         0x0000ccdc        0x0 contiki-srf06-cc26xx.a(adi.o)
 .v4_bx         0x0000ccdc        0x0 contiki-srf06-cc26xx.a(aon_rtc.o)
 .v4_bx         0x0000ccdc        0x0 contiki-srf06-cc26xx.a(chipinfo.o)
 .v4_bx         0x0000ccdc        0x0 contiki-srf06-cc26xx.a(cpu.o)
 .v4_bx         0x0000ccdc        0x0 contiki-srf06-cc26xx.a(osc.o)
 .v4_bx         0x0000ccdc        0x0 contiki-srf06-cc26xx.a(pwr_ctrl.o)
 .v4_bx         0x0000ccdc        0x0 contiki-srf06-cc26xx.a(rfc.o)
 .v4_bx         0x0000ccdc        0x0 contiki-srf06-cc26xx.a(setup.o)
 .v4_bx         0x0000ccdc        0x0 contiki-srf06-cc26xx.a(setup_rom.o)
 .v4_bx         0x0000ccdc        0x0 contiki-srf06-cc26xx.a(sys_ctrl.o)
 .v4_bx         0x0000ccdc        0x0 contiki-srf06-cc26xx.a(trng.o)
 .v4_bx         0x0000ccdc        0x0 contiki-srf06-cc26xx.a(linkaddr.o)
 .v4_bx         0x0000ccdc        0x0 contiki-srf06-cc26xx.a(link-stats.o)
 .v4_bx         0x0000ccdc        0x0 contiki-srf06-cc26xx.a(nbr-table.o)
 .v4_bx         0x0000ccdc        0x0 contiki-srf06-cc26xx.a(netstack.o)
 .v4_bx         0x0000ccdc        0x0 contiki-srf06-cc26xx.a(packetbuf.o)
 .v4_bx         0x0000ccdc        0x0 contiki-srf06-cc26xx.a(queuebuf.o)
 .v4_bx         0x0000ccdc        0x0 contiki-srf06-cc26xx.a(frame802154.o)
 .v4_bx         0x0000ccdc        0x0 contiki-srf06-cc26xx.a(nullmac.o)
 .v4_bx         0x0000ccdc        0x0 contiki-srf06-cc26xx.a(contikimac.o)
 .v4_bx         0x0000ccdc        0x0 contiki-srf06-cc26xx.a(nullsec.o)
 .v4_bx         0x0000ccdc        0x0 contiki-srf06-cc26xx.a(smartrf-setting)
 .v4_bx         0x0000ccdc        0x0 contiki-srf06-cc26xx.a(aux-ctrl.o)
 .v4_bx         0x0000ccdc        0x0 contiki-srf06-cc26xx.a(dbg-sprintf.o)
 .v4_bx         0x0000ccdc        0x0 contiki-srf06-cc26xx.a(stimer.o)
 .v4_bx         0x0000ccdc        0x0 contiki-srf06-cc26xx.a(memb.o)
 .v4_bx         0x0000ccdc        0x0 contiki-srf06-cc26xx.a(aon_batmon.o)
 .v4_bx         0x0000ccdc        0x0 contiki-srf06-cc26xx.a(ddi.o)
 .v4_bx         0x0000ccdc        0x0 contiki-srf06-cc26xx.a(mac.o)
 .v4_bx         0x0000ccdc        0x0 contiki-srf06-cc26xx.a(mac-sequence.o)
 .v4_bx         0x0000ccdc        0x0 /home/user/CodeSourcery/Sourcery_G++_Lite/bin/../lib/gcc/arm-none-eabi/4.3.2/thumb2/libgcc.a(_aeabi_uldivmod.o)
 .v4_bx         0x0000ccdc        0x0 /home/user/CodeSourcery/Sourcery_G++_Lite/bin/../lib/gcc/arm-none-eabi/4.3.2/thumb2/libgcc.a(bpabi.o)
 .v4_bx         0x0000ccdc        0x0 /home/user/CodeSourcery/Sourcery_G++_Lite/bin/../lib/gcc/arm-none-eabi/4.3.2/thumb2/libgcc.a(_dvmd_tls.o)
 .v4_bx         0x0000ccdc        0x0 /home/user/CodeSourcery/Sourcery_G++_Lite/bin/../lib/gcc/arm-none-eabi/4.3.2/thumb2/libgcc.a(_divdi3.o)
 .v4_bx         0x0000ccdc        0x0 /home/user/CodeSourcery/Sourcery_G++_Lite/bin/../lib/gcc/arm-none-eabi/4.3.2/thumb2/libgcc.a(_udivdi3.o)
 .v4_bx         0x0000ccdc        0x0 /home/user/CodeSourcery/Sourcery_G++_Lite/bin/../lib/gcc/arm-none-eabi/4.3.2/thumb2/libgcc.a(_udivsi3.o)
 .v4_bx         0x0000ccdc        0x0 /home/user/CodeSourcery/Sourcery_G++_Lite/bin/../lib/gcc/arm-none-eabi/4.3.2/thumb2/libgcc.a(_clz.o)
 .v4_bx         0x0000ccdc        0x0 /home/user/CodeSourcery/Sourcery_G++_Lite/bin/../lib/gcc/arm-none-eabi/4.3.2/../../../../arm-none-eabi/lib/thumb2/libc.a(lib_a-ctype_.o)
 .v4_bx         0x0000ccdc        0x0 /home/user/CodeSourcery/Sourcery_G++_Lite/bin/../lib/gcc/arm-none-eabi/4.3.2/../../../../arm-none-eabi/lib/thumb2/libc.a(lib_a-memchr.o)
 .v4_bx         0x0000ccdc        0x0 /home/user/CodeSourcery/Sourcery_G++_Lite/bin/../lib/gcc/arm-none-eabi/4.3.2/../../../../arm-none-eabi/lib/thumb2/libc.a(lib_a-memcmp.o)
 .v4_bx         0x0000ccdc        0x0 /home/user/CodeSourcery/Sourcery_G++_Lite/bin/../lib/gcc/arm-none-eabi/4.3.2/../../../../arm-none-eabi/lib/thumb2/libc.a(lib_a-memcpy.o)
 .v4_bx         0x0000ccdc        0x0 /home/user/CodeSourcery/Sourcery_G++_Lite/bin/../lib/gcc/arm-none-eabi/4.3.2/../../../../arm-none-eabi/lib/thumb2/libc.a(lib_a-memmove.o)
 .v4_bx         0x0000ccdc        0x0 /home/user/CodeSourcery/Sourcery_G++_Lite/bin/../lib/gcc/arm-none-eabi/4.3.2/../../../../arm-none-eabi/lib/thumb2/libc.a(lib_a-memset.o)
 .v4_bx         0x0000ccdc        0x0 /home/user/CodeSourcery/Sourcery_G++_Lite/bin/../lib/gcc/arm-none-eabi/4.3.2/../../../../arm-none-eabi/lib/thumb2/libc.a(lib_a-strcasecmp.o)
 .v4_bx         0x0000ccdc        0x0 /home/user/CodeSourcery/Sourcery_G++_Lite/bin/../lib/gcc/arm-none-eabi/4.3.2/../../../../arm-none-eabi/lib/thumb2/libc.a(lib_a-strcmp.o)
 .v4_bx         0x0000ccdc        0x0 /home/user/CodeSourcery/Sourcery_G++_Lite/bin/../lib/gcc/arm-none-eabi/4.3.2/../../../../arm-none-eabi/lib/thumb2/libc.a(lib_a-strlen.o)
 .v4_bx         0x0000ccdc        0x0 /home/user/CodeSourcery/Sourcery_G++_Lite/bin/../lib/gcc/arm-none-eabi/4.3.2/../../../../arm-none-eabi/lib/thumb2/libc.a(lib_a-strncasecmp.o)
 .v4_bx         0x0000ccdc        0x0 /home/user/CodeSourcery/Sourcery_G++_Lite/bin/../lib/gcc/arm-none-eabi/4.3.2/../../../../arm-none-eabi/lib/thumb2/libc.a(lib_a-strncat.o)
 .v4_bx         0x0000ccdc        0x0 /home/user/CodeSourcery/Sourcery_G++_Lite/bin/../lib/gcc/arm-none-eabi/4.3.2/../../../../arm-none-eabi/lib/thumb2/libc.a(lib_a-strncmp.o)
 .v4_bx         0x0000ccdc        0x0 /home/user/CodeSourcery/Sourcery_G++_Lite/bin/../lib/gcc/arm-none-eabi/4.3.2/../../../../arm-none-eabi/lib/thumb2/libc.a(lib_a-strncpy.o)

.data           0x20000000      0x30e load address 0x0000ccdc
                0x20000000                _data = .
 *(SORT(vtable))
 *(SORT(.data*))
 .data.http_example_process
                0x20000000       0x10 slip-radio.co
                0x20000000                http_example_process
 .data.slip_radio_process
                0x20000010       0x10 slip-radio.co
                0x20000010                slip_radio_process
 .data.sensors_process
                0x20000020       0x10 contiki-srf06-cc26xx.a(sensors.o)
                0x20000020                sensors_process
 .data.launchpad_module
                0x20000030       0x14 contiki-srf06-cc26xx.a(board.o)
 .data.sensors  0x20000044        0xc contiki-srf06-cc26xx.a(launchpad-senso)
                0x20000044                sensors
 .data.prop_lpm_module
                0x20000050       0x14 contiki-srf06-cc26xx.a(prop-mode.o)
 .data.tx_power_current
                0x20000064        0x4 contiki-srf06-cc26xx.a(prop-mode.o)
                0x20000064                tx_power_current
 .data.slip_process
                0x20000068       0x10 contiki-srf06-cc26xx.a(slip.o)
                0x20000068                slip_process
 .data.uart_module
                0x20000078       0x14 contiki-srf06-cc26xx.a(cc26xx-uart.o)
 .data.rf_core_process
                0x2000008c       0x10 contiki-srf06-cc26xx.a(rf-core.o)
                0x2000008c                rf_core_process
 .data.rng_module
                0x2000009c       0x14 contiki-srf06-cc26xx.a(soc-trng.o)
 .data.soc_trng_process
                0x200000b0       0x10 contiki-srf06-cc26xx.a(soc-trng.o)
                0x200000b0                soc_trng_process
 .data.ctxt     0x200000c0        0x8 contiki-srf06-cc26xx.a(dbg-printf.o)
 .data.http_socket_process
                0x200000c8       0x10 contiki-srf06-cc26xx.a(http-socket.o)
                0x200000c8                http_socket_process
 .data.ctimer_process
                0x200000d8       0x10 contiki-srf06-cc26xx.a(ctimer.o)
                0x200000d8                ctimer_process
 .data.etimer_process
                0x200000e8       0x10 contiki-srf06-cc26xx.a(etimer.o)
                0x200000e8                etimer_process
 .data.serial_line_process
                0x200000f8       0x10 contiki-srf06-cc26xx.a(serial-line.o)
                0x200000f8                serial_line_process
 .data.ds6_neighbors
                0x20000108        0x4 contiki-srf06-cc26xx.a(uip-ds6-nbr.o)
                0x20000108                ds6_neighbors
 .data.ds6_neighbors_struct
                0x2000010c       0x10 contiki-srf06-cc26xx.a(uip-ds6-nbr.o)
 .data.defaultroutermemb
                0x2000011c        0xc contiki-srf06-cc26xx.a(uip-ds6-route.o)
 .data.nbr_routes_struct
                0x20000128       0x10 contiki-srf06-cc26xx.a(uip-ds6-route.o)
 .data.nbr_routes
                0x20000138        0x4 contiki-srf06-cc26xx.a(uip-ds6-route.o)
                0x20000138                nbr_routes
 .data.routememb
                0x2000013c        0xc contiki-srf06-cc26xx.a(uip-ds6-route.o)
 .data.neighborroutememb
                0x20000148        0xc contiki-srf06-cc26xx.a(uip-ds6-route.o)
 .data.echo_request_handler
                0x20000154        0xc contiki-srf06-cc26xx.a(uip-icmp6.o)
 .data.echo_reply_handler
                0x20000160        0xc contiki-srf06-cc26xx.a(uip-icmp6.o)
 .data.ns_input_handler
                0x2000016c        0xc contiki-srf06-cc26xx.a(uip-nd6.o)
 .data.ra_input_handler
                0x20000178        0xc contiki-srf06-cc26xx.a(uip-nd6.o)
 .data.na_input_handler
                0x20000184        0xc contiki-srf06-cc26xx.a(uip-nd6.o)
 .data.mdns_probe_process
                0x20000190       0x10 contiki-srf06-cc26xx.a(resolv.o)
                0x20000190                mdns_probe_process
 .data.resolv_process
                0x200001a0       0x10 contiki-srf06-cc26xx.a(resolv.o)
                0x200001a0                resolv_process
 .data.tcpip_process
                0x200001b0       0x10 contiki-srf06-cc26xx.a(tcpip.o)
                0x200001b0                tcpip_process
 .data.tcp_socket_process
                0x200001c0       0x10 contiki-srf06-cc26xx.a(tcp-socket.o)
                0x200001c0                tcp_socket_process
 .data.link_stats_struct
                0x200001d0       0x10 contiki-srf06-cc26xx.a(link-stats.o)
 .data.neighbor_addr_mem
                0x200001e0        0xc contiki-srf06-cc26xx.a(nbr-table.o)
 .data.bufmem   0x200001ec        0xc contiki-srf06-cc26xx.a(queuebuf.o)
 .data.buframmem
                0x200001f8        0xc contiki-srf06-cc26xx.a(queuebuf.o)
 .data.smartrf_settings_cmd_prop_rx_adv
                0x20000204       0x30 contiki-srf06-cc26xx.a(smartrf-setting)
                0x20000204                smartrf_settings_cmd_prop_rx_adv
 .data.smartrf_settings_cmd_fs
                0x20000234       0x18 contiki-srf06-cc26xx.a(smartrf-setting)
                0x20000234                smartrf_settings_cmd_fs
 .data.smartrf_settings_cmd_prop_radio_div_setup
                0x2000024c       0x28 contiki-srf06-cc26xx.a(smartrf-setting)
                0x2000024c                smartrf_settings_cmd_prop_radio_div_setup
 .data.smartrf_settings_cmd_prop_tx_adv
                0x20000274       0x20 contiki-srf06-cc26xx.a(smartrf-setting)
                0x20000274                smartrf_settings_cmd_prop_tx_adv
 .data.overrides
                0x20000294       0x60 contiki-srf06-cc26xx.a(smartrf-setting)
 .data          0x200002f4        0x8 /home/user/CodeSourcery/Sourcery_G++_Lite/bin/../lib/gcc/arm-none-eabi/4.3.2/../../../../arm-none-eabi/lib/thumb2/libc.a(lib_a-ctype_.o)
                0x200002f4                __ctype_ptr
                0x200002f8                __ctype_ptr__
 .data.ip64_prefix
                0x200002fc       0x10 contiki-srf06-cc26xx.a(ip64-addr.o)
 .data.rssi_threshold
                0x2000030c        0x1 contiki-srf06-cc26xx.a(prop-mode.o)
 .data.rng_ready_event
                0x2000030d        0x1 contiki-srf06-cc26xx.a(soc-trng.o)
                0x2000030e                _edata = .

.ARM.exidx      0x0000cfec       0x10
 *(SORT(.ARM.exidx*))
 .ARM.exidx     0x0000cfec        0x8 /home/user/CodeSourcery/Sourcery_G++_Lite/bin/../lib/gcc/arm-none-eabi/4.3.2/thumb2/libgcc.a(_divdi3.o)
 .ARM.exidx     0x0000cff4        0x8 /home/user/CodeSourcery/Sourcery_G++_Lite/bin/../lib/gcc/arm-none-eabi/4.3.2/thumb2/libgcc.a(_udivdi3.o)

.bss            0x20000310     0x20ff
                0x20000310                _bss = .
 *(SORT(.bss*))
 .bss.s         0x20000310      0x220 slip-radio.co
 .bss.count     0x20000530        0x8 contiki-srf06-cc26xx.a(clock.o)
 .bss.rands_cache
                0x20000538       0x20 contiki-srf06-cc26xx.a(soc-trng.o)
 .bss.et.4802   0x20000558       0x10 slip-radio.co
 .bss.bytes_received
                0x20000568        0x4 slip-radio.co
 .bss.et.4768   0x2000056c       0x10 slip-radio.co
 .bss.i.2044    0x2000057c        0x4 contiki-srf06-cc26xx.a(sensors.o)
 .bss.events.2045
                0x20000580        0x4 contiki-srf06-cc26xx.a(sensors.o)
 .bss.inited    0x20000584        0x4 contiki-srf06-cc26xx.a(leds-arch.o)
 .bss.right_timer
                0x20000588       0x10 contiki-srf06-cc26xx.a(button-sensor.o)
 .bss.left_timer
                0x20000598       0x10 contiki-srf06-cc26xx.a(button-sensor.o)
 .bss.rx_stats  0x200005a8        0xc contiki-srf06-cc26xx.a(prop-mode.o)
 .bss.rx_data_queue
                0x200005b4        0x8 contiki-srf06-cc26xx.a(prop-mode.o)
 .bss.rx_read_entry
                0x200005bc        0x4 contiki-srf06-cc26xx.a(prop-mode.o)
 .bss.tx_buf    0x200005c0       0xb8 contiki-srf06-cc26xx.a(prop-mode.o)
 .bss.rx_buf    0x20000678      0x230 contiki-srf06-cc26xx.a(prop-mode.o)
 .bss.last_isr_time
                0x200008a8        0x4 contiki-srf06-cc26xx.a(soc-rtc.o)
 .bss.input_callback
                0x200008ac        0x4 contiki-srf06-cc26xx.a(slip.o)
 .bss.input_handler
                0x200008b0        0x4 contiki-srf06-cc26xx.a(cc26xx-uart.o)
 .bss.modules_list_list
                0x200008b4        0x4 contiki-srf06-cc26xx.a(lpm.o)
 .bss.handlers  0x200008b8       0x80 contiki-srf06-cc26xx.a(gpio-interrupt.)
 .bss.last_radio_op
                0x20000938        0x4 contiki-srf06-cc26xx.a(rf-core.o)
 .bss.primary_mode
                0x2000093c        0x4 contiki-srf06-cc26xx.a(rf-core.o)
 .bss.rat_offset
                0x20000940        0x4 contiki-srf06-cc26xx.a(rf-core.o)
                0x20000940                rat_offset
 .bss.notify_cb
                0x20000944        0x4 contiki-srf06-cc26xx.a(soc-trng.o)
 .bss.socketlist_list
                0x20000948        0x4 contiki-srf06-cc26xx.a(http-socket.o)
 .bss.ctimer_list_list
                0x2000094c        0x4 contiki-srf06-cc26xx.a(ctimer.o)
 .bss.timerlist
                0x20000950        0x4 contiki-srf06-cc26xx.a(etimer.o)
 .bss.next_expiration
                0x20000954        0x4 contiki-srf06-cc26xx.a(etimer.o)
 .bss.process_current
                0x20000958        0x4 contiki-srf06-cc26xx.a(process.o)
                0x20000958                process_current
 .bss.process_list
                0x2000095c        0x4 contiki-srf06-cc26xx.a(process.o)
                0x2000095c                process_list
 .bss.events    0x20000960      0x180 contiki-srf06-cc26xx.a(process.o)
 .bss.next_rtimer
                0x20000ae0        0x4 contiki-srf06-cc26xx.a(rtimer.o)
 .bss.rxbuf     0x20000ae4        0x8 contiki-srf06-cc26xx.a(serial-line.o)
 .bss.ptr.2010  0x20000aec        0x4 contiki-srf06-cc26xx.a(serial-line.o)
 .bss.locprefix
                0x20000af0        0x4 contiki-srf06-cc26xx.a(uip-ds6.o)
 .bss.locmaddr  0x20000af4        0x4 contiki-srf06-cc26xx.a(uip-ds6.o)
 .bss.locaddr   0x20000af8        0x4 contiki-srf06-cc26xx.a(uip-ds6.o)
 .bss._ds6_neighbors_mem
                0x20000afc      0x320 contiki-srf06-cc26xx.a(uip-ds6-nbr.o)
 .bss._nbr_routes_mem
                0x20000e1c       0xa0 contiki-srf06-cc26xx.a(uip-ds6-route.o)
 .bss.defaultroutermemb_memb_mem
                0x20000ebc       0x40 contiki-srf06-cc26xx.a(uip-ds6-route.o)
 .bss.num_routes
                0x20000efc        0x4 contiki-srf06-cc26xx.a(uip-ds6-route.o)
 .bss.defaultrouterlist_list
                0x20000f00        0x4 contiki-srf06-cc26xx.a(uip-ds6-route.o)
 .bss.neighborroutememb_memb_mem
                0x20000f04       0xa0 contiki-srf06-cc26xx.a(uip-ds6-route.o)
 .bss.routememb_memb_mem
                0x20000fa4      0x320 contiki-srf06-cc26xx.a(uip-ds6-route.o)
 .bss.notificationlist_list
                0x200012c4        0x4 contiki-srf06-cc26xx.a(uip-ds6-route.o)
 .bss.routelist_list
                0x200012c8        0x4 contiki-srf06-cc26xx.a(uip-ds6-route.o)
 .bss.echo_reply_callback_list_list
                0x200012cc        0x4 contiki-srf06-cc26xx.a(uip-icmp6.o)
 .bss.input_handler_list_list
                0x200012d0        0x4 contiki-srf06-cc26xx.a(uip-icmp6.o)
 .bss.nd6_opt_prefix_info
                0x200012d4        0x4 contiki-srf06-cc26xx.a(uip-nd6.o)
 .bss.prefix    0x200012d8        0x4 contiki-srf06-cc26xx.a(uip-nd6.o)
 .bss.defrt     0x200012dc        0x4 contiki-srf06-cc26xx.a(uip-nd6.o)
 .bss.nbr       0x200012e0        0x4 contiki-srf06-cc26xx.a(uip-nd6.o)
 .bss.nd6_opt_llao
                0x200012e4        0x4 contiki-srf06-cc26xx.a(uip-nd6.o)
 .bss.addr      0x200012e8        0x4 contiki-srf06-cc26xx.a(uip-nd6.o)
 .bss.resolv_conn
                0x200012ec        0x4 contiki-srf06-cc26xx.a(resolv.o)
 .bss.mdns_needs_host_announce
                0x200012f0        0x4 contiki-srf06-cc26xx.a(resolv.o)
 .bss.retry     0x200012f4       0x10 contiki-srf06-cc26xx.a(resolv.o)
 .bss.delay.3862
                0x20001304       0x10 contiki-srf06-cc26xx.a(resolv.o)
 .bss.names     0x20001314      0x100 contiki-srf06-cc26xx.a(resolv.o)
 .bss.s         0x20001414       0xa4 contiki-srf06-cc26xx.a(tcpip.o)
 .bss.periodic  0x200014b8       0x10 contiki-srf06-cc26xx.a(tcpip.o)
 .bss.outputfunc
                0x200014c8        0x4 contiki-srf06-cc26xx.a(tcpip.o)
 .bss.socketlist_list
                0x200014cc        0x4 contiki-srf06-cc26xx.a(tcp-socket.o)
 .bss.serverlifetime
                0x200014d0        0x4 contiki-srf06-cc26xx.a(uip-nameserver.)
 .bss.powerQualGlobals
                0x200014d4        0x8 contiki-srf06-cc26xx.a(sys_ctrl.o)
 .bss._link_stats_mem
                0x200014dc       0xf0 contiki-srf06-cc26xx.a(link-stats.o)
 .bss.nbr_table_keys_list
                0x200015cc        0x4 contiki-srf06-cc26xx.a(nbr-table.o)
 .bss.num_tables
                0x200015d0        0x4 contiki-srf06-cc26xx.a(nbr-table.o)
 .bss.neighbor_addr_mem_memb_mem
                0x200015d4       0xf0 contiki-srf06-cc26xx.a(nbr-table.o)
 .bss.all_tables
                0x200016c4       0x20 contiki-srf06-cc26xx.a(nbr-table.o)
 .bss.packetbuf_aligned
                0x200016e4       0x80 contiki-srf06-cc26xx.a(packetbuf.o)
 .bss.bufmem_memb_mem
                0x20001764       0x10 contiki-srf06-cc26xx.a(queuebuf.o)
 .bss.cycle_start
                0x20001774        0x4 contiki-srf06-cc26xx.a(contikimac.o)
 .bss.we_are_receiving_burst
                0x20001778        0x4 contiki-srf06-cc26xx.a(contikimac.o)
 .bss.start.4024
                0x2000177c        0x4 contiki-srf06-cc26xx.a(contikimac.o)
 .bss.ct.4225   0x20001780       0x20 contiki-srf06-cc26xx.a(contikimac.o)
 .bss.rt        0x200017a0        0xc contiki-srf06-cc26xx.a(contikimac.o)
 .bss.consumers_list_list
                0x200017ac        0x4 contiki-srf06-cc26xx.a(aux-ctrl.o)
 .bss.received_seqnos
                0x200017b0      0x100 contiki-srf06-cc26xx.a(mac-sequence.o)
 .bss.node_id   0x200018b0        0x2 contiki-srf06-cc26xx.a(contiki-main.o)
                0x200018b0                node_id
 .bss.next_free
                0x200018b2        0x2 contiki-srf06-cc26xx.a(slip.o)
 .bss.pkt_end   0x200018b4        0x2 contiki-srf06-cc26xx.a(slip.o)
 .bss.begin     0x200018b6        0x2 contiki-srf06-cc26xx.a(slip.o)
 .bss.lastport  0x200018b8        0x2 contiki-srf06-cc26xx.a(uip6.o)
 .bss.loc_fipaddr
                0x200018ba       0x10 contiki-srf06-cc26xx.a(uip-ds6.o)
 .bss.tmp_ipaddr
                0x200018ca       0x10 contiki-srf06-cc26xx.a(uip-icmp6.o)
 .bss.ipaddr    0x200018da       0x10 contiki-srf06-cc26xx.a(uip-nd6.o)
 .bss.aligned.3744
                0x200018ea        0x4 contiki-srf06-cc26xx.a(resolv.o)
 .bss.aligned.3752
                0x200018ee       0x1a contiki-srf06-cc26xx.a(resolv.o)
 .bss.serveraddr
                0x20001908       0x10 contiki-srf06-cc26xx.a(uip-nameserver.)
 .bss.buflen    0x20001918        0x2 contiki-srf06-cc26xx.a(packetbuf.o)
 .bss.bufptr    0x2000191a        0x2 contiki-srf06-cc26xx.a(packetbuf.o)
 .bss.buframmem_memb_mem
                0x2000191c      0x2c0 contiki-srf06-cc26xx.a(queuebuf.o)
 .bss.pt        0x20001bdc        0x2 contiki-srf06-cc26xx.a(contikimac.o)
 .bss.num_sensors
                0x20001bde        0x1 contiki-srf06-cc26xx.a(sensors.o)
 .bss.leds      0x20001bdf        0x1 contiki-srf06-cc26xx.a(leds.o)
 .bss.c         0x20001be0        0x1 contiki-srf06-cc26xx.a(leds-arch.o)
 .bss.state     0x20001be1        0x1 contiki-srf06-cc26xx.a(slip.o)
 .bss.rxbuf     0x20001be2       0x9c contiki-srf06-cc26xx.a(slip.o)
 .bss.rat_offset_known
                0x20001c7e        0x1 contiki-srf06-cc26xx.a(rf-core.o)
 .bss.ble_mode_on
                0x20001c7f        0x1 contiki-srf06-cc26xx.a(rf-ble.o)
 .bss.rands_mask
                0x20001c80        0x4 contiki-srf06-cc26xx.a(soc-trng.o)
 .bss.inited.5010
                0x20001c84        0x1 contiki-srf06-cc26xx.a(http-socket.o)
 .bss.initialized
                0x20001c85        0x1 contiki-srf06-cc26xx.a(ctimer.o)
 .bss.fevent    0x20001c86        0x1 contiki-srf06-cc26xx.a(process.o)
 .bss.nevents   0x20001c87        0x1 contiki-srf06-cc26xx.a(process.o)
 .bss.lastevent
                0x20001c88        0x1 contiki-srf06-cc26xx.a(process.o)
 .bss.poll_requested
                0x20001c89        0x1 contiki-srf06-cc26xx.a(process.o)
 .bss.rxbuf_data
                0x20001c8a       0x80 contiki-srf06-cc26xx.a(serial-line.o)
 .bss.buf.2009  0x20001d0a       0x80 contiki-srf06-cc26xx.a(serial-line.o)
 .bss.uip_ext_len
                0x20001d8a        0x1 contiki-srf06-cc26xx.a(uip6.o)
                0x20001d8a                uip_ext_len
 .bss.uip_ext_bitmap
                0x20001d8b        0x1 contiki-srf06-cc26xx.a(uip6.o)
                0x20001d8b                uip_ext_bitmap
 .bss.iss       0x20001d8c        0x4 contiki-srf06-cc26xx.a(uip6.o)
 .bss.uip_ext_opt_offset
                0x20001d90        0x1 contiki-srf06-cc26xx.a(uip6.o)
                0x20001d90                uip_ext_opt_offset
 .bss.rscount   0x20001d91        0x1 contiki-srf06-cc26xx.a(uip-ds6.o)
 .bss.defaultroutermemb_memb_count
                0x20001d92        0x2 contiki-srf06-cc26xx.a(uip-ds6-route.o)
 .bss.neighborroutememb_memb_count
                0x20001d94       0x14 contiki-srf06-cc26xx.a(uip-ds6-route.o)
 .bss.routememb_memb_count
                0x20001da8       0x14 contiki-srf06-cc26xx.a(uip-ds6-route.o)
 .bss.nd6_opt_offset
                0x20001dbc        0x1 contiki-srf06-cc26xx.a(uip-nd6.o)
 .bss.resolv_hostname
                0x20001dbd       0x21 contiki-srf06-cc26xx.a(resolv.o)
 .bss.dns_name_without_dots.3925
                0x20001dde       0x21 contiki-srf06-cc26xx.a(resolv.o)
 .bss.initialized.3920
                0x20001dff        0x1 contiki-srf06-cc26xx.a(resolv.o)
 .bss.seqno     0x20001e00        0x1 contiki-srf06-cc26xx.a(resolv.o)
 .bss.mdns_state
                0x20001e01        0x1 contiki-srf06-cc26xx.a(resolv.o)
 .bss.inited.4679
                0x20001e02        0x1 contiki-srf06-cc26xx.a(tcp-socket.o)
 .bss.neighbor_addr_mem_memb_count
                0x20001e03       0x14 contiki-srf06-cc26xx.a(nbr-table.o)
 .bss.locked_map
                0x20001e17       0x14 contiki-srf06-cc26xx.a(nbr-table.o)
 .bss.used_map  0x20001e2b       0x14 contiki-srf06-cc26xx.a(nbr-table.o)
 .bss.hdrlen    0x20001e3f        0x1 contiki-srf06-cc26xx.a(packetbuf.o)
 .bss.buframmem_memb_count
                0x20001e40        0x4 contiki-srf06-cc26xx.a(queuebuf.o)
 .bss.bufmem_memb_count
                0x20001e44        0x4 contiki-srf06-cc26xx.a(queuebuf.o)
 .bss.contikimac_keep_radio_on
                0x20001e48        0x1 contiki-srf06-cc26xx.a(contikimac.o)
 .bss.radio_is_on
                0x20001e49        0x1 contiki-srf06-cc26xx.a(contikimac.o)
 .bss.we_are_sending
                0x20001e4a        0x1 contiki-srf06-cc26xx.a(contikimac.o)
 .bss.packet_seen.4018
                0x20001e4b        0x1 contiki-srf06-cc26xx.a(contikimac.o)
 .bss.contikimac_is_on
                0x20001e4c        0x1 contiki-srf06-cc26xx.a(contikimac.o)
 .bss.count.4019
                0x20001e4d        0x1 contiki-srf06-cc26xx.a(contikimac.o)
 .bss.periods.4026
                0x20001e4e        0x1 contiki-srf06-cc26xx.a(contikimac.o)
 .bss.silence_periods.4025
                0x20001e4f        0x1 contiki-srf06-cc26xx.a(contikimac.o)
 *(SORT(COMMON))
 COMMON         0x20001e50       0x14 slip-radio.co
                0x20001e50                packet_pos
                0x20001e54                packet_ids
 COMMON         0x20001e64      0x408 contiki-srf06-cc26xx.a(uip6.o)
                0x20001e64                uip_len
                0x20001e68                uip_sappdata
                0x20001e6c                uip_acc32
                0x20001e70                uip_lladdr
                0x20001e78                uip_aligned_buf
                0x20001f04                uip_flags
                0x20001f08                uip_next_hdr
                0x20001f0c                uip_udp_conn
                0x20001f10                uip_appdata
                0x20001f14                uip_conn
                0x20001f18                uip_conns
                0x200020f8                uip_icmp6_conns
                0x20002100                uip_listenports
                0x20002128                uip_slen
                0x2000212c                uip_udp_conns
 COMMON         0x2000226c      0x144 contiki-srf06-cc26xx.a(uip-ds6.o)
                0x2000226c                uip_ds6_if
                0x2000232c                uip_ds6_netif_addr_list_offset
                0x2000232d                uip_ds6_addr_size
                0x20002330                uip_ds6_prefix_list
                0x20002390                uip_ds6_timer_periodic
                0x200023a0                uip_ds6_timer_rs
 COMMON         0x200023b0       0x20 contiki-srf06-cc26xx.a(link-stats.o)
                0x200023b0                periodic_timer
 COMMON         0x200023d0       0x2e contiki-srf06-cc26xx.a(packetbuf.o)
                0x200023d0                packetbuf_addrs
                0x200023e0                packetbuf_attrs
 COMMON         0x200023fe        0x1 contiki-srf06-cc26xx.a(sensors.o)
                0x200023fe                sensors_event
 COMMON         0x200023ff        0x3 contiki-srf06-cc26xx.a(launchpad-senso)
                0x200023ff                sensors_flags
 COMMON         0x20002402        0x1 contiki-srf06-cc26xx.a(slip.o)
                0x20002402                slip_active
 COMMON         0x20002403        0x1 contiki-srf06-cc26xx.a(serial-line.o)
                0x20002403                serial_line_event_message
 COMMON         0x20002404        0x1 contiki-srf06-cc26xx.a(resolv.o)
                0x20002404                resolv_event_found
 COMMON         0x20002405        0x2 contiki-srf06-cc26xx.a(tcpip.o)
                0x20002405                tcpip_event
                0x20002406                tcpip_icmp6_event
 COMMON         0x20002407        0x8 contiki-srf06-cc26xx.a(linkaddr.o)
                0x20002407                linkaddr_node_addr
                0x2000240f                _ebss = .

.ccfg           0x0001ffa8       0x58
 *(SORT(.ccfg))
 .ccfg          0x0001ffa8       0x58 obj_srf06-cc26xx/ccfg.o
                0x0001ffa8                __ccfg

._user_heap_stack
                0x2000240f      0x101
                0x20002410                . = ALIGN (0x4)
 *fill*         0x2000240f        0x1 00
                0x20002410                . = (. + _Min_Heap_Size)
                0x20002510                . = (. + _Min_Stack_Size)
 *fill*         0x20002410      0x100 00
                0x20002510                . = ALIGN (0x4)

.gpram
OUTPUT(slip-radio.elf elf32-littlearm)

.comment        0x00000000      0xf18
 .comment       0x00000000       0x2a obj_srf06-cc26xx/fault-handlers.o
 .comment       0x0000002a       0x2a obj_srf06-cc26xx/ccfg.o
 .comment       0x00000054       0x2a obj_srf06-cc26xx/startup_gcc.o
 .comment       0x0000007e       0x2a slip-radio.co
 .comment       0x000000a8       0x2a obj_srf06-cc26xx/slip-net.o
 .comment       0x000000d2       0x2a obj_srf06-cc26xx/no-framer.o
 .comment       0x000000fc       0x2a contiki-srf06-cc26xx.a(cmd.o)
 .comment       0x00000126       0x2a contiki-srf06-cc26xx.a(packetutils.o)
 .comment       0x00000150       0x2a contiki-srf06-cc26xx.a(contiki-main.o)
 .comment       0x0000017a       0x2a contiki-srf06-cc26xx.a(sensors.o)
 .comment       0x000001a4       0x2a contiki-srf06-cc26xx.a(leds.o)
 .comment       0x000001ce       0x2a contiki-srf06-cc26xx.a(board.o)
 .comment       0x000001f8       0x2a contiki-srf06-cc26xx.a(launchpad-senso)
 .comment       0x00000222       0x2a contiki-srf06-cc26xx.a(leds-arch.o)
 .comment       0x0000024c       0x2a contiki-srf06-cc26xx.a(button-sensor.o)
 .comment       0x00000276       0x2a contiki-srf06-cc26xx.a(ext-flash.o)
 .comment       0x000002a0       0x2a contiki-srf06-cc26xx.a(board-spi.o)
 .comment       0x000002ca       0x2a contiki-srf06-cc26xx.a(prop-mode.o)
 .comment       0x000002f4       0x2a contiki-srf06-cc26xx.a(prop-mode-tx-po)
 .comment       0x0000031e       0x2a contiki-srf06-cc26xx.a(clock.o)
 .comment       0x00000348       0x2a contiki-srf06-cc26xx.a(rtimer-arch.o)
 .comment       0x00000372       0x2a contiki-srf06-cc26xx.a(soc-rtc.o)
 .comment       0x0000039c       0x2a contiki-srf06-cc26xx.a(contiki-watchdo)
 .comment       0x000003c6       0x2a contiki-srf06-cc26xx.a(putchar.o)
 .comment       0x000003f0       0x2a contiki-srf06-cc26xx.a(ieee-addr.o)
 .comment       0x0000041a       0x2a contiki-srf06-cc26xx.a(slip-arch.o)
 .comment       0x00000444       0x2a contiki-srf06-cc26xx.a(slip.o)
 .comment       0x0000046e       0x2a contiki-srf06-cc26xx.a(cc26xx-uart.o)
 .comment       0x00000498       0x2a contiki-srf06-cc26xx.a(lpm.o)
 .comment       0x000004c2       0x2a contiki-srf06-cc26xx.a(gpio-interrupt.)
 .comment       0x000004ec       0x2a contiki-srf06-cc26xx.a(oscillators.o)
 .comment       0x00000516       0x2a contiki-srf06-cc26xx.a(rf-core.o)
 .comment       0x00000540       0x2a contiki-srf06-cc26xx.a(rf-ble.o)
 .comment       0x0000056a       0x2a contiki-srf06-cc26xx.a(random.o)
 .comment       0x00000594       0x2a contiki-srf06-cc26xx.a(soc-trng.o)
 .comment       0x000005be       0x2a contiki-srf06-cc26xx.a(dbg-printf.o)
 .comment       0x000005e8       0x2a contiki-srf06-cc26xx.a(strformat.o)
 .comment       0x00000612       0x2a contiki-srf06-cc26xx.a(http-socket.o)
 .comment       0x0000063c       0x2a contiki-srf06-cc26xx.a(autostart.o)
 .comment       0x00000666       0x2a contiki-srf06-cc26xx.a(ctimer.o)
 .comment       0x00000690       0x2a contiki-srf06-cc26xx.a(energest.o)
 .comment       0x000006ba       0x2a contiki-srf06-cc26xx.a(etimer.o)
 .comment       0x000006e4       0x2a contiki-srf06-cc26xx.a(process.o)
 .comment       0x0000070e       0x2a contiki-srf06-cc26xx.a(rtimer.o)
 .comment       0x00000738       0x2a contiki-srf06-cc26xx.a(timer.o)
 .comment       0x00000762       0x2a contiki-srf06-cc26xx.a(serial-line.o)
 .comment       0x0000078c       0x2a contiki-srf06-cc26xx.a(list.o)
 .comment       0x000007b6       0x2a contiki-srf06-cc26xx.a(ringbuf.o)
 .comment       0x000007e0       0x2a contiki-srf06-cc26xx.a(uip6.o)
 .comment       0x0000080a       0x2a contiki-srf06-cc26xx.a(uip-ds6.o)
 .comment       0x00000834       0x2a contiki-srf06-cc26xx.a(uip-ds6-nbr.o)
 .comment       0x0000085e       0x2a contiki-srf06-cc26xx.a(uip-ds6-route.o)
 .comment       0x00000888       0x2a contiki-srf06-cc26xx.a(uip-icmp6.o)
 .comment       0x000008b2       0x2a contiki-srf06-cc26xx.a(uip-nd6.o)
 .comment       0x000008dc       0x2a contiki-srf06-cc26xx.a(ip64-addr.o)
 .comment       0x00000906       0x2a contiki-srf06-cc26xx.a(resolv.o)
 .comment       0x00000930       0x2a contiki-srf06-cc26xx.a(tcpip.o)
 .comment       0x0000095a       0x2a contiki-srf06-cc26xx.a(tcp-socket.o)
 .comment       0x00000984       0x2a contiki-srf06-cc26xx.a(uip-debug.o)
 .comment       0x000009ae       0x2a contiki-srf06-cc26xx.a(uiplib.o)
 .comment       0x000009d8       0x2a contiki-srf06-cc26xx.a(uip-nameserver.)
 .comment       0x00000a02       0x2a contiki-srf06-cc26xx.a(uip-udp-packet.)
 .comment       0x00000a2c       0x2a contiki-srf06-cc26xx.a(adi.o)
 .comment       0x00000a56       0x2a contiki-srf06-cc26xx.a(aon_rtc.o)
 .comment       0x00000a80       0x2a contiki-srf06-cc26xx.a(chipinfo.o)
 .comment       0x00000aaa       0x2a contiki-srf06-cc26xx.a(cpu.o)
 .comment       0x00000ad4       0x2a contiki-srf06-cc26xx.a(osc.o)
 .comment       0x00000afe       0x2a contiki-srf06-cc26xx.a(pwr_ctrl.o)
 .comment       0x00000b28       0x2a contiki-srf06-cc26xx.a(rfc.o)
 .comment       0x00000b52       0x2a contiki-srf06-cc26xx.a(setup.o)
 .comment       0x00000b7c       0x2a contiki-srf06-cc26xx.a(setup_rom.o)
 .comment       0x00000ba6       0x2a contiki-srf06-cc26xx.a(sys_ctrl.o)
 .comment       0x00000bd0       0x2a contiki-srf06-cc26xx.a(trng.o)
 .comment       0x00000bfa       0x2a contiki-srf06-cc26xx.a(linkaddr.o)
 .comment       0x00000c24       0x2a contiki-srf06-cc26xx.a(link-stats.o)
 .comment       0x00000c4e       0x2a contiki-srf06-cc26xx.a(nbr-table.o)
 .comment       0x00000c78       0x2a contiki-srf06-cc26xx.a(netstack.o)
 .comment       0x00000ca2       0x2a contiki-srf06-cc26xx.a(packetbuf.o)
 .comment       0x00000ccc       0x2a contiki-srf06-cc26xx.a(queuebuf.o)
 .comment       0x00000cf6       0x2a contiki-srf06-cc26xx.a(frame802154.o)
 .comment       0x00000d20       0x2a contiki-srf06-cc26xx.a(nullmac.o)
 .comment       0x00000d4a       0x2a contiki-srf06-cc26xx.a(contikimac.o)
 .comment       0x00000d74       0x2a contiki-srf06-cc26xx.a(nullsec.o)
 .comment       0x00000d9e       0x2a contiki-srf06-cc26xx.a(smartrf-setting)
 .comment       0x00000dc8       0x2a contiki-srf06-cc26xx.a(aux-ctrl.o)
 .comment       0x00000df2       0x2a contiki-srf06-cc26xx.a(dbg-sprintf.o)
 .comment       0x00000e1c       0x2a contiki-srf06-cc26xx.a(stimer.o)
 .comment       0x00000e46       0x2a contiki-srf06-cc26xx.a(memb.o)
 .comment       0x00000e70       0x2a contiki-srf06-cc26xx.a(aon_batmon.o)
 .comment       0x00000e9a       0x2a contiki-srf06-cc26xx.a(ddi.o)
 .comment       0x00000ec4       0x2a contiki-srf06-cc26xx.a(mac.o)
 .comment       0x00000eee       0x2a contiki-srf06-cc26xx.a(mac-sequence.o)

.ARM.attributes
                0x00000000       0x31
 .ARM.attributes
                0x00000000       0x31 obj_srf06-cc26xx/fault-handlers.o
 .ARM.attributes
                0x00000031       0x2f obj_srf06-cc26xx/ccfg.o
 .ARM.attributes
                0x00000060       0x31 obj_srf06-cc26xx/startup_gcc.o
 .ARM.attributes
                0x00000091       0x31 slip-radio.co
 .ARM.attributes
                0x000000c2       0x31 obj_srf06-cc26xx/slip-net.o
 .ARM.attributes
                0x000000f3       0x31 obj_srf06-cc26xx/no-framer.o
 .ARM.attributes
                0x00000124       0x31 contiki-srf06-cc26xx.a(cmd.o)
 .ARM.attributes
                0x00000155       0x31 contiki-srf06-cc26xx.a(packetutils.o)
 .ARM.attributes
                0x00000186       0x31 contiki-srf06-cc26xx.a(contiki-main.o)
 .ARM.attributes
                0x000001b7       0x31 contiki-srf06-cc26xx.a(sensors.o)
 .ARM.attributes
                0x000001e8       0x31 contiki-srf06-cc26xx.a(leds.o)
 .ARM.attributes
                0x00000219       0x31 contiki-srf06-cc26xx.a(board.o)
 .ARM.attributes
                0x0000024a       0x2f contiki-srf06-cc26xx.a(launchpad-senso)
 .ARM.attributes
                0x00000279       0x31 contiki-srf06-cc26xx.a(leds-arch.o)
 .ARM.attributes
                0x000002aa       0x31 contiki-srf06-cc26xx.a(button-sensor.o)
 .ARM.attributes
                0x000002db       0x31 contiki-srf06-cc26xx.a(ext-flash.o)
 .ARM.attributes
                0x0000030c       0x31 contiki-srf06-cc26xx.a(board-spi.o)
 .ARM.attributes
                0x0000033d       0x31 contiki-srf06-cc26xx.a(prop-mode.o)
 .ARM.attributes
                0x0000036e       0x2f contiki-srf06-cc26xx.a(prop-mode-tx-po)
 .ARM.attributes
                0x0000039d       0x31 contiki-srf06-cc26xx.a(clock.o)
 .ARM.attributes
                0x000003ce       0x31 contiki-srf06-cc26xx.a(rtimer-arch.o)
 .ARM.attributes
                0x000003ff       0x31 contiki-srf06-cc26xx.a(soc-rtc.o)
 .ARM.attributes
                0x00000430       0x31 contiki-srf06-cc26xx.a(contiki-watchdo)
 .ARM.attributes
                0x00000461       0x31 contiki-srf06-cc26xx.a(putchar.o)
 .ARM.attributes
                0x00000492       0x31 contiki-srf06-cc26xx.a(ieee-addr.o)
 .ARM.attributes
                0x000004c3       0x31 contiki-srf06-cc26xx.a(slip-arch.o)
 .ARM.attributes
                0x000004f4       0x31 contiki-srf06-cc26xx.a(slip.o)
 .ARM.attributes
                0x00000525       0x31 contiki-srf06-cc26xx.a(cc26xx-uart.o)
 .ARM.attributes
                0x00000556       0x31 contiki-srf06-cc26xx.a(lpm.o)
 .ARM.attributes
                0x00000587       0x31 contiki-srf06-cc26xx.a(gpio-interrupt.)
 .ARM.attributes
                0x000005b8       0x31 contiki-srf06-cc26xx.a(oscillators.o)
 .ARM.attributes
                0x000005e9       0x31 contiki-srf06-cc26xx.a(rf-core.o)
 .ARM.attributes
                0x0000061a       0x31 contiki-srf06-cc26xx.a(rf-ble.o)
 .ARM.attributes
                0x0000064b       0x31 contiki-srf06-cc26xx.a(random.o)
 .ARM.attributes
                0x0000067c       0x31 contiki-srf06-cc26xx.a(soc-trng.o)
 .ARM.attributes
                0x000006ad       0x31 contiki-srf06-cc26xx.a(dbg-printf.o)
 .ARM.attributes
                0x000006de       0x31 contiki-srf06-cc26xx.a(strformat.o)
 .ARM.attributes
                0x0000070f       0x31 contiki-srf06-cc26xx.a(http-socket.o)
 .ARM.attributes
                0x00000740       0x31 contiki-srf06-cc26xx.a(autostart.o)
 .ARM.attributes
                0x00000771       0x31 contiki-srf06-cc26xx.a(ctimer.o)
 .ARM.attributes
                0x000007a2       0x31 contiki-srf06-cc26xx.a(energest.o)
 .ARM.attributes
                0x000007d3       0x31 contiki-srf06-cc26xx.a(etimer.o)
 .ARM.attributes
                0x00000804       0x31 contiki-srf06-cc26xx.a(process.o)
 .ARM.attributes
                0x00000835       0x31 contiki-srf06-cc26xx.a(rtimer.o)
 .ARM.attributes
                0x00000866       0x31 contiki-srf06-cc26xx.a(timer.o)
 .ARM.attributes
                0x00000897       0x31 contiki-srf06-cc26xx.a(serial-line.o)
 .ARM.attributes
                0x000008c8       0x31 contiki-srf06-cc26xx.a(list.o)
 .ARM.attributes
                0x000008f9       0x31 contiki-srf06-cc26xx.a(ringbuf.o)
 .ARM.attributes
                0x0000092a       0x31 contiki-srf06-cc26xx.a(uip6.o)
 .ARM.attributes
                0x0000095b       0x31 contiki-srf06-cc26xx.a(uip-ds6.o)
 .ARM.attributes
                0x0000098c       0x31 contiki-srf06-cc26xx.a(uip-ds6-nbr.o)
 .ARM.attributes
                0x000009bd       0x31 contiki-srf06-cc26xx.a(uip-ds6-route.o)
 .ARM.attributes
                0x000009ee       0x31 contiki-srf06-cc26xx.a(uip-icmp6.o)
 .ARM.attributes
                0x00000a1f       0x31 contiki-srf06-cc26xx.a(uip-nd6.o)
 .ARM.attributes
                0x00000a50       0x31 contiki-srf06-cc26xx.a(ip64-addr.o)
 .ARM.attributes
                0x00000a81       0x31 contiki-srf06-cc26xx.a(resolv.o)
 .ARM.attributes
                0x00000ab2       0x31 contiki-srf06-cc26xx.a(tcpip.o)
 .ARM.attributes
                0x00000ae3       0x31 contiki-srf06-cc26xx.a(tcp-socket.o)
 .ARM.attributes
                0x00000b14       0x31 contiki-srf06-cc26xx.a(uip-debug.o)
 .ARM.attributes
                0x00000b45       0x31 contiki-srf06-cc26xx.a(uiplib.o)
 .ARM.attributes
                0x00000b76       0x31 contiki-srf06-cc26xx.a(uip-nameserver.)
 .ARM.attributes
                0x00000ba7       0x31 contiki-srf06-cc26xx.a(uip-udp-packet.)
 .ARM.attributes
                0x00000bd8       0x31 contiki-srf06-cc26xx.a(adi.o)
 .ARM.attributes
                0x00000c09       0x31 contiki-srf06-cc26xx.a(aon_rtc.o)
 .ARM.attributes
                0x00000c3a       0x31 contiki-srf06-cc26xx.a(chipinfo.o)
 .ARM.attributes
                0x00000c6b       0x31 contiki-srf06-cc26xx.a(cpu.o)
 .ARM.attributes
                0x00000c9c       0x31 contiki-srf06-cc26xx.a(osc.o)
 .ARM.attributes
                0x00000ccd       0x31 contiki-srf06-cc26xx.a(pwr_ctrl.o)
 .ARM.attributes
                0x00000cfe       0x31 contiki-srf06-cc26xx.a(rfc.o)
 .ARM.attributes
                0x00000d2f       0x31 contiki-srf06-cc26xx.a(setup.o)
 .ARM.attributes
                0x00000d60       0x31 contiki-srf06-cc26xx.a(setup_rom.o)
 .ARM.attributes
                0x00000d91       0x31 contiki-srf06-cc26xx.a(sys_ctrl.o)
 .ARM.attributes
                0x00000dc2       0x31 contiki-srf06-cc26xx.a(trng.o)
 .ARM.attributes
                0x00000df3       0x31 contiki-srf06-cc26xx.a(linkaddr.o)
 .ARM.attributes
                0x00000e24       0x31 contiki-srf06-cc26xx.a(link-stats.o)
 .ARM.attributes
                0x00000e55       0x31 contiki-srf06-cc26xx.a(nbr-table.o)
 .ARM.attributes
                0x00000e86       0x31 contiki-srf06-cc26xx.a(netstack.o)
 .ARM.attributes
                0x00000eb7       0x31 contiki-srf06-cc26xx.a(packetbuf.o)
 .ARM.attributes
                0x00000ee8       0x31 contiki-srf06-cc26xx.a(queuebuf.o)
 .ARM.attributes
                0x00000f19       0x31 contiki-srf06-cc26xx.a(frame802154.o)
 .ARM.attributes
                0x00000f4a       0x31 contiki-srf06-cc26xx.a(nullmac.o)
 .ARM.attributes
                0x00000f7b       0x31 contiki-srf06-cc26xx.a(contikimac.o)
 .ARM.attributes
                0x00000fac       0x31 contiki-srf06-cc26xx.a(nullsec.o)
 .ARM.attributes
                0x00000fdd       0x2f contiki-srf06-cc26xx.a(smartrf-setting)
 .ARM.attributes
                0x0000100c       0x31 contiki-srf06-cc26xx.a(aux-ctrl.o)
 .ARM.attributes
                0x0000103d       0x31 contiki-srf06-cc26xx.a(dbg-sprintf.o)
 .ARM.attributes
                0x0000106e       0x31 contiki-srf06-cc26xx.a(stimer.o)
 .ARM.attributes
                0x0000109f       0x31 contiki-srf06-cc26xx.a(memb.o)
 .ARM.attributes
                0x000010d0       0x31 contiki-srf06-cc26xx.a(aon_batmon.o)
 .ARM.attributes
                0x00001101       0x31 contiki-srf06-cc26xx.a(ddi.o)
 .ARM.attributes
                0x00001132       0x31 contiki-srf06-cc26xx.a(mac.o)
 .ARM.attributes
                0x00001163       0x31 contiki-srf06-cc26xx.a(mac-sequence.o)
 .ARM.attributes
                0x00001194       0x17 /home/user/CodeSourcery/Sourcery_G++_Lite/bin/../lib/gcc/arm-none-eabi/4.3.2/thumb2/libgcc.a(_aeabi_uldivmod.o)
 .ARM.attributes
                0x000011ab       0x27 /home/user/CodeSourcery/Sourcery_G++_Lite/bin/../lib/gcc/arm-none-eabi/4.3.2/thumb2/libgcc.a(bpabi.o)
 .ARM.attributes
                0x000011d2       0x17 /home/user/CodeSourcery/Sourcery_G++_Lite/bin/../lib/gcc/arm-none-eabi/4.3.2/thumb2/libgcc.a(_dvmd_tls.o)
 .ARM.attributes
                0x000011e9       0x27 /home/user/CodeSourcery/Sourcery_G++_Lite/bin/../lib/gcc/arm-none-eabi/4.3.2/thumb2/libgcc.a(_divdi3.o)
 .ARM.attributes
                0x00001210       0x27 /home/user/CodeSourcery/Sourcery_G++_Lite/bin/../lib/gcc/arm-none-eabi/4.3.2/thumb2/libgcc.a(_udivdi3.o)
 .ARM.attributes
                0x00001237       0x17 /home/user/CodeSourcery/Sourcery_G++_Lite/bin/../lib/gcc/arm-none-eabi/4.3.2/thumb2/libgcc.a(_udivsi3.o)
 .ARM.attributes
                0x0000124e       0x25 /home/user/CodeSourcery/Sourcery_G++_Lite/bin/../lib/gcc/arm-none-eabi/4.3.2/thumb2/libgcc.a(_clz.o)
 .ARM.attributes
                0x00001273       0x25 /home/user/CodeSourcery/Sourcery_G++_Lite/bin/../lib/gcc/arm-none-eabi/4.3.2/../../../../arm-none-eabi/lib/thumb2/libc.a(lib_a-ctype_.o)
 .ARM.attributes
                0x00001298       0x27 /home/user/CodeSourcery/Sourcery_G++_Lite/bin/../lib/gcc/arm-none-eabi/4.3.2/../../../../arm-none-eabi/lib/thumb2/libc.a(lib_a-memchr.o)
 .ARM.attributes
                0x000012bf       0x27 /home/user/CodeSourcery/Sourcery_G++_Lite/bin/../lib/gcc/arm-none-eabi/4.3.2/../../../../arm-none-eabi/lib/thumb2/libc.a(lib_a-memcmp.o)
 .ARM.attributes
                0x000012e6       0x27 /home/user/CodeSourcery/Sourcery_G++_Lite/bin/../lib/gcc/arm-none-eabi/4.3.2/../../../../arm-none-eabi/lib/thumb2/libc.a(lib_a-memcpy.o)
 .ARM.attributes
                0x0000130d       0x27 /home/user/CodeSourcery/Sourcery_G++_Lite/bin/../lib/gcc/arm-none-eabi/4.3.2/../../../../arm-none-eabi/lib/thumb2/libc.a(lib_a-memmove.o)
 .ARM.attributes
                0x00001334       0x27 /home/user/CodeSourcery/Sourcery_G++_Lite/bin/../lib/gcc/arm-none-eabi/4.3.2/../../../../arm-none-eabi/lib/thumb2/libc.a(lib_a-memset.o)
 .ARM.attributes
                0x0000135b       0x27 /home/user/CodeSourcery/Sourcery_G++_Lite/bin/../lib/gcc/arm-none-eabi/4.3.2/../../../../arm-none-eabi/lib/thumb2/libc.a(lib_a-strcasecmp.o)
 .ARM.attributes
                0x00001382       0x27 /home/user/CodeSourcery/Sourcery_G++_Lite/bin/../lib/gcc/arm-none-eabi/4.3.2/../../../../arm-none-eabi/lib/thumb2/libc.a(lib_a-strcmp.o)
 .ARM.attributes
                0x000013a9       0x27 /home/user/CodeSourcery/Sourcery_G++_Lite/bin/../lib/gcc/arm-none-eabi/4.3.2/../../../../arm-none-eabi/lib/thumb2/libc.a(lib_a-strlen.o)
 .ARM.attributes
                0x000013d0       0x27 /home/user/CodeSourcery/Sourcery_G++_Lite/bin/../lib/gcc/arm-none-eabi/4.3.2/../../../../arm-none-eabi/lib/thumb2/libc.a(lib_a-strncasecmp.o)
 .ARM.attributes
                0x000013f7       0x27 /home/user/CodeSourcery/Sourcery_G++_Lite/bin/../lib/gcc/arm-none-eabi/4.3.2/../../../../arm-none-eabi/lib/thumb2/libc.a(lib_a-strncat.o)
 .ARM.attributes
                0x0000141e       0x27 /home/user/CodeSourcery/Sourcery_G++_Lite/bin/../lib/gcc/arm-none-eabi/4.3.2/../../../../arm-none-eabi/lib/thumb2/libc.a(lib_a-strncmp.o)
 .ARM.attributes
                0x00001445       0x27 /home/user/CodeSourcery/Sourcery_G++_Lite/bin/../lib/gcc/arm-none-eabi/4.3.2/../../../../arm-none-eabi/lib/thumb2/libc.a(lib_a-strncpy.o)

.debug_frame    0x00000000      0x2d4
 .debug_frame   0x00000000       0x50 /home/user/CodeSourcery/Sourcery_G++_Lite/bin/../lib/gcc/arm-none-eabi/4.3.2/thumb2/libgcc.a(bpabi.o)
 .debug_frame   0x00000050       0x38 /home/user/CodeSourcery/Sourcery_G++_Lite/bin/../lib/gcc/arm-none-eabi/4.3.2/thumb2/libgcc.a(_divdi3.o)
 .debug_frame   0x00000088       0x38 /home/user/CodeSourcery/Sourcery_G++_Lite/bin/../lib/gcc/arm-none-eabi/4.3.2/thumb2/libgcc.a(_udivdi3.o)
 .debug_frame   0x000000c0       0x20 /home/user/CodeSourcery/Sourcery_G++_Lite/bin/../lib/gcc/arm-none-eabi/4.3.2/thumb2/libgcc.a(_udivsi3.o)
 .debug_frame   0x000000e0       0x28 /home/user/CodeSourcery/Sourcery_G++_Lite/bin/../lib/gcc/arm-none-eabi/4.3.2/../../../../arm-none-eabi/lib/thumb2/libc.a(lib_a-memchr.o)
 .debug_frame   0x00000108       0x2c /home/user/CodeSourcery/Sourcery_G++_Lite/bin/../lib/gcc/arm-none-eabi/4.3.2/../../../../arm-none-eabi/lib/thumb2/libc.a(lib_a-memcmp.o)
 .debug_frame   0x00000134       0x2c /home/user/CodeSourcery/Sourcery_G++_Lite/bin/../lib/gcc/arm-none-eabi/4.3.2/../../../../arm-none-eabi/lib/thumb2/libc.a(lib_a-memcpy.o)
 .debug_frame   0x00000160       0x2c /home/user/CodeSourcery/Sourcery_G++_Lite/bin/../lib/gcc/arm-none-eabi/4.3.2/../../../../arm-none-eabi/lib/thumb2/libc.a(lib_a-memmove.o)
 .debug_frame   0x0000018c       0x28 /home/user/CodeSourcery/Sourcery_G++_Lite/bin/../lib/gcc/arm-none-eabi/4.3.2/../../../../arm-none-eabi/lib/thumb2/libc.a(lib_a-memset.o)
 .debug_frame   0x000001b4       0x30 /home/user/CodeSourcery/Sourcery_G++_Lite/bin/../lib/gcc/arm-none-eabi/4.3.2/../../../../arm-none-eabi/lib/thumb2/libc.a(lib_a-strcasecmp.o)
 .debug_frame   0x000001e4       0x20 /home/user/CodeSourcery/Sourcery_G++_Lite/bin/../lib/gcc/arm-none-eabi/4.3.2/../../../../arm-none-eabi/lib/thumb2/libc.a(lib_a-strcmp.o)
 .debug_frame   0x00000204       0x20 /home/user/CodeSourcery/Sourcery_G++_Lite/bin/../lib/gcc/arm-none-eabi/4.3.2/../../../../arm-none-eabi/lib/thumb2/libc.a(lib_a-strlen.o)
 .debug_frame   0x00000224       0x34 /home/user/CodeSourcery/Sourcery_G++_Lite/bin/../lib/gcc/arm-none-eabi/4.3.2/../../../../arm-none-eabi/lib/thumb2/libc.a(lib_a-strncasecmp.o)
 .debug_frame   0x00000258       0x28 /home/user/CodeSourcery/Sourcery_G++_Lite/bin/../lib/gcc/arm-none-eabi/4.3.2/../../../../arm-none-eabi/lib/thumb2/libc.a(lib_a-strncat.o)
 .debug_frame   0x00000280       0x2c /home/user/CodeSourcery/Sourcery_G++_Lite/bin/../lib/gcc/arm-none-eabi/4.3.2/../../../../arm-none-eabi/lib/thumb2/libc.a(lib_a-strncmp.o)
 .debug_frame   0x000002ac       0x28 /home/user/CodeSourcery/Sourcery_G++_Lite/bin/../lib/gcc/arm-none-eabi/4.3.2/../../../../arm-none-eabi/lib/thumb2/libc.a(lib_a-strncpy.o)

Cross Reference Table

Symbol                                            File
AONIntHandler                                     obj_srf06-cc26xx/startup_gcc.o
AONProgIntHandler                                 obj_srf06-cc26xx/startup_gcc.o
AONRTCIntHandler                                  contiki-srf06-cc26xx.a(soc-rtc.o)
                                                  obj_srf06-cc26xx/startup_gcc.o
AUXADCIntHandler                                  obj_srf06-cc26xx/startup_gcc.o
AUXCombEventIntHandler                            obj_srf06-cc26xx/startup_gcc.o
AUXCompAIntHandler                                obj_srf06-cc26xx/startup_gcc.o
AUXSWEvent0IntHandler                             obj_srf06-cc26xx/startup_gcc.o
AUXSWEvent1IntHandler                             obj_srf06-cc26xx/startup_gcc.o
BusFaultIntHandler                                obj_srf06-cc26xx/startup_gcc.o
CryptoIntHandler                                  obj_srf06-cc26xx/startup_gcc.o
DebugMonIntHandler                                obj_srf06-cc26xx/startup_gcc.o
DynProgIntHandler                                 obj_srf06-cc26xx/startup_gcc.o
FaultISR                                          obj_srf06-cc26xx/fault-handlers.o
FlashIntHandler                                   obj_srf06-cc26xx/startup_gcc.o
GPIOIntHandler                                    contiki-srf06-cc26xx.a(gpio-interrupt.)
                                                  obj_srf06-cc26xx/startup_gcc.o
I2CIntHandler                                     obj_srf06-cc26xx/startup_gcc.o
I2SIntHandler                                     obj_srf06-cc26xx/startup_gcc.o
MPUFaultIntHandler                                obj_srf06-cc26xx/startup_gcc.o
NOROM_AONBatMonTemperatureGetDegC                 contiki-srf06-cc26xx.a(aon_batmon.o)
                                                  contiki-srf06-cc26xx.a(sys_ctrl.o)
                                                  contiki-srf06-cc26xx.a(osc.o)
NOROM_AONRTCCurrent64BitValueGet                  contiki-srf06-cc26xx.a(aon_rtc.o)
NOROM_AONRTCCurrentCompareValueGet                contiki-srf06-cc26xx.a(aon_rtc.o)
                                                  contiki-srf06-cc26xx.a(osc.o)
                                                  contiki-srf06-cc26xx.a(soc-rtc.o)
                                                  contiki-srf06-cc26xx.a(rtimer-arch.o)
NOROM_CPUbasepriGet                               contiki-srf06-cc26xx.a(cpu.o)
NOROM_CPUcpsid                                    contiki-srf06-cc26xx.a(cpu.o)
                                                  contiki-srf06-cc26xx.a(ddi.o)
                                                  contiki-srf06-cc26xx.a(aux-ctrl.o)
                                                  contiki-srf06-cc26xx.a(adi.o)
                                                  contiki-srf06-cc26xx.a(soc-trng.o)
                                                  contiki-srf06-cc26xx.a(rf-ble.o)
                                                  contiki-srf06-cc26xx.a(rf-core.o)
                                                  contiki-srf06-cc26xx.a(gpio-interrupt.)
                                                  contiki-srf06-cc26xx.a(lpm.o)
                                                  contiki-srf06-cc26xx.a(cc26xx-uart.o)
                                                  contiki-srf06-cc26xx.a(contiki-watchdo)
                                                  contiki-srf06-cc26xx.a(soc-rtc.o)
                                                  contiki-srf06-cc26xx.a(clock.o)
                                                  contiki-srf06-cc26xx.a(board.o)
                                                  contiki-srf06-cc26xx.a(contiki-main.o)
NOROM_CPUcpsie                                    contiki-srf06-cc26xx.a(cpu.o)
                                                  contiki-srf06-cc26xx.a(ddi.o)
                                                  contiki-srf06-cc26xx.a(aux-ctrl.o)
                                                  contiki-srf06-cc26xx.a(adi.o)
                                                  contiki-srf06-cc26xx.a(soc-trng.o)
                                                  contiki-srf06-cc26xx.a(rf-ble.o)
                                                  contiki-srf06-cc26xx.a(rf-core.o)
                                                  contiki-srf06-cc26xx.a(gpio-interrupt.)
                                                  contiki-srf06-cc26xx.a(lpm.o)
                                                  contiki-srf06-cc26xx.a(cc26xx-uart.o)
                                                  contiki-srf06-cc26xx.a(contiki-watchdo)
                                                  contiki-srf06-cc26xx.a(soc-rtc.o)
                                                  contiki-srf06-cc26xx.a(clock.o)
                                                  contiki-srf06-cc26xx.a(board.o)
                                                  contiki-srf06-cc26xx.a(contiki-main.o)
NOROM_CPUdelay                                    contiki-srf06-cc26xx.a(cpu.o)
NOROM_CPUprimask                                  contiki-srf06-cc26xx.a(cpu.o)
NOROM_ChipInfo_GetChipFamily                      contiki-srf06-cc26xx.a(chipinfo.o)
                                                  contiki-srf06-cc26xx.a(prop-mode.o)
                                                  contiki-srf06-cc26xx.a(contiki-main.o)
NOROM_ChipInfo_GetChipType                        contiki-srf06-cc26xx.a(chipinfo.o)
                                                  contiki-srf06-cc26xx.a(rf-core.o)
NOROM_ChipInfo_GetHwRevision                      contiki-srf06-cc26xx.a(chipinfo.o)
NOROM_ChipInfo_GetPackageType                     contiki-srf06-cc26xx.a(chipinfo.o)
NOROM_ChipInfo_GetSupportedProtocol_BV            contiki-srf06-cc26xx.a(chipinfo.o)
                                                  contiki-srf06-cc26xx.a(contiki-main.o)
NOROM_DDI16BitRead                                contiki-srf06-cc26xx.a(ddi.o)
NOROM_DDI16BitWrite                               contiki-srf06-cc26xx.a(ddi.o)
NOROM_DDI16BitfieldRead                           contiki-srf06-cc26xx.a(ddi.o)
NOROM_DDI16BitfieldWrite                          contiki-srf06-cc26xx.a(ddi.o)
NOROM_DDI32RegWrite                               contiki-srf06-cc26xx.a(ddi.o)
                                                  contiki-srf06-cc26xx.a(setup_rom.o)
NOROM_OSCClockSourceGet                           contiki-srf06-cc26xx.a(osc.o)
                                                  contiki-srf06-cc26xx.a(sys_ctrl.o)
                                                  contiki-srf06-cc26xx.a(setup_rom.o)
                                                  contiki-srf06-cc26xx.a(oscillators.o)
NOROM_OSCClockSourceSet                           contiki-srf06-cc26xx.a(osc.o)
                                                  contiki-srf06-cc26xx.a(sys_ctrl.o)
                                                  contiki-srf06-cc26xx.a(setup_rom.o)
                                                  contiki-srf06-cc26xx.a(oscillators.o)
NOROM_OSCHF_AttemptToSwitchToXosc                 contiki-srf06-cc26xx.a(osc.o)
NOROM_OSCHF_DebugGetCrystalAmplitude              contiki-srf06-cc26xx.a(osc.o)
NOROM_OSCHF_DebugGetExpectedAverageCrystalAmplitude contiki-srf06-cc26xx.a(osc.o)
NOROM_OSCHF_GetStartupTime                        contiki-srf06-cc26xx.a(osc.o)
NOROM_OSCHF_SwitchToRcOscTurnOffXosc              contiki-srf06-cc26xx.a(osc.o)
NOROM_OSCHF_TurnOnXosc                            contiki-srf06-cc26xx.a(osc.o)
NOROM_OSC_HPOSCRelativeFrequencyOffsetGet         contiki-srf06-cc26xx.a(osc.o)
NOROM_OSC_HPOSCRelativeFrequencyOffsetToRFCoreFormatConvert contiki-srf06-cc26xx.a(osc.o)
NOROM_PowerCtrlSourceSet                          contiki-srf06-cc26xx.a(pwr_ctrl.o)
                                                  contiki-srf06-cc26xx.a(lpm.o)
NOROM_RFCAdi3VcoLdoVoltageMode                    contiki-srf06-cc26xx.a(rfc.o)
                                                  contiki-srf06-cc26xx.a(prop-mode.o)
NOROM_RFCCPEPatchReset                            contiki-srf06-cc26xx.a(rfc.o)
NOROM_RFCCpeIntGetAndClear                        contiki-srf06-cc26xx.a(rfc.o)
NOROM_RFCDoorbellSendTo                           contiki-srf06-cc26xx.a(rfc.o)
NOROM_RFCRTrim                                    contiki-srf06-cc26xx.a(rfc.o)
                                                  contiki-srf06-cc26xx.a(prop-mode.o)
NOROM_RFCRfTrimRead                               contiki-srf06-cc26xx.a(rfc.o)
NOROM_RFCRfTrimSet                                contiki-srf06-cc26xx.a(rfc.o)
NOROM_RFCSynthPowerDown                           contiki-srf06-cc26xx.a(rfc.o)
NOROM_SetupAfterColdResetWakeupFromShutDownCfg1   contiki-srf06-cc26xx.a(setup_rom.o)
                                                  contiki-srf06-cc26xx.a(setup.o)
NOROM_SetupAfterColdResetWakeupFromShutDownCfg2   contiki-srf06-cc26xx.a(setup_rom.o)
                                                  contiki-srf06-cc26xx.a(setup.o)
NOROM_SetupAfterColdResetWakeupFromShutDownCfg3   contiki-srf06-cc26xx.a(setup_rom.o)
                                                  contiki-srf06-cc26xx.a(setup.o)
NOROM_SetupGetTrimForAdcShModeEn                  contiki-srf06-cc26xx.a(setup_rom.o)
NOROM_SetupGetTrimForAdcShVbufEn                  contiki-srf06-cc26xx.a(setup_rom.o)
NOROM_SetupGetTrimForAmpcompCtrl                  contiki-srf06-cc26xx.a(setup_rom.o)
NOROM_SetupGetTrimForAmpcompTh1                   contiki-srf06-cc26xx.a(setup_rom.o)
NOROM_SetupGetTrimForAmpcompTh2                   contiki-srf06-cc26xx.a(setup_rom.o)
NOROM_SetupGetTrimForAnabypassValue1              contiki-srf06-cc26xx.a(setup_rom.o)
NOROM_SetupGetTrimForDblrLoopFilterResetVoltage   contiki-srf06-cc26xx.a(setup_rom.o)
NOROM_SetupGetTrimForRadcExtCfg                   contiki-srf06-cc26xx.a(setup_rom.o)
NOROM_SetupGetTrimForRcOscLfIBiasTrim             contiki-srf06-cc26xx.a(setup_rom.o)
NOROM_SetupGetTrimForRcOscLfRtuneCtuneTrim        contiki-srf06-cc26xx.a(setup_rom.o)
NOROM_SetupGetTrimForXoscHfCtl                    contiki-srf06-cc26xx.a(setup_rom.o)
NOROM_SetupGetTrimForXoscHfFastStart              contiki-srf06-cc26xx.a(setup_rom.o)
NOROM_SetupGetTrimForXoscHfIbiastherm             contiki-srf06-cc26xx.a(setup_rom.o)
NOROM_SetupGetTrimForXoscLfRegulatorAndCmirrwrRatio contiki-srf06-cc26xx.a(setup_rom.o)
NOROM_SetupSetAonRtcSubSecInc                     contiki-srf06-cc26xx.a(setup_rom.o)
NOROM_SetupSetCacheModeAccordingToCcfgSetting     contiki-srf06-cc26xx.a(setup_rom.o)
                                                  contiki-srf06-cc26xx.a(setup.o)
NOROM_SetupSetVddrLevel                           contiki-srf06-cc26xx.a(setup_rom.o)
NOROM_SetupTrimDevice                             contiki-srf06-cc26xx.a(setup.o)
                                                  obj_srf06-cc26xx/startup_gcc.o
NOROM_SysCtrlAdjustRechargeAfterPowerDown         contiki-srf06-cc26xx.a(sys_ctrl.o)
                                                  contiki-srf06-cc26xx.a(lpm.o)
NOROM_SysCtrlPowerEverything                      contiki-srf06-cc26xx.a(sys_ctrl.o)
NOROM_SysCtrlResetSourceGet                       contiki-srf06-cc26xx.a(sys_ctrl.o)
NOROM_SysCtrlSetRechargeBeforePowerDown           contiki-srf06-cc26xx.a(sys_ctrl.o)
                                                  contiki-srf06-cc26xx.a(lpm.o)
NOROM_SysCtrl_DCDC_VoltageConditionalControl      contiki-srf06-cc26xx.a(sys_ctrl.o)
                                                  contiki-srf06-cc26xx.a(lpm.o)
NOROM_TRNGConfigure                               contiki-srf06-cc26xx.a(trng.o)
                                                  contiki-srf06-cc26xx.a(soc-trng.o)
NOROM_TRNGNumberGet                               contiki-srf06-cc26xx.a(trng.o)
NOROM_ThisCodeIsBuiltForCC13xxHwRev20AndLater_HaltIfViolated contiki-srf06-cc26xx.a(chipinfo.o)
                                                  contiki-srf06-cc26xx.a(setup.o)
NmiSR                                             obj_srf06-cc26xx/startup_gcc.o
PendSVIntHandler                                  obj_srf06-cc26xx/startup_gcc.o
RFCCPE0IntHandler                                 contiki-srf06-cc26xx.a(rf-core.o)
                                                  obj_srf06-cc26xx/startup_gcc.o
RFCCPE1IntHandler                                 contiki-srf06-cc26xx.a(rf-core.o)
                                                  obj_srf06-cc26xx/startup_gcc.o
RFCCmdAckIntHandler                               obj_srf06-cc26xx/startup_gcc.o
RFCHardwareIntHandler                             obj_srf06-cc26xx/startup_gcc.o
ResetISR                                          obj_srf06-cc26xx/startup_gcc.o
SSI0IntHandler                                    obj_srf06-cc26xx/startup_gcc.o
SSI1IntHandler                                    obj_srf06-cc26xx/startup_gcc.o
SVCallIntHandler                                  obj_srf06-cc26xx/startup_gcc.o
SWEvent0IntHandler                                obj_srf06-cc26xx/startup_gcc.o
SafeHapiAuxAdiSelect                              contiki-srf06-cc26xx.a(adi.o)
SafeHapiVoid                                      contiki-srf06-cc26xx.a(adi.o)
                                                  contiki-srf06-cc26xx.a(sys_ctrl.o)
                                                  contiki-srf06-cc26xx.a(osc.o)
                                                  contiki-srf06-cc26xx.a(oscillators.o)
SysTickIntHandler                                 obj_srf06-cc26xx/startup_gcc.o
TRNGIntHandler                                    contiki-srf06-cc26xx.a(soc-trng.o)
                                                  obj_srf06-cc26xx/startup_gcc.o
Timer0AIntHandler                                 obj_srf06-cc26xx/startup_gcc.o
Timer0BIntHandler                                 obj_srf06-cc26xx/startup_gcc.o
Timer1AIntHandler                                 obj_srf06-cc26xx/startup_gcc.o
Timer1BIntHandler                                 obj_srf06-cc26xx/startup_gcc.o
Timer2AIntHandler                                 obj_srf06-cc26xx/startup_gcc.o
Timer2BIntHandler                                 obj_srf06-cc26xx/startup_gcc.o
Timer3AIntHandler                                 obj_srf06-cc26xx/startup_gcc.o
Timer3BIntHandler                                 obj_srf06-cc26xx/startup_gcc.o
UART0IntHandler                                   contiki-srf06-cc26xx.a(cc26xx-uart.o)
                                                  obj_srf06-cc26xx/startup_gcc.o
UsageFaultIntHandler                              obj_srf06-cc26xx/startup_gcc.o
WatchdogIntHandler                                obj_srf06-cc26xx/startup_gcc.o
__aeabi_idiv0                                     /home/user/CodeSourcery/Sourcery_G++_Lite/bin/../lib/gcc/arm-none-eabi/4.3.2/thumb2/libgcc.a(_dvmd_tls.o)
                                                  /home/user/CodeSourcery/Sourcery_G++_Lite/bin/../lib/gcc/arm-none-eabi/4.3.2/thumb2/libgcc.a(_udivsi3.o)
__aeabi_ldiv0                                     /home/user/CodeSourcery/Sourcery_G++_Lite/bin/../lib/gcc/arm-none-eabi/4.3.2/thumb2/libgcc.a(_dvmd_tls.o)
                                                  /home/user/CodeSourcery/Sourcery_G++_Lite/bin/../lib/gcc/arm-none-eabi/4.3.2/thumb2/libgcc.a(_aeabi_uldivmod.o)
__aeabi_uidiv                                     /home/user/CodeSourcery/Sourcery_G++_Lite/bin/../lib/gcc/arm-none-eabi/4.3.2/thumb2/libgcc.a(_udivsi3.o)
                                                  /home/user/CodeSourcery/Sourcery_G++_Lite/bin/../lib/gcc/arm-none-eabi/4.3.2/thumb2/libgcc.a(_udivdi3.o)
                                                  /home/user/CodeSourcery/Sourcery_G++_Lite/bin/../lib/gcc/arm-none-eabi/4.3.2/thumb2/libgcc.a(_divdi3.o)
__aeabi_uidivmod                                  /home/user/CodeSourcery/Sourcery_G++_Lite/bin/../lib/gcc/arm-none-eabi/4.3.2/thumb2/libgcc.a(_udivsi3.o)
                                                  /home/user/CodeSourcery/Sourcery_G++_Lite/bin/../lib/gcc/arm-none-eabi/4.3.2/thumb2/libgcc.a(_udivdi3.o)
                                                  /home/user/CodeSourcery/Sourcery_G++_Lite/bin/../lib/gcc/arm-none-eabi/4.3.2/thumb2/libgcc.a(_divdi3.o)
__aeabi_uldivmod                                  /home/user/CodeSourcery/Sourcery_G++_Lite/bin/../lib/gcc/arm-none-eabi/4.3.2/thumb2/libgcc.a(_aeabi_uldivmod.o)
                                                  contiki-srf06-cc26xx.a(strformat.o)
__ccfg                                            obj_srf06-cc26xx/ccfg.o
__clz_tab                                         /home/user/CodeSourcery/Sourcery_G++_Lite/bin/../lib/gcc/arm-none-eabi/4.3.2/thumb2/libgcc.a(_clz.o)
                                                  /home/user/CodeSourcery/Sourcery_G++_Lite/bin/../lib/gcc/arm-none-eabi/4.3.2/thumb2/libgcc.a(_udivdi3.o)
                                                  /home/user/CodeSourcery/Sourcery_G++_Lite/bin/../lib/gcc/arm-none-eabi/4.3.2/thumb2/libgcc.a(_divdi3.o)
__ctype_ptr                                       /home/user/CodeSourcery/Sourcery_G++_Lite/bin/../lib/gcc/arm-none-eabi/4.3.2/../../../../arm-none-eabi/lib/thumb2/libc.a(lib_a-ctype_.o)
__ctype_ptr__                                     /home/user/CodeSourcery/Sourcery_G++_Lite/bin/../lib/gcc/arm-none-eabi/4.3.2/../../../../arm-none-eabi/lib/thumb2/libc.a(lib_a-ctype_.o)
                                                  /home/user/CodeSourcery/Sourcery_G++_Lite/bin/../lib/gcc/arm-none-eabi/4.3.2/../../../../arm-none-eabi/lib/thumb2/libc.a(lib_a-strncasecmp.o)
                                                  /home/user/CodeSourcery/Sourcery_G++_Lite/bin/../lib/gcc/arm-none-eabi/4.3.2/../../../../arm-none-eabi/lib/thumb2/libc.a(lib_a-strcasecmp.o)
                                                  contiki-srf06-cc26xx.a(resolv.o)
                                                  contiki-srf06-cc26xx.a(http-socket.o)
__divdi3                                          /home/user/CodeSourcery/Sourcery_G++_Lite/bin/../lib/gcc/arm-none-eabi/4.3.2/thumb2/libgcc.a(_divdi3.o)
                                                  /home/user/CodeSourcery/Sourcery_G++_Lite/bin/../lib/gcc/arm-none-eabi/4.3.2/thumb2/libgcc.a(bpabi.o)
__gnu_ldivmod_helper                              /home/user/CodeSourcery/Sourcery_G++_Lite/bin/../lib/gcc/arm-none-eabi/4.3.2/thumb2/libgcc.a(bpabi.o)
__gnu_uldivmod_helper                             /home/user/CodeSourcery/Sourcery_G++_Lite/bin/../lib/gcc/arm-none-eabi/4.3.2/thumb2/libgcc.a(bpabi.o)
                                                  /home/user/CodeSourcery/Sourcery_G++_Lite/bin/../lib/gcc/arm-none-eabi/4.3.2/thumb2/libgcc.a(_aeabi_uldivmod.o)
__udivdi3                                         /home/user/CodeSourcery/Sourcery_G++_Lite/bin/../lib/gcc/arm-none-eabi/4.3.2/thumb2/libgcc.a(_udivdi3.o)
                                                  /home/user/CodeSourcery/Sourcery_G++_Lite/bin/../lib/gcc/arm-none-eabi/4.3.2/thumb2/libgcc.a(bpabi.o)
__udivsi3                                         /home/user/CodeSourcery/Sourcery_G++_Lite/bin/../lib/gcc/arm-none-eabi/4.3.2/thumb2/libgcc.a(_udivsi3.o)
_bss                                              obj_srf06-cc26xx/startup_gcc.o
_ctype_                                           /home/user/CodeSourcery/Sourcery_G++_Lite/bin/../lib/gcc/arm-none-eabi/4.3.2/../../../../arm-none-eabi/lib/thumb2/libc.a(lib_a-ctype_.o)
_data                                             obj_srf06-cc26xx/startup_gcc.o
_ebss                                             obj_srf06-cc26xx/startup_gcc.o
_edata                                            obj_srf06-cc26xx/startup_gcc.o
_estack                                           obj_srf06-cc26xx/startup_gcc.o
_etext                                            obj_srf06-cc26xx/startup_gcc.o
autostart_exit                                    contiki-srf06-cc26xx.a(autostart.o)
autostart_processes                               slip-radio.co
                                                  contiki-srf06-cc26xx.a(contiki-main.o)
autostart_start                                   contiki-srf06-cc26xx.a(autostart.o)
                                                  contiki-srf06-cc26xx.a(contiki-main.o)
aux_ctrl_power_down                               contiki-srf06-cc26xx.a(aux-ctrl.o)
                                                  contiki-srf06-cc26xx.a(lpm.o)
aux_ctrl_power_up                                 contiki-srf06-cc26xx.a(aux-ctrl.o)
                                                  contiki-srf06-cc26xx.a(lpm.o)
aux_ctrl_register_consumer                        contiki-srf06-cc26xx.a(aux-ctrl.o)
                                                  contiki-srf06-cc26xx.a(oscillators.o)
                                                  contiki-srf06-cc26xx.a(lpm.o)
aux_ctrl_unregister_consumer                      contiki-srf06-cc26xx.a(aux-ctrl.o)
                                                  contiki-srf06-cc26xx.a(oscillators.o)
board_init                                        contiki-srf06-cc26xx.a(board.o)
                                                  contiki-srf06-cc26xx.a(contiki-main.o)
board_spi_close                                   contiki-srf06-cc26xx.a(board-spi.o)
                                                  contiki-srf06-cc26xx.a(ext-flash.o)
board_spi_flush                                   contiki-srf06-cc26xx.a(board-spi.o)
                                                  contiki-srf06-cc26xx.a(ext-flash.o)
board_spi_open                                    contiki-srf06-cc26xx.a(board-spi.o)
                                                  contiki-srf06-cc26xx.a(ext-flash.o)
board_spi_read                                    contiki-srf06-cc26xx.a(board-spi.o)
                                                  contiki-srf06-cc26xx.a(ext-flash.o)
board_spi_write                                   contiki-srf06-cc26xx.a(board-spi.o)
                                                  contiki-srf06-cc26xx.a(ext-flash.o)
button_left_sensor                                contiki-srf06-cc26xx.a(button-sensor.o)
                                                  contiki-srf06-cc26xx.a(launchpad-senso)
button_right_sensor                               contiki-srf06-cc26xx.a(button-sensor.o)
                                                  contiki-srf06-cc26xx.a(launchpad-senso)
cc26xx_uart_busy                                  contiki-srf06-cc26xx.a(cc26xx-uart.o)
                                                  contiki-srf06-cc26xx.a(putchar.o)
cc26xx_uart_init                                  contiki-srf06-cc26xx.a(cc26xx-uart.o)
                                                  contiki-srf06-cc26xx.a(contiki-main.o)
cc26xx_uart_set_input                             contiki-srf06-cc26xx.a(cc26xx-uart.o)
                                                  contiki-srf06-cc26xx.a(slip-arch.o)
cc26xx_uart_write_byte                            contiki-srf06-cc26xx.a(cc26xx-uart.o)
                                                  contiki-srf06-cc26xx.a(slip-arch.o)
                                                  contiki-srf06-cc26xx.a(putchar.o)
clock_delay                                       contiki-srf06-cc26xx.a(clock.o)
                                                  contiki-srf06-cc26xx.a(leds.o)
clock_delay_usec                                  contiki-srf06-cc26xx.a(clock.o)
clock_init                                        contiki-srf06-cc26xx.a(clock.o)
                                                  contiki-srf06-cc26xx.a(contiki-main.o)
clock_seconds                                     contiki-srf06-cc26xx.a(clock.o)
                                                  contiki-srf06-cc26xx.a(stimer.o)
                                                  contiki-srf06-cc26xx.a(resolv.o)
clock_time                                        contiki-srf06-cc26xx.a(clock.o)
                                                  contiki-srf06-cc26xx.a(mac-sequence.o)
                                                  contiki-srf06-cc26xx.a(link-stats.o)
                                                  contiki-srf06-cc26xx.a(timer.o)
                                                  contiki-srf06-cc26xx.a(etimer.o)
                                                  contiki-srf06-cc26xx.a(lpm.o)
                                                  contiki-srf06-cc26xx.a(button-sensor.o)
clock_update                                      contiki-srf06-cc26xx.a(clock.o)
                                                  contiki-srf06-cc26xx.a(lpm.o)
                                                  contiki-srf06-cc26xx.a(soc-rtc.o)
clock_wait                                        contiki-srf06-cc26xx.a(clock.o)
cmd_handlers                                      slip-radio.co
                                                  contiki-srf06-cc26xx.a(cmd.o)
cmd_input                                         contiki-srf06-cc26xx.a(cmd.o)
                                                  slip-radio.co
cmd_send                                          contiki-srf06-cc26xx.a(cmd.o)
                                                  slip-radio.co
contikimac_debug_print                            contiki-srf06-cc26xx.a(contikimac.o)
contikimac_driver                                 contiki-srf06-cc26xx.a(contikimac.o)
                                                  contiki-srf06-cc26xx.a(nullmac.o)
                                                  contiki-srf06-cc26xx.a(netstack.o)
                                                  contiki-srf06-cc26xx.a(rf-core.o)
                                                  contiki-srf06-cc26xx.a(contiki-main.o)
                                                  slip-radio.co
ctimer_expired                                    contiki-srf06-cc26xx.a(ctimer.o)
ctimer_init                                       contiki-srf06-cc26xx.a(ctimer.o)
                                                  contiki-srf06-cc26xx.a(contiki-main.o)
ctimer_process                                    contiki-srf06-cc26xx.a(ctimer.o)
ctimer_reset                                      contiki-srf06-cc26xx.a(ctimer.o)
                                                  contiki-srf06-cc26xx.a(link-stats.o)
ctimer_restart                                    contiki-srf06-cc26xx.a(ctimer.o)
ctimer_set                                        contiki-srf06-cc26xx.a(ctimer.o)
                                                  contiki-srf06-cc26xx.a(contikimac.o)
                                                  contiki-srf06-cc26xx.a(link-stats.o)
ctimer_set_with_process                           contiki-srf06-cc26xx.a(ctimer.o)
ctimer_stop                                       contiki-srf06-cc26xx.a(ctimer.o)
                                                  contiki-srf06-cc26xx.a(contikimac.o)
dbg_send_bytes                                    contiki-srf06-cc26xx.a(putchar.o)
                                                  contiki-srf06-cc26xx.a(dbg-printf.o)
ds6_neighbors                                     contiki-srf06-cc26xx.a(uip-ds6-nbr.o)
energest_flush                                    contiki-srf06-cc26xx.a(energest.o)
energest_init                                     contiki-srf06-cc26xx.a(energest.o)
                                                  contiki-srf06-cc26xx.a(contiki-main.o)
energest_type_set                                 contiki-srf06-cc26xx.a(energest.o)
energest_type_time                                contiki-srf06-cc26xx.a(energest.o)
etimer_adjust                                     contiki-srf06-cc26xx.a(etimer.o)
etimer_expiration_time                            contiki-srf06-cc26xx.a(etimer.o)
etimer_expired                                    contiki-srf06-cc26xx.a(etimer.o)
                                                  contiki-srf06-cc26xx.a(tcpip.o)
                                                  contiki-srf06-cc26xx.a(ctimer.o)
                                                  contiki-srf06-cc26xx.a(rf-ble.o)
                                                  slip-radio.co
etimer_next_expiration_time                       contiki-srf06-cc26xx.a(etimer.o)
                                                  contiki-srf06-cc26xx.a(lpm.o)
etimer_pending                                    contiki-srf06-cc26xx.a(etimer.o)
                                                  contiki-srf06-cc26xx.a(lpm.o)
                                                  contiki-srf06-cc26xx.a(clock.o)
etimer_process                                    contiki-srf06-cc26xx.a(etimer.o)
                                                  contiki-srf06-cc26xx.a(contiki-main.o)
etimer_request_poll                               contiki-srf06-cc26xx.a(etimer.o)
                                                  contiki-srf06-cc26xx.a(clock.o)
etimer_reset                                      contiki-srf06-cc26xx.a(etimer.o)
                                                  contiki-srf06-cc26xx.a(uip-ds6.o)
                                                  contiki-srf06-cc26xx.a(ctimer.o)
                                                  slip-radio.co
etimer_reset_with_new_interval                    contiki-srf06-cc26xx.a(etimer.o)
etimer_restart                                    contiki-srf06-cc26xx.a(etimer.o)
                                                  contiki-srf06-cc26xx.a(tcpip.o)
                                                  contiki-srf06-cc26xx.a(ctimer.o)
etimer_set                                        contiki-srf06-cc26xx.a(etimer.o)
                                                  contiki-srf06-cc26xx.a(tcpip.o)
                                                  contiki-srf06-cc26xx.a(resolv.o)
                                                  contiki-srf06-cc26xx.a(uip-ds6.o)
                                                  contiki-srf06-cc26xx.a(ctimer.o)
                                                  contiki-srf06-cc26xx.a(http-socket.o)
                                                  contiki-srf06-cc26xx.a(rf-ble.o)
                                                  slip-radio.co
etimer_start_time                                 contiki-srf06-cc26xx.a(etimer.o)
etimer_stop                                       contiki-srf06-cc26xx.a(etimer.o)
                                                  contiki-srf06-cc26xx.a(uip-ds6.o)
                                                  contiki-srf06-cc26xx.a(ctimer.o)
                                                  contiki-srf06-cc26xx.a(http-socket.o)
ext_flash_close                                   contiki-srf06-cc26xx.a(ext-flash.o)
ext_flash_erase                                   contiki-srf06-cc26xx.a(ext-flash.o)
ext_flash_init                                    contiki-srf06-cc26xx.a(ext-flash.o)
                                                  contiki-srf06-cc26xx.a(board.o)
ext_flash_open                                    contiki-srf06-cc26xx.a(ext-flash.o)
ext_flash_read                                    contiki-srf06-cc26xx.a(ext-flash.o)
ext_flash_test                                    contiki-srf06-cc26xx.a(ext-flash.o)
ext_flash_write                                   contiki-srf06-cc26xx.a(ext-flash.o)
format_str                                        contiki-srf06-cc26xx.a(strformat.o)
format_str_v                                      contiki-srf06-cc26xx.a(strformat.o)
                                                  contiki-srf06-cc26xx.a(dbg-sprintf.o)
                                                  contiki-srf06-cc26xx.a(dbg-printf.o)
frame802154_check_dest_panid                      contiki-srf06-cc26xx.a(frame802154.o)
frame802154_create                                contiki-srf06-cc26xx.a(frame802154.o)
frame802154_create_fcf                            contiki-srf06-cc26xx.a(frame802154.o)
frame802154_extract_linkaddr                      contiki-srf06-cc26xx.a(frame802154.o)
frame802154_get_pan_id                            contiki-srf06-cc26xx.a(frame802154.o)
frame802154_has_panid                             contiki-srf06-cc26xx.a(frame802154.o)
frame802154_hdrlen                                contiki-srf06-cc26xx.a(frame802154.o)
frame802154_is_broadcast_addr                     contiki-srf06-cc26xx.a(frame802154.o)
frame802154_parse                                 contiki-srf06-cc26xx.a(frame802154.o)
                                                  contiki-srf06-cc26xx.a(contikimac.o)
                                                  obj_srf06-cc26xx/no-framer.o
frame802154_parse_fcf                             contiki-srf06-cc26xx.a(frame802154.o)
frame802154_set_pan_id                            contiki-srf06-cc26xx.a(frame802154.o)
g_pfnVectors                                      obj_srf06-cc26xx/startup_gcc.o
get_match_length                                  contiki-srf06-cc26xx.a(uip-ds6.o)
gpio_interrupt_init                               contiki-srf06-cc26xx.a(gpio-interrupt.)
                                                  contiki-srf06-cc26xx.a(contiki-main.o)
gpio_interrupt_register_handler                   contiki-srf06-cc26xx.a(gpio-interrupt.)
                                                  contiki-srf06-cc26xx.a(button-sensor.o)
guess_etx_from_rssi                               contiki-srf06-cc26xx.a(link-stats.o)
http_example_process                              slip-radio.co
http_socket_close                                 contiki-srf06-cc26xx.a(http-socket.o)
http_socket_get                                   contiki-srf06-cc26xx.a(http-socket.o)
                                                  slip-radio.co
http_socket_init                                  contiki-srf06-cc26xx.a(http-socket.o)
                                                  slip-radio.co
http_socket_post                                  contiki-srf06-cc26xx.a(http-socket.o)
http_socket_process                               contiki-srf06-cc26xx.a(http-socket.o)
http_socket_set_proxy                             contiki-srf06-cc26xx.a(http-socket.o)
icmp6_new                                         contiki-srf06-cc26xx.a(tcpip.o)
ieee_addr_cpy_to                                  contiki-srf06-cc26xx.a(ieee-addr.o)
                                                  contiki-srf06-cc26xx.a(contiki-main.o)
ip64_addr_4to6                                    contiki-srf06-cc26xx.a(ip64-addr.o)
                                                  contiki-srf06-cc26xx.a(http-socket.o)
                                                  slip-radio.co
ip64_addr_6to4                                    contiki-srf06-cc26xx.a(ip64-addr.o)
ip64_addr_copy4                                   contiki-srf06-cc26xx.a(ip64-addr.o)
ip64_addr_copy6                                   contiki-srf06-cc26xx.a(ip64-addr.o)
ip64_addr_is_ip64                                 contiki-srf06-cc26xx.a(ip64-addr.o)
ip64_addr_set_prefix                              contiki-srf06-cc26xx.a(ip64-addr.o)
leds_arch_get                                     contiki-srf06-cc26xx.a(leds-arch.o)
                                                  contiki-srf06-cc26xx.a(leds.o)
leds_arch_init                                    contiki-srf06-cc26xx.a(leds-arch.o)
                                                  contiki-srf06-cc26xx.a(leds.o)
leds_arch_set                                     contiki-srf06-cc26xx.a(leds-arch.o)
                                                  contiki-srf06-cc26xx.a(leds.o)
leds_blink                                        contiki-srf06-cc26xx.a(leds.o)
leds_get                                          contiki-srf06-cc26xx.a(leds.o)
leds_init                                         contiki-srf06-cc26xx.a(leds.o)
                                                  contiki-srf06-cc26xx.a(contiki-main.o)
leds_off                                          contiki-srf06-cc26xx.a(leds.o)
                                                  contiki-srf06-cc26xx.a(contiki-main.o)
leds_on                                           contiki-srf06-cc26xx.a(leds.o)
                                                  contiki-srf06-cc26xx.a(contiki-main.o)
leds_set                                          contiki-srf06-cc26xx.a(leds.o)
leds_toggle                                       contiki-srf06-cc26xx.a(leds.o)
link_stats_from_lladdr                            contiki-srf06-cc26xx.a(link-stats.o)
link_stats_init                                   contiki-srf06-cc26xx.a(link-stats.o)
                                                  contiki-srf06-cc26xx.a(uip-ds6-nbr.o)
link_stats_input_callback                         contiki-srf06-cc26xx.a(link-stats.o)
link_stats_is_fresh                               contiki-srf06-cc26xx.a(link-stats.o)
link_stats_packet_sent                            contiki-srf06-cc26xx.a(link-stats.o)
                                                  contiki-srf06-cc26xx.a(uip-ds6-nbr.o)
linkaddr_cmp                                      contiki-srf06-cc26xx.a(linkaddr.o)
                                                  contiki-srf06-cc26xx.a(mac-sequence.o)
                                                  contiki-srf06-cc26xx.a(contikimac.o)
                                                  contiki-srf06-cc26xx.a(packetbuf.o)
                                                  contiki-srf06-cc26xx.a(nbr-table.o)
                                                  contiki-srf06-cc26xx.a(uip-ds6-nbr.o)
linkaddr_copy                                     contiki-srf06-cc26xx.a(linkaddr.o)
                                                  contiki-srf06-cc26xx.a(mac-sequence.o)
                                                  contiki-srf06-cc26xx.a(frame802154.o)
                                                  contiki-srf06-cc26xx.a(packetbuf.o)
                                                  contiki-srf06-cc26xx.a(nbr-table.o)
linkaddr_node_addr                                contiki-srf06-cc26xx.a(contikimac.o)
                                                  contiki-srf06-cc26xx.a(linkaddr.o)
                                                  contiki-srf06-cc26xx.a(rf-ble.o)
                                                  contiki-srf06-cc26xx.a(contiki-main.o)
linkaddr_null                                     contiki-srf06-cc26xx.a(linkaddr.o)
                                                  contiki-srf06-cc26xx.a(frame802154.o)
                                                  contiki-srf06-cc26xx.a(packetbuf.o)
                                                  contiki-srf06-cc26xx.a(nbr-table.o)
                                                  contiki-srf06-cc26xx.a(uip-ds6-nbr.o)
linkaddr_set_node_addr                            contiki-srf06-cc26xx.a(linkaddr.o)
list_add                                          contiki-srf06-cc26xx.a(list.o)
                                                  contiki-srf06-cc26xx.a(aux-ctrl.o)
                                                  contiki-srf06-cc26xx.a(nbr-table.o)
                                                  contiki-srf06-cc26xx.a(tcp-socket.o)
                                                  contiki-srf06-cc26xx.a(uip-icmp6.o)
                                                  contiki-srf06-cc26xx.a(uip-ds6-route.o)
                                                  contiki-srf06-cc26xx.a(ctimer.o)
                                                  contiki-srf06-cc26xx.a(http-socket.o)
                                                  contiki-srf06-cc26xx.a(lpm.o)
list_chop                                         contiki-srf06-cc26xx.a(list.o)
list_copy                                         contiki-srf06-cc26xx.a(list.o)
list_head                                         contiki-srf06-cc26xx.a(list.o)
                                                  contiki-srf06-cc26xx.a(aux-ctrl.o)
                                                  contiki-srf06-cc26xx.a(nbr-table.o)
                                                  contiki-srf06-cc26xx.a(tcp-socket.o)
                                                  contiki-srf06-cc26xx.a(uip-icmp6.o)
                                                  contiki-srf06-cc26xx.a(uip-ds6-route.o)
                                                  contiki-srf06-cc26xx.a(ctimer.o)
                                                  contiki-srf06-cc26xx.a(http-socket.o)
                                                  contiki-srf06-cc26xx.a(lpm.o)
list_init                                         contiki-srf06-cc26xx.a(list.o)
                                                  contiki-srf06-cc26xx.a(tcp-socket.o)
                                                  contiki-srf06-cc26xx.a(uip-ds6-route.o)
                                                  contiki-srf06-cc26xx.a(ctimer.o)
                                                  contiki-srf06-cc26xx.a(http-socket.o)
                                                  contiki-srf06-cc26xx.a(lpm.o)
list_insert                                       contiki-srf06-cc26xx.a(list.o)
list_item_next                                    contiki-srf06-cc26xx.a(list.o)
                                                  contiki-srf06-cc26xx.a(contikimac.o)
                                                  contiki-srf06-cc26xx.a(nbr-table.o)
                                                  contiki-srf06-cc26xx.a(tcp-socket.o)
                                                  contiki-srf06-cc26xx.a(uip-icmp6.o)
                                                  contiki-srf06-cc26xx.a(uip-ds6-route.o)
                                                  contiki-srf06-cc26xx.a(http-socket.o)
list_length                                       contiki-srf06-cc26xx.a(list.o)
                                                  contiki-srf06-cc26xx.a(uip-ds6-route.o)
list_pop                                          contiki-srf06-cc26xx.a(list.o)
list_push                                         contiki-srf06-cc26xx.a(list.o)
                                                  contiki-srf06-cc26xx.a(uip-ds6-route.o)
list_remove                                       contiki-srf06-cc26xx.a(list.o)
                                                  contiki-srf06-cc26xx.a(aux-ctrl.o)
                                                  contiki-srf06-cc26xx.a(nbr-table.o)
                                                  contiki-srf06-cc26xx.a(tcp-socket.o)
                                                  contiki-srf06-cc26xx.a(uip-icmp6.o)
                                                  contiki-srf06-cc26xx.a(uip-ds6-route.o)
                                                  contiki-srf06-cc26xx.a(ctimer.o)
                                                  contiki-srf06-cc26xx.a(http-socket.o)
                                                  contiki-srf06-cc26xx.a(lpm.o)
list_tail                                         contiki-srf06-cc26xx.a(list.o)
lpm_drop                                          contiki-srf06-cc26xx.a(lpm.o)
                                                  contiki-srf06-cc26xx.a(contiki-main.o)
lpm_init                                          contiki-srf06-cc26xx.a(lpm.o)
                                                  contiki-srf06-cc26xx.a(contiki-main.o)
lpm_pin_set_default_state                         contiki-srf06-cc26xx.a(lpm.o)
                                                  contiki-srf06-cc26xx.a(cc26xx-uart.o)
lpm_register_module                               contiki-srf06-cc26xx.a(lpm.o)
                                                  contiki-srf06-cc26xx.a(soc-trng.o)
                                                  contiki-srf06-cc26xx.a(cc26xx-uart.o)
                                                  contiki-srf06-cc26xx.a(prop-mode.o)
                                                  contiki-srf06-cc26xx.a(board.o)
lpm_shutdown                                      contiki-srf06-cc26xx.a(lpm.o)
                                                  contiki-srf06-cc26xx.a(button-sensor.o)
lpm_sleep                                         contiki-srf06-cc26xx.a(lpm.o)
                                                  contiki-srf06-cc26xx.a(prop-mode.o)
lpm_unregister_module                             contiki-srf06-cc26xx.a(lpm.o)
                                                  contiki-srf06-cc26xx.a(soc-trng.o)
mac_call_sent_callback                            contiki-srf06-cc26xx.a(mac.o)
                                                  contiki-srf06-cc26xx.a(contikimac.o)
mac_sequence_is_duplicate                         contiki-srf06-cc26xx.a(mac-sequence.o)
                                                  contiki-srf06-cc26xx.a(contikimac.o)
mac_sequence_register_seqno                       contiki-srf06-cc26xx.a(mac-sequence.o)
                                                  contiki-srf06-cc26xx.a(contikimac.o)
main                                              contiki-srf06-cc26xx.a(contiki-main.o)
                                                  obj_srf06-cc26xx/startup_gcc.o
mdns_probe_process                                contiki-srf06-cc26xx.a(resolv.o)
memb_alloc                                        contiki-srf06-cc26xx.a(memb.o)
                                                  contiki-srf06-cc26xx.a(queuebuf.o)
                                                  contiki-srf06-cc26xx.a(nbr-table.o)
                                                  contiki-srf06-cc26xx.a(uip-ds6-route.o)
memb_free                                         contiki-srf06-cc26xx.a(memb.o)
                                                  contiki-srf06-cc26xx.a(queuebuf.o)
                                                  contiki-srf06-cc26xx.a(uip-ds6-route.o)
memb_init                                         contiki-srf06-cc26xx.a(memb.o)
                                                  contiki-srf06-cc26xx.a(queuebuf.o)
                                                  contiki-srf06-cc26xx.a(uip-ds6-route.o)
memb_inmemb                                       contiki-srf06-cc26xx.a(memb.o)
                                                  contiki-srf06-cc26xx.a(queuebuf.o)
memb_numfree                                      contiki-srf06-cc26xx.a(memb.o)
                                                  contiki-srf06-cc26xx.a(queuebuf.o)
memchr                                            /home/user/CodeSourcery/Sourcery_G++_Lite/bin/../lib/gcc/arm-none-eabi/4.3.2/../../../../arm-none-eabi/lib/thumb2/libc.a(lib_a-memchr.o)
                                                  contiki-srf06-cc26xx.a(http-socket.o)
memcmp                                            /home/user/CodeSourcery/Sourcery_G++_Lite/bin/../lib/gcc/arm-none-eabi/4.3.2/../../../../arm-none-eabi/lib/thumb2/libc.a(lib_a-memcmp.o)
                                                  contiki-srf06-cc26xx.a(linkaddr.o)
                                                  contiki-srf06-cc26xx.a(ip64-addr.o)
                                                  contiki-srf06-cc26xx.a(uip-nd6.o)
                                                  contiki-srf06-cc26xx.a(uip-ds6-route.o)
                                                  contiki-srf06-cc26xx.a(uip-ds6-nbr.o)
                                                  contiki-srf06-cc26xx.a(uip-ds6.o)
                                                  contiki-srf06-cc26xx.a(uip6.o)
memcpy                                            /home/user/CodeSourcery/Sourcery_G++_Lite/bin/../lib/gcc/arm-none-eabi/4.3.2/../../../../arm-none-eabi/lib/thumb2/libc.a(lib_a-memcpy.o)
                                                  contiki-srf06-cc26xx.a(mac-sequence.o)
                                                  contiki-srf06-cc26xx.a(dbg-sprintf.o)
                                                  contiki-srf06-cc26xx.a(contikimac.o)
                                                  contiki-srf06-cc26xx.a(frame802154.o)
                                                  contiki-srf06-cc26xx.a(packetbuf.o)
                                                  contiki-srf06-cc26xx.a(nbr-table.o)
                                                  contiki-srf06-cc26xx.a(linkaddr.o)
                                                  contiki-srf06-cc26xx.a(rfc.o)
                                                  contiki-srf06-cc26xx.a(uip-udp-packet.)
                                                  contiki-srf06-cc26xx.a(uip-nameserver.)
                                                  contiki-srf06-cc26xx.a(tcp-socket.o)
                                                  contiki-srf06-cc26xx.a(resolv.o)
                                                  contiki-srf06-cc26xx.a(ip64-addr.o)
                                                  contiki-srf06-cc26xx.a(uip-nd6.o)
                                                  contiki-srf06-cc26xx.a(uip-icmp6.o)
                                                  contiki-srf06-cc26xx.a(uip-ds6-route.o)
                                                  contiki-srf06-cc26xx.a(uip-ds6-nbr.o)
                                                  contiki-srf06-cc26xx.a(uip-ds6.o)
                                                  contiki-srf06-cc26xx.a(uip6.o)
                                                  contiki-srf06-cc26xx.a(http-socket.o)
                                                  contiki-srf06-cc26xx.a(rf-ble.o)
                                                  contiki-srf06-cc26xx.a(prop-mode.o)
                                                  contiki-srf06-cc26xx.a(ext-flash.o)
                                                  contiki-srf06-cc26xx.a(board.o)
                                                  contiki-srf06-cc26xx.a(contiki-main.o)
                                                  slip-radio.co
memmove                                           /home/user/CodeSourcery/Sourcery_G++_Lite/bin/../lib/gcc/arm-none-eabi/4.3.2/../../../../arm-none-eabi/lib/thumb2/libc.a(lib_a-memmove.o)
                                                  contiki-srf06-cc26xx.a(uip-udp-packet.)
                                                  contiki-srf06-cc26xx.a(uiplib.o)
                                                  contiki-srf06-cc26xx.a(uip-icmp6.o)
                                                  contiki-srf06-cc26xx.a(uip6.o)
memset                                            /home/user/CodeSourcery/Sourcery_G++_Lite/bin/../lib/gcc/arm-none-eabi/4.3.2/../../../../arm-none-eabi/lib/thumb2/libc.a(lib_a-memset.o)
                                                  contiki-srf06-cc26xx.a(memb.o)
                                                  contiki-srf06-cc26xx.a(frame802154.o)
                                                  contiki-srf06-cc26xx.a(packetbuf.o)
                                                  contiki-srf06-cc26xx.a(nbr-table.o)
                                                  contiki-srf06-cc26xx.a(rfc.o)
                                                  contiki-srf06-cc26xx.a(uiplib.o)
                                                  contiki-srf06-cc26xx.a(resolv.o)
                                                  contiki-srf06-cc26xx.a(uip-nd6.o)
                                                  contiki-srf06-cc26xx.a(uip-ds6-route.o)
                                                  contiki-srf06-cc26xx.a(uip-ds6.o)
                                                  contiki-srf06-cc26xx.a(uip6.o)
                                                  contiki-srf06-cc26xx.a(http-socket.o)
                                                  contiki-srf06-cc26xx.a(rf-ble.o)
                                                  contiki-srf06-cc26xx.a(rf-core.o)
                                                  contiki-srf06-cc26xx.a(prop-mode.o)
nbr_routes                                        contiki-srf06-cc26xx.a(uip-ds6-route.o)
nbr_table_add_lladdr                              contiki-srf06-cc26xx.a(nbr-table.o)
                                                  contiki-srf06-cc26xx.a(link-stats.o)
                                                  contiki-srf06-cc26xx.a(uip-ds6-route.o)
                                                  contiki-srf06-cc26xx.a(uip-ds6-nbr.o)
nbr_table_get_from_lladdr                         contiki-srf06-cc26xx.a(nbr-table.o)
                                                  contiki-srf06-cc26xx.a(link-stats.o)
                                                  contiki-srf06-cc26xx.a(uip-ds6-route.o)
                                                  contiki-srf06-cc26xx.a(uip-ds6-nbr.o)
nbr_table_get_lladdr                              contiki-srf06-cc26xx.a(nbr-table.o)
                                                  contiki-srf06-cc26xx.a(uip-ds6-route.o)
                                                  contiki-srf06-cc26xx.a(uip-ds6-nbr.o)
nbr_table_head                                    contiki-srf06-cc26xx.a(nbr-table.o)
                                                  contiki-srf06-cc26xx.a(link-stats.o)
                                                  contiki-srf06-cc26xx.a(uip-ds6-nbr.o)
nbr_table_lock                                    contiki-srf06-cc26xx.a(nbr-table.o)
                                                  contiki-srf06-cc26xx.a(uip-ds6-route.o)
nbr_table_next                                    contiki-srf06-cc26xx.a(nbr-table.o)
                                                  contiki-srf06-cc26xx.a(link-stats.o)
                                                  contiki-srf06-cc26xx.a(uip-ds6-nbr.o)
nbr_table_register                                contiki-srf06-cc26xx.a(nbr-table.o)
                                                  contiki-srf06-cc26xx.a(link-stats.o)
                                                  contiki-srf06-cc26xx.a(uip-ds6-route.o)
                                                  contiki-srf06-cc26xx.a(uip-ds6-nbr.o)
nbr_table_remove                                  contiki-srf06-cc26xx.a(nbr-table.o)
                                                  contiki-srf06-cc26xx.a(uip-ds6-route.o)
                                                  contiki-srf06-cc26xx.a(uip-ds6-nbr.o)
nbr_table_unlock                                  contiki-srf06-cc26xx.a(nbr-table.o)
nbr_table_update_lladdr                           contiki-srf06-cc26xx.a(nbr-table.o)
                                                  contiki-srf06-cc26xx.a(uip-nd6.o)
netstack_init                                     contiki-srf06-cc26xx.a(netstack.o)
                                                  contiki-srf06-cc26xx.a(contiki-main.o)
no_framer                                         obj_srf06-cc26xx/no-framer.o
                                                  contiki-srf06-cc26xx.a(contikimac.o)
                                                  slip-radio.co
node_id                                           contiki-srf06-cc26xx.a(contiki-main.o)
nullmac_driver                                    contiki-srf06-cc26xx.a(nullmac.o)
                                                  contiki-srf06-cc26xx.a(nullsec.o)
                                                  contiki-srf06-cc26xx.a(contikimac.o)
                                                  contiki-srf06-cc26xx.a(netstack.o)
                                                  contiki-srf06-cc26xx.a(contiki-main.o)
nullsec_driver                                    contiki-srf06-cc26xx.a(nullsec.o)
                                                  contiki-srf06-cc26xx.a(nullmac.o)
                                                  contiki-srf06-cc26xx.a(netstack.o)
                                                  slip-radio.co
oscillators_request_hf_xosc                       contiki-srf06-cc26xx.a(oscillators.o)
                                                  contiki-srf06-cc26xx.a(rf-ble.o)
                                                  contiki-srf06-cc26xx.a(prop-mode.o)
oscillators_select_lf_rcosc                       contiki-srf06-cc26xx.a(oscillators.o)
                                                  contiki-srf06-cc26xx.a(lpm.o)
oscillators_select_lf_xosc                        contiki-srf06-cc26xx.a(oscillators.o)
                                                  contiki-srf06-cc26xx.a(contiki-main.o)
oscillators_switch_to_hf_rc                       contiki-srf06-cc26xx.a(oscillators.o)
                                                  contiki-srf06-cc26xx.a(rf-ble.o)
                                                  contiki-srf06-cc26xx.a(lpm.o)
                                                  contiki-srf06-cc26xx.a(prop-mode.o)
oscillators_switch_to_hf_xosc                     contiki-srf06-cc26xx.a(oscillators.o)
                                                  contiki-srf06-cc26xx.a(rf-ble.o)
                                                  contiki-srf06-cc26xx.a(prop-mode.o)
packet_ids                                        slip-radio.co
packet_pos                                        slip-radio.co
packetbuf_addr                                    contiki-srf06-cc26xx.a(packetbuf.o)
                                                  contiki-srf06-cc26xx.a(mac-sequence.o)
                                                  contiki-srf06-cc26xx.a(contikimac.o)
                                                  contiki-srf06-cc26xx.a(uip-ds6-nbr.o)
packetbuf_addrs                                   contiki-srf06-cc26xx.a(packetbuf.o)
packetbuf_attr                                    contiki-srf06-cc26xx.a(packetbuf.o)
                                                  contiki-srf06-cc26xx.a(mac-sequence.o)
                                                  contiki-srf06-cc26xx.a(contikimac.o)
                                                  contiki-srf06-cc26xx.a(link-stats.o)
                                                  contiki-srf06-cc26xx.a(packetutils.o)
packetbuf_attr_clear                              contiki-srf06-cc26xx.a(packetbuf.o)
packetbuf_attr_copyfrom                           contiki-srf06-cc26xx.a(packetbuf.o)
                                                  contiki-srf06-cc26xx.a(queuebuf.o)
packetbuf_attr_copyto                             contiki-srf06-cc26xx.a(packetbuf.o)
                                                  contiki-srf06-cc26xx.a(queuebuf.o)
packetbuf_attrs                                   contiki-srf06-cc26xx.a(packetbuf.o)
packetbuf_clear                                   contiki-srf06-cc26xx.a(packetbuf.o)
                                                  contiki-srf06-cc26xx.a(rf-core.o)
                                                  slip-radio.co
packetbuf_compact                                 contiki-srf06-cc26xx.a(packetbuf.o)
packetbuf_copyfrom                                contiki-srf06-cc26xx.a(packetbuf.o)
                                                  contiki-srf06-cc26xx.a(queuebuf.o)
packetbuf_copyto                                  contiki-srf06-cc26xx.a(packetbuf.o)
                                                  contiki-srf06-cc26xx.a(queuebuf.o)
                                                  obj_srf06-cc26xx/slip-net.o
packetbuf_datalen                                 contiki-srf06-cc26xx.a(packetbuf.o)
                                                  contiki-srf06-cc26xx.a(contikimac.o)
                                                  obj_srf06-cc26xx/no-framer.o
                                                  obj_srf06-cc26xx/slip-net.o
packetbuf_dataptr                                 contiki-srf06-cc26xx.a(packetbuf.o)
                                                  contiki-srf06-cc26xx.a(contikimac.o)
                                                  contiki-srf06-cc26xx.a(rf-core.o)
                                                  obj_srf06-cc26xx/no-framer.o
                                                  slip-radio.co
packetbuf_hdralloc                                contiki-srf06-cc26xx.a(packetbuf.o)
packetbuf_hdrlen                                  contiki-srf06-cc26xx.a(packetbuf.o)
packetbuf_hdrptr                                  contiki-srf06-cc26xx.a(packetbuf.o)
                                                  contiki-srf06-cc26xx.a(contikimac.o)
packetbuf_hdrreduce                               contiki-srf06-cc26xx.a(packetbuf.o)
packetbuf_holds_broadcast                         contiki-srf06-cc26xx.a(packetbuf.o)
                                                  contiki-srf06-cc26xx.a(contikimac.o)
packetbuf_remaininglen                            contiki-srf06-cc26xx.a(packetbuf.o)
packetbuf_set_addr                                contiki-srf06-cc26xx.a(packetbuf.o)
                                                  contiki-srf06-cc26xx.a(contikimac.o)
                                                  obj_srf06-cc26xx/no-framer.o
packetbuf_set_attr                                contiki-srf06-cc26xx.a(packetbuf.o)
                                                  contiki-srf06-cc26xx.a(nullsec.o)
                                                  contiki-srf06-cc26xx.a(contikimac.o)
                                                  contiki-srf06-cc26xx.a(prop-mode.o)
                                                  contiki-srf06-cc26xx.a(packetutils.o)
                                                  obj_srf06-cc26xx/no-framer.o
packetbuf_set_datalen                             contiki-srf06-cc26xx.a(packetbuf.o)
                                                  contiki-srf06-cc26xx.a(rf-core.o)
                                                  slip-radio.co
packetbuf_totlen                                  contiki-srf06-cc26xx.a(packetbuf.o)
                                                  contiki-srf06-cc26xx.a(contikimac.o)
packetutils_deserialize_atts                      contiki-srf06-cc26xx.a(packetutils.o)
                                                  slip-radio.co
packetutils_serialize_atts                        contiki-srf06-cc26xx.a(packetutils.o)
periodic_timer                                    contiki-srf06-cc26xx.a(link-stats.o)
printf                                            contiki-srf06-cc26xx.a(dbg-printf.o)
                                                  contiki-srf06-cc26xx.a(uip-debug.o)
                                                  contiki-srf06-cc26xx.a(http-socket.o)
                                                  contiki-srf06-cc26xx.a(contiki-main.o)
                                                  slip-radio.co
process_alloc_event                               contiki-srf06-cc26xx.a(process.o)
                                                  contiki-srf06-cc26xx.a(tcpip.o)
                                                  contiki-srf06-cc26xx.a(resolv.o)
                                                  contiki-srf06-cc26xx.a(serial-line.o)
                                                  contiki-srf06-cc26xx.a(soc-trng.o)
                                                  contiki-srf06-cc26xx.a(sensors.o)
process_current                                   contiki-srf06-cc26xx.a(process.o)
                                                  contiki-srf06-cc26xx.a(tcp-socket.o)
                                                  contiki-srf06-cc26xx.a(tcpip.o)
                                                  contiki-srf06-cc26xx.a(serial-line.o)
                                                  contiki-srf06-cc26xx.a(etimer.o)
                                                  contiki-srf06-cc26xx.a(ctimer.o)
                                                  contiki-srf06-cc26xx.a(http-socket.o)
process_exit                                      contiki-srf06-cc26xx.a(process.o)
                                                  contiki-srf06-cc26xx.a(resolv.o)
                                                  contiki-srf06-cc26xx.a(autostart.o)
                                                  contiki-srf06-cc26xx.a(rf-ble.o)
process_init                                      contiki-srf06-cc26xx.a(process.o)
                                                  contiki-srf06-cc26xx.a(contiki-main.o)
process_is_running                                contiki-srf06-cc26xx.a(process.o)
process_list                                      contiki-srf06-cc26xx.a(process.o)
process_nevents                                   contiki-srf06-cc26xx.a(process.o)
                                                  contiki-srf06-cc26xx.a(lpm.o)
process_poll                                      contiki-srf06-cc26xx.a(process.o)
                                                  contiki-srf06-cc26xx.a(serial-line.o)
                                                  contiki-srf06-cc26xx.a(etimer.o)
                                                  contiki-srf06-cc26xx.a(rf-core.o)
                                                  contiki-srf06-cc26xx.a(slip.o)
                                                  contiki-srf06-cc26xx.a(prop-mode.o)
                                                  contiki-srf06-cc26xx.a(sensors.o)
process_post                                      contiki-srf06-cc26xx.a(process.o)
                                                  contiki-srf06-cc26xx.a(tcpip.o)
                                                  contiki-srf06-cc26xx.a(resolv.o)
                                                  contiki-srf06-cc26xx.a(serial-line.o)
                                                  contiki-srf06-cc26xx.a(etimer.o)
                                                  contiki-srf06-cc26xx.a(soc-trng.o)
                                                  contiki-srf06-cc26xx.a(sensors.o)
process_post_synch                                contiki-srf06-cc26xx.a(process.o)
                                                  contiki-srf06-cc26xx.a(tcpip.o)
process_run                                       contiki-srf06-cc26xx.a(process.o)
                                                  contiki-srf06-cc26xx.a(contiki-main.o)
process_start                                     contiki-srf06-cc26xx.a(process.o)
                                                  contiki-srf06-cc26xx.a(tcp-socket.o)
                                                  contiki-srf06-cc26xx.a(resolv.o)
                                                  contiki-srf06-cc26xx.a(serial-line.o)
                                                  contiki-srf06-cc26xx.a(ctimer.o)
                                                  contiki-srf06-cc26xx.a(autostart.o)
                                                  contiki-srf06-cc26xx.a(http-socket.o)
                                                  contiki-srf06-cc26xx.a(soc-trng.o)
                                                  contiki-srf06-cc26xx.a(prop-mode.o)
                                                  contiki-srf06-cc26xx.a(contiki-main.o)
                                                  slip-radio.co
prop_mode_driver                                  contiki-srf06-cc26xx.a(prop-mode.o)
                                                  contiki-srf06-cc26xx.a(contikimac.o)
                                                  contiki-srf06-cc26xx.a(netstack.o)
                                                  contiki-srf06-cc26xx.a(rf-ble.o)
                                                  contiki-srf06-cc26xx.a(rf-core.o)
                                                  contiki-srf06-cc26xx.a(contiki-main.o)
prop_mode_tx_power_431_527                        contiki-srf06-cc26xx.a(prop-mode-tx-po)
prop_mode_tx_power_779_930                        contiki-srf06-cc26xx.a(prop-mode-tx-po)
                                                  contiki-srf06-cc26xx.a(prop-mode.o)
putchar                                           contiki-srf06-cc26xx.a(putchar.o)
                                                  contiki-srf06-cc26xx.a(uip-debug.o)
                                                  contiki-srf06-cc26xx.a(contiki-main.o)
puts                                              contiki-srf06-cc26xx.a(putchar.o)
                                                  contiki-srf06-cc26xx.a(http-socket.o)
                                                  contiki-srf06-cc26xx.a(rf-core.o)
                                                  contiki-srf06-cc26xx.a(contiki-main.o)
                                                  slip-radio.co
queuebuf_addr                                     contiki-srf06-cc26xx.a(queuebuf.o)
queuebuf_attr                                     contiki-srf06-cc26xx.a(queuebuf.o)
queuebuf_datalen                                  contiki-srf06-cc26xx.a(queuebuf.o)
queuebuf_dataptr                                  contiki-srf06-cc26xx.a(queuebuf.o)
queuebuf_debug_print                              contiki-srf06-cc26xx.a(queuebuf.o)
queuebuf_free                                     contiki-srf06-cc26xx.a(queuebuf.o)
queuebuf_init                                     contiki-srf06-cc26xx.a(queuebuf.o)
                                                  contiki-srf06-cc26xx.a(contiki-main.o)
queuebuf_new_from_packetbuf                       contiki-srf06-cc26xx.a(queuebuf.o)
queuebuf_numfree                                  contiki-srf06-cc26xx.a(queuebuf.o)
queuebuf_to_packetbuf                             contiki-srf06-cc26xx.a(queuebuf.o)
                                                  contiki-srf06-cc26xx.a(contikimac.o)
queuebuf_update_attr_from_packetbuf               contiki-srf06-cc26xx.a(queuebuf.o)
queuebuf_update_from_packetbuf                    contiki-srf06-cc26xx.a(queuebuf.o)
                                                  contiki-srf06-cc26xx.a(contikimac.o)
ra_input                                          contiki-srf06-cc26xx.a(uip-nd6.o)
random_init                                       contiki-srf06-cc26xx.a(random.o)
                                                  contiki-srf06-cc26xx.a(contiki-main.o)
random_rand                                       contiki-srf06-cc26xx.a(random.o)
                                                  contiki-srf06-cc26xx.a(resolv.o)
                                                  contiki-srf06-cc26xx.a(uip-ds6.o)
rat_offset                                        contiki-srf06-cc26xx.a(rf-core.o)
remove_ext_hdr                                    contiki-srf06-cc26xx.a(uip6.o)
resolv_event_found                                contiki-srf06-cc26xx.a(resolv.o)
                                                  contiki-srf06-cc26xx.a(http-socket.o)
resolv_get_hostname                               contiki-srf06-cc26xx.a(resolv.o)
resolv_lookup                                     contiki-srf06-cc26xx.a(resolv.o)
                                                  contiki-srf06-cc26xx.a(http-socket.o)
resolv_process                                    contiki-srf06-cc26xx.a(resolv.o)
resolv_query                                      contiki-srf06-cc26xx.a(resolv.o)
                                                  contiki-srf06-cc26xx.a(http-socket.o)
resolv_set_hostname                               contiki-srf06-cc26xx.a(resolv.o)
rf_ble_beacon_process                             contiki-srf06-cc26xx.a(rf-ble.o)
rf_ble_beacond_config                             contiki-srf06-cc26xx.a(rf-ble.o)
rf_ble_beacond_start                              contiki-srf06-cc26xx.a(rf-ble.o)
rf_ble_beacond_stop                               contiki-srf06-cc26xx.a(rf-ble.o)
rf_ble_is_active                                  contiki-srf06-cc26xx.a(rf-ble.o)
                                                  contiki-srf06-cc26xx.a(prop-mode.o)
rf_core_boot                                      contiki-srf06-cc26xx.a(rf-core.o)
                                                  contiki-srf06-cc26xx.a(rf-ble.o)
rf_core_cmd_done_dis                              contiki-srf06-cc26xx.a(rf-core.o)
                                                  contiki-srf06-cc26xx.a(prop-mode.o)
rf_core_cmd_done_en                               contiki-srf06-cc26xx.a(rf-core.o)
                                                  contiki-srf06-cc26xx.a(prop-mode.o)
rf_core_get_last_radio_op                         contiki-srf06-cc26xx.a(rf-core.o)
                                                  contiki-srf06-cc26xx.a(prop-mode.o)
rf_core_init_radio_op                             contiki-srf06-cc26xx.a(rf-core.o)
                                                  contiki-srf06-cc26xx.a(rf-ble.o)
rf_core_is_accessible                             contiki-srf06-cc26xx.a(rf-core.o)
                                                  contiki-srf06-cc26xx.a(rf-ble.o)
                                                  contiki-srf06-cc26xx.a(prop-mode.o)
rf_core_power_down                                contiki-srf06-cc26xx.a(rf-core.o)
                                                  contiki-srf06-cc26xx.a(rf-ble.o)
                                                  contiki-srf06-cc26xx.a(prop-mode.o)
rf_core_power_up                                  contiki-srf06-cc26xx.a(rf-core.o)
                                                  contiki-srf06-cc26xx.a(prop-mode.o)
rf_core_primary_mode_abort                        contiki-srf06-cc26xx.a(rf-core.o)
                                                  contiki-srf06-cc26xx.a(rf-ble.o)
rf_core_primary_mode_register                     contiki-srf06-cc26xx.a(rf-core.o)
                                                  contiki-srf06-cc26xx.a(prop-mode.o)
rf_core_primary_mode_restore                      contiki-srf06-cc26xx.a(rf-core.o)
                                                  contiki-srf06-cc26xx.a(rf-ble.o)
rf_core_process                                   contiki-srf06-cc26xx.a(rf-core.o)
                                                  contiki-srf06-cc26xx.a(prop-mode.o)
rf_core_restart_rat                               contiki-srf06-cc26xx.a(rf-core.o)
rf_core_send_cmd                                  contiki-srf06-cc26xx.a(rf-core.o)
                                                  contiki-srf06-cc26xx.a(rf-ble.o)
                                                  contiki-srf06-cc26xx.a(prop-mode.o)
rf_core_set_modesel                               contiki-srf06-cc26xx.a(rf-core.o)
                                                  contiki-srf06-cc26xx.a(prop-mode.o)
rf_core_setup_interrupts                          contiki-srf06-cc26xx.a(rf-core.o)
                                                  contiki-srf06-cc26xx.a(prop-mode.o)
rf_core_start_rat                                 contiki-srf06-cc26xx.a(rf-core.o)
                                                  contiki-srf06-cc26xx.a(prop-mode.o)
rf_core_stop_rat                                  contiki-srf06-cc26xx.a(rf-core.o)
rf_core_wait_cmd_done                             contiki-srf06-cc26xx.a(rf-core.o)
                                                  contiki-srf06-cc26xx.a(rf-ble.o)
                                                  contiki-srf06-cc26xx.a(prop-mode.o)
ringbuf_elements                                  contiki-srf06-cc26xx.a(ringbuf.o)
ringbuf_get                                       contiki-srf06-cc26xx.a(ringbuf.o)
                                                  contiki-srf06-cc26xx.a(serial-line.o)
ringbuf_init                                      contiki-srf06-cc26xx.a(ringbuf.o)
                                                  contiki-srf06-cc26xx.a(serial-line.o)
ringbuf_put                                       contiki-srf06-cc26xx.a(ringbuf.o)
                                                  contiki-srf06-cc26xx.a(serial-line.o)
ringbuf_size                                      contiki-srf06-cc26xx.a(ringbuf.o)
rtimer_arch_init                                  contiki-srf06-cc26xx.a(rtimer-arch.o)
                                                  contiki-srf06-cc26xx.a(rtimer.o)
rtimer_arch_now                                   contiki-srf06-cc26xx.a(rtimer-arch.o)
                                                  contiki-srf06-cc26xx.a(contikimac.o)
                                                  contiki-srf06-cc26xx.a(lpm.o)
                                                  contiki-srf06-cc26xx.a(soc-rtc.o)
                                                  contiki-srf06-cc26xx.a(prop-mode.o)
rtimer_arch_schedule                              contiki-srf06-cc26xx.a(rtimer-arch.o)
                                                  contiki-srf06-cc26xx.a(rtimer.o)
rtimer_init                                       contiki-srf06-cc26xx.a(rtimer.o)
                                                  contiki-srf06-cc26xx.a(contiki-main.o)
rtimer_run_next                                   contiki-srf06-cc26xx.a(rtimer.o)
                                                  contiki-srf06-cc26xx.a(soc-rtc.o)
rtimer_set                                        contiki-srf06-cc26xx.a(rtimer.o)
                                                  contiki-srf06-cc26xx.a(contikimac.o)
sensors                                           contiki-srf06-cc26xx.a(launchpad-senso)
                                                  contiki-srf06-cc26xx.a(sensors.o)
sensors_changed                                   contiki-srf06-cc26xx.a(sensors.o)
                                                  contiki-srf06-cc26xx.a(button-sensor.o)
sensors_event                                     contiki-srf06-cc26xx.a(sensors.o)
sensors_find                                      contiki-srf06-cc26xx.a(sensors.o)
sensors_first                                     contiki-srf06-cc26xx.a(sensors.o)
sensors_flags                                     contiki-srf06-cc26xx.a(launchpad-senso)
                                                  contiki-srf06-cc26xx.a(sensors.o)
sensors_next                                      contiki-srf06-cc26xx.a(sensors.o)
sensors_process                                   contiki-srf06-cc26xx.a(sensors.o)
                                                  contiki-srf06-cc26xx.a(contiki-main.o)
serial_line_event_message                         contiki-srf06-cc26xx.a(serial-line.o)
serial_line_init                                  contiki-srf06-cc26xx.a(serial-line.o)
                                                  contiki-srf06-cc26xx.a(contiki-main.o)
serial_line_input_byte                            contiki-srf06-cc26xx.a(serial-line.o)
serial_line_process                               contiki-srf06-cc26xx.a(serial-line.o)
slip_active                                       contiki-srf06-cc26xx.a(slip.o)
slip_arch_init                                    contiki-srf06-cc26xx.a(slip-arch.o)
                                                  slip-radio.co
slip_arch_writeb                                  contiki-srf06-cc26xx.a(slip-arch.o)
                                                  contiki-srf06-cc26xx.a(slip.o)
                                                  obj_srf06-cc26xx/slip-net.o
slip_input_byte                                   contiki-srf06-cc26xx.a(slip.o)
                                                  contiki-srf06-cc26xx.a(slip-arch.o)
slip_process                                      contiki-srf06-cc26xx.a(slip.o)
                                                  slip-radio.co
slip_radio_cmd_output                             slip-radio.co
                                                  contiki-srf06-cc26xx.a(cmd.o)
slip_radio_process                                slip-radio.co
slip_send                                         contiki-srf06-cc26xx.a(slip.o)
slip_send_packet                                  obj_srf06-cc26xx/slip-net.o
                                                  slip-radio.co
slip_set_input_callback                           contiki-srf06-cc26xx.a(slip.o)
                                                  slip-radio.co
slip_write                                        contiki-srf06-cc26xx.a(slip.o)
slipnet_driver                                    obj_srf06-cc26xx/slip-net.o
                                                  contiki-srf06-cc26xx.a(nullsec.o)
                                                  contiki-srf06-cc26xx.a(netstack.o)
                                                  contiki-srf06-cc26xx.a(contiki-main.o)
slipnet_init                                      obj_srf06-cc26xx/slip-net.o
slipnet_input                                     obj_srf06-cc26xx/slip-net.o
smartrf_settings_cmd_fs                           contiki-srf06-cc26xx.a(smartrf-setting)
                                                  contiki-srf06-cc26xx.a(prop-mode.o)
smartrf_settings_cmd_prop_radio_div_setup         contiki-srf06-cc26xx.a(smartrf-setting)
                                                  contiki-srf06-cc26xx.a(prop-mode.o)
smartrf_settings_cmd_prop_rx_adv                  contiki-srf06-cc26xx.a(smartrf-setting)
                                                  contiki-srf06-cc26xx.a(prop-mode.o)
smartrf_settings_cmd_prop_tx_adv                  contiki-srf06-cc26xx.a(smartrf-setting)
                                                  contiki-srf06-cc26xx.a(prop-mode.o)
soc_rtc_get_next_trigger                          contiki-srf06-cc26xx.a(soc-rtc.o)
soc_rtc_init                                      contiki-srf06-cc26xx.a(soc-rtc.o)
                                                  contiki-srf06-cc26xx.a(contiki-main.o)
soc_rtc_last_isr_time                             contiki-srf06-cc26xx.a(soc-rtc.o)
                                                  contiki-srf06-cc26xx.a(lpm.o)
soc_rtc_schedule_one_shot                         contiki-srf06-cc26xx.a(soc-rtc.o)
                                                  contiki-srf06-cc26xx.a(lpm.o)
                                                  contiki-srf06-cc26xx.a(rtimer-arch.o)
soc_trng_init                                     contiki-srf06-cc26xx.a(soc-trng.o)
                                                  contiki-srf06-cc26xx.a(random.o)
soc_trng_process                                  contiki-srf06-cc26xx.a(soc-trng.o)
soc_trng_rand_asynchronous                        contiki-srf06-cc26xx.a(soc-trng.o)
soc_trng_rand_synchronous                         contiki-srf06-cc26xx.a(soc-trng.o)
                                                  contiki-srf06-cc26xx.a(random.o)
sprintf                                           contiki-srf06-cc26xx.a(dbg-sprintf.o)
                                                  contiki-srf06-cc26xx.a(http-socket.o)
stimer_elapsed                                    contiki-srf06-cc26xx.a(stimer.o)
stimer_expired                                    contiki-srf06-cc26xx.a(stimer.o)
                                                  contiki-srf06-cc26xx.a(uip-ds6-route.o)
                                                  contiki-srf06-cc26xx.a(uip-ds6-nbr.o)
                                                  contiki-srf06-cc26xx.a(uip-ds6.o)
stimer_remaining                                  contiki-srf06-cc26xx.a(stimer.o)
                                                  contiki-srf06-cc26xx.a(uip-nd6.o)
                                                  contiki-srf06-cc26xx.a(uip-ds6-nbr.o)
stimer_reset                                      contiki-srf06-cc26xx.a(stimer.o)
stimer_restart                                    contiki-srf06-cc26xx.a(stimer.o)
stimer_set                                        contiki-srf06-cc26xx.a(stimer.o)
                                                  contiki-srf06-cc26xx.a(tcpip.o)
                                                  contiki-srf06-cc26xx.a(uip-nd6.o)
                                                  contiki-srf06-cc26xx.a(uip-ds6-route.o)
                                                  contiki-srf06-cc26xx.a(uip-ds6-nbr.o)
                                                  contiki-srf06-cc26xx.a(uip-ds6.o)
strcasecmp                                        /home/user/CodeSourcery/Sourcery_G++_Lite/bin/../lib/gcc/arm-none-eabi/4.3.2/../../../../arm-none-eabi/lib/thumb2/libc.a(lib_a-strcasecmp.o)
                                                  contiki-srf06-cc26xx.a(resolv.o)
strcmp                                            /home/user/CodeSourcery/Sourcery_G++_Lite/bin/../lib/gcc/arm-none-eabi/4.3.2/../../../../arm-none-eabi/lib/thumb2/libc.a(lib_a-strcmp.o)
                                                  contiki-srf06-cc26xx.a(resolv.o)
                                                  contiki-srf06-cc26xx.a(http-socket.o)
strlen                                            /home/user/CodeSourcery/Sourcery_G++_Lite/bin/../lib/gcc/arm-none-eabi/4.3.2/../../../../arm-none-eabi/lib/thumb2/libc.a(lib_a-strlen.o)
                                                  contiki-srf06-cc26xx.a(tcp-socket.o)
                                                  contiki-srf06-cc26xx.a(resolv.o)
                                                  contiki-srf06-cc26xx.a(rf-ble.o)
                                                  contiki-srf06-cc26xx.a(putchar.o)
                                                  contiki-srf06-cc26xx.a(sensors.o)
strncasecmp                                       /home/user/CodeSourcery/Sourcery_G++_Lite/bin/../lib/gcc/arm-none-eabi/4.3.2/../../../../arm-none-eabi/lib/thumb2/libc.a(lib_a-strncasecmp.o)
                                                  contiki-srf06-cc26xx.a(resolv.o)
strncat                                           /home/user/CodeSourcery/Sourcery_G++_Lite/bin/../lib/gcc/arm-none-eabi/4.3.2/../../../../arm-none-eabi/lib/thumb2/libc.a(lib_a-strncat.o)
                                                  contiki-srf06-cc26xx.a(resolv.o)
strncmp                                           /home/user/CodeSourcery/Sourcery_G++_Lite/bin/../lib/gcc/arm-none-eabi/4.3.2/../../../../arm-none-eabi/lib/thumb2/libc.a(lib_a-strncmp.o)
                                                  contiki-srf06-cc26xx.a(http-socket.o)
                                                  contiki-srf06-cc26xx.a(sensors.o)
strncpy                                           /home/user/CodeSourcery/Sourcery_G++_Lite/bin/../lib/gcc/arm-none-eabi/4.3.2/../../../../arm-none-eabi/lib/thumb2/libc.a(lib_a-strncpy.o)
                                                  contiki-srf06-cc26xx.a(resolv.o)
                                                  contiki-srf06-cc26xx.a(http-socket.o)
tcp_attach                                        contiki-srf06-cc26xx.a(tcpip.o)
                                                  contiki-srf06-cc26xx.a(tcp-socket.o)
tcp_connect                                       contiki-srf06-cc26xx.a(tcpip.o)
                                                  contiki-srf06-cc26xx.a(tcp-socket.o)
tcp_listen                                        contiki-srf06-cc26xx.a(tcpip.o)
                                                  contiki-srf06-cc26xx.a(tcp-socket.o)
tcp_socket_close                                  contiki-srf06-cc26xx.a(tcp-socket.o)
                                                  contiki-srf06-cc26xx.a(http-socket.o)
tcp_socket_connect                                contiki-srf06-cc26xx.a(tcp-socket.o)
                                                  contiki-srf06-cc26xx.a(http-socket.o)
tcp_socket_listen                                 contiki-srf06-cc26xx.a(tcp-socket.o)
tcp_socket_max_sendlen                            contiki-srf06-cc26xx.a(tcp-socket.o)
tcp_socket_process                                contiki-srf06-cc26xx.a(tcp-socket.o)
tcp_socket_queuelen                               contiki-srf06-cc26xx.a(tcp-socket.o)
tcp_socket_register                               contiki-srf06-cc26xx.a(tcp-socket.o)
                                                  contiki-srf06-cc26xx.a(http-socket.o)
tcp_socket_send                                   contiki-srf06-cc26xx.a(tcp-socket.o)
                                                  contiki-srf06-cc26xx.a(http-socket.o)
tcp_socket_send_str                               contiki-srf06-cc26xx.a(tcp-socket.o)
                                                  contiki-srf06-cc26xx.a(http-socket.o)
tcp_socket_unlisten                               contiki-srf06-cc26xx.a(tcp-socket.o)
tcp_socket_unregister                             contiki-srf06-cc26xx.a(tcp-socket.o)
tcp_unlisten                                      contiki-srf06-cc26xx.a(tcpip.o)
                                                  contiki-srf06-cc26xx.a(tcp-socket.o)
tcpip_event                                       contiki-srf06-cc26xx.a(tcp-socket.o)
                                                  contiki-srf06-cc26xx.a(tcpip.o)
                                                  contiki-srf06-cc26xx.a(resolv.o)
tcpip_icmp6_call                                  contiki-srf06-cc26xx.a(tcpip.o)
                                                  contiki-srf06-cc26xx.a(uip6.o)
tcpip_icmp6_event                                 contiki-srf06-cc26xx.a(tcpip.o)
tcpip_input                                       contiki-srf06-cc26xx.a(tcpip.o)
                                                  contiki-srf06-cc26xx.a(slip.o)
tcpip_ipv6_output                                 contiki-srf06-cc26xx.a(tcpip.o)
                                                  contiki-srf06-cc26xx.a(uip-udp-packet.)
                                                  contiki-srf06-cc26xx.a(uip-icmp6.o)
tcpip_output                                      contiki-srf06-cc26xx.a(tcpip.o)
tcpip_poll_tcp                                    contiki-srf06-cc26xx.a(tcpip.o)
                                                  contiki-srf06-cc26xx.a(tcp-socket.o)
tcpip_poll_udp                                    contiki-srf06-cc26xx.a(tcpip.o)
                                                  contiki-srf06-cc26xx.a(resolv.o)
tcpip_process                                     contiki-srf06-cc26xx.a(tcpip.o)
                                                  contiki-srf06-cc26xx.a(contiki-main.o)
tcpip_set_outputfunc                              contiki-srf06-cc26xx.a(tcpip.o)
tcpip_uipcall                                     contiki-srf06-cc26xx.a(tcpip.o)
                                                  contiki-srf06-cc26xx.a(uip6.o)
timer_expired                                     contiki-srf06-cc26xx.a(timer.o)
                                                  contiki-srf06-cc26xx.a(etimer.o)
                                                  contiki-srf06-cc26xx.a(button-sensor.o)
timer_remaining                                   contiki-srf06-cc26xx.a(timer.o)
timer_reset                                       contiki-srf06-cc26xx.a(timer.o)
                                                  contiki-srf06-cc26xx.a(etimer.o)
timer_restart                                     contiki-srf06-cc26xx.a(timer.o)
                                                  contiki-srf06-cc26xx.a(etimer.o)
timer_set                                         contiki-srf06-cc26xx.a(timer.o)
                                                  contiki-srf06-cc26xx.a(etimer.o)
                                                  contiki-srf06-cc26xx.a(button-sensor.o)
tx_power_current                                  contiki-srf06-cc26xx.a(prop-mode.o)
uDMAErrIntHandler                                 obj_srf06-cc26xx/startup_gcc.o
uDMAIntHandler                                    obj_srf06-cc26xx/startup_gcc.o
udp_attach                                        contiki-srf06-cc26xx.a(tcpip.o)
udp_broadcast_new                                 contiki-srf06-cc26xx.a(tcpip.o)
udp_new                                           contiki-srf06-cc26xx.a(tcpip.o)
                                                  contiki-srf06-cc26xx.a(resolv.o)
uip_acc32                                         contiki-srf06-cc26xx.a(uip6.o)
uip_add32                                         contiki-srf06-cc26xx.a(uip6.o)
uip_aligned_buf                                   contiki-srf06-cc26xx.a(uip-udp-packet.)
                                                  contiki-srf06-cc26xx.a(tcpip.o)
                                                  contiki-srf06-cc26xx.a(resolv.o)
                                                  contiki-srf06-cc26xx.a(uip-nd6.o)
                                                  contiki-srf06-cc26xx.a(uip-icmp6.o)
                                                  contiki-srf06-cc26xx.a(uip6.o)
                                                  contiki-srf06-cc26xx.a(slip.o)
                                                  obj_srf06-cc26xx/slip-net.o
                                                  slip-radio.co
uip_appdata                                       contiki-srf06-cc26xx.a(tcp-socket.o)
                                                  contiki-srf06-cc26xx.a(resolv.o)
                                                  contiki-srf06-cc26xx.a(uip6.o)
uip_chksum                                        contiki-srf06-cc26xx.a(uip6.o)
uip_conn                                          contiki-srf06-cc26xx.a(tcp-socket.o)
                                                  contiki-srf06-cc26xx.a(tcpip.o)
                                                  contiki-srf06-cc26xx.a(uip6.o)
uip_connect                                       contiki-srf06-cc26xx.a(uip6.o)
                                                  contiki-srf06-cc26xx.a(tcpip.o)
uip_conns                                         contiki-srf06-cc26xx.a(tcpip.o)
                                                  contiki-srf06-cc26xx.a(uip6.o)
uip_debug_ipaddr_print                            contiki-srf06-cc26xx.a(uip-debug.o)
                                                  contiki-srf06-cc26xx.a(uip-ds6-route.o)
uip_ds6_aaddr_add                                 contiki-srf06-cc26xx.a(uip-ds6.o)
uip_ds6_aaddr_lookup                              contiki-srf06-cc26xx.a(uip-ds6.o)
uip_ds6_aaddr_rm                                  contiki-srf06-cc26xx.a(uip-ds6.o)
uip_ds6_addr_add                                  contiki-srf06-cc26xx.a(uip-ds6.o)
                                                  contiki-srf06-cc26xx.a(uip-nd6.o)
uip_ds6_addr_lookup                               contiki-srf06-cc26xx.a(uip-ds6.o)
                                                  contiki-srf06-cc26xx.a(tcpip.o)
                                                  contiki-srf06-cc26xx.a(resolv.o)
                                                  contiki-srf06-cc26xx.a(uip-nd6.o)
                                                  contiki-srf06-cc26xx.a(uip6.o)
uip_ds6_addr_rm                                   contiki-srf06-cc26xx.a(uip-ds6.o)
uip_ds6_addr_size                                 contiki-srf06-cc26xx.a(uip-ds6.o)
uip_ds6_compute_reachable_time                    contiki-srf06-cc26xx.a(uip-ds6.o)
                                                  contiki-srf06-cc26xx.a(uip-nd6.o)
uip_ds6_defrt_add                                 contiki-srf06-cc26xx.a(uip-ds6-route.o)
                                                  contiki-srf06-cc26xx.a(uip-nd6.o)
uip_ds6_defrt_choose                              contiki-srf06-cc26xx.a(uip-ds6-route.o)
                                                  contiki-srf06-cc26xx.a(tcpip.o)
                                                  contiki-srf06-cc26xx.a(uip-ds6.o)
uip_ds6_defrt_head                                contiki-srf06-cc26xx.a(uip-ds6-route.o)
uip_ds6_defrt_lookup                              contiki-srf06-cc26xx.a(uip-ds6-route.o)
                                                  contiki-srf06-cc26xx.a(uip-nd6.o)
                                                  contiki-srf06-cc26xx.a(uip-ds6-nbr.o)
uip_ds6_defrt_periodic                            contiki-srf06-cc26xx.a(uip-ds6-route.o)
                                                  contiki-srf06-cc26xx.a(uip-ds6.o)
uip_ds6_defrt_rm                                  contiki-srf06-cc26xx.a(uip-ds6-route.o)
                                                  contiki-srf06-cc26xx.a(uip-nd6.o)
                                                  contiki-srf06-cc26xx.a(uip-ds6-nbr.o)
uip_ds6_get_global                                contiki-srf06-cc26xx.a(uip-ds6.o)
uip_ds6_get_least_lifetime_neighbor               contiki-srf06-cc26xx.a(uip-ds6-nbr.o)
uip_ds6_get_link_local                            contiki-srf06-cc26xx.a(uip-ds6.o)
uip_ds6_if                                        contiki-srf06-cc26xx.a(tcpip.o)
                                                  contiki-srf06-cc26xx.a(resolv.o)
                                                  contiki-srf06-cc26xx.a(uip-nd6.o)
                                                  contiki-srf06-cc26xx.a(uip-icmp6.o)
                                                  contiki-srf06-cc26xx.a(uip-ds6-nbr.o)
                                                  contiki-srf06-cc26xx.a(uip-ds6.o)
                                                  contiki-srf06-cc26xx.a(uip6.o)
uip_ds6_init                                      contiki-srf06-cc26xx.a(uip-ds6.o)
                                                  contiki-srf06-cc26xx.a(uip6.o)
uip_ds6_is_addr_onlink                            contiki-srf06-cc26xx.a(uip-ds6.o)
                                                  contiki-srf06-cc26xx.a(tcpip.o)
uip_ds6_link_neighbor_callback                    contiki-srf06-cc26xx.a(uip-ds6-nbr.o)
uip_ds6_list_loop                                 contiki-srf06-cc26xx.a(uip-ds6.o)
uip_ds6_maddr_add                                 contiki-srf06-cc26xx.a(uip-ds6.o)
                                                  contiki-srf06-cc26xx.a(resolv.o)
uip_ds6_maddr_lookup                              contiki-srf06-cc26xx.a(uip-ds6.o)
                                                  contiki-srf06-cc26xx.a(uip6.o)
uip_ds6_maddr_rm                                  contiki-srf06-cc26xx.a(uip-ds6.o)
uip_ds6_nbr_add                                   contiki-srf06-cc26xx.a(uip-ds6-nbr.o)
                                                  contiki-srf06-cc26xx.a(tcpip.o)
                                                  contiki-srf06-cc26xx.a(uip-nd6.o)
uip_ds6_nbr_get_ipaddr                            contiki-srf06-cc26xx.a(uip-ds6-nbr.o)
uip_ds6_nbr_get_ll                                contiki-srf06-cc26xx.a(uip-ds6-nbr.o)
                                                  contiki-srf06-cc26xx.a(tcpip.o)
                                                  contiki-srf06-cc26xx.a(uip-nd6.o)
uip_ds6_nbr_ipaddr_from_lladdr                    contiki-srf06-cc26xx.a(uip-ds6-nbr.o)
                                                  contiki-srf06-cc26xx.a(uip-ds6-route.o)
uip_ds6_nbr_ll_lookup                             contiki-srf06-cc26xx.a(uip-ds6-nbr.o)
uip_ds6_nbr_lladdr_from_ipaddr                    contiki-srf06-cc26xx.a(uip-ds6-nbr.o)
                                                  contiki-srf06-cc26xx.a(uip-ds6-route.o)
uip_ds6_nbr_lookup                                contiki-srf06-cc26xx.a(uip-ds6-nbr.o)
                                                  contiki-srf06-cc26xx.a(tcpip.o)
                                                  contiki-srf06-cc26xx.a(uip-nd6.o)
                                                  contiki-srf06-cc26xx.a(uip-ds6-route.o)
uip_ds6_nbr_num                                   contiki-srf06-cc26xx.a(uip-ds6-nbr.o)
uip_ds6_nbr_refresh_reachable_state               contiki-srf06-cc26xx.a(uip-ds6-nbr.o)
                                                  contiki-srf06-cc26xx.a(uip6.o)
uip_ds6_nbr_rm                                    contiki-srf06-cc26xx.a(uip-ds6-nbr.o)
uip_ds6_neighbor_periodic                         contiki-srf06-cc26xx.a(uip-ds6-nbr.o)
                                                  contiki-srf06-cc26xx.a(uip-ds6.o)
uip_ds6_neighbors_init                            contiki-srf06-cc26xx.a(uip-ds6-nbr.o)
                                                  contiki-srf06-cc26xx.a(uip-ds6.o)
uip_ds6_netif_addr_list_offset                    contiki-srf06-cc26xx.a(uip-ds6.o)
uip_ds6_notification_add                          contiki-srf06-cc26xx.a(uip-ds6-route.o)
uip_ds6_notification_rm                           contiki-srf06-cc26xx.a(uip-ds6-route.o)
uip_ds6_periodic                                  contiki-srf06-cc26xx.a(uip-ds6.o)
                                                  contiki-srf06-cc26xx.a(tcpip.o)
uip_ds6_prefix_add                                contiki-srf06-cc26xx.a(uip-ds6.o)
                                                  contiki-srf06-cc26xx.a(uip-nd6.o)
uip_ds6_prefix_list                               contiki-srf06-cc26xx.a(uip-ds6.o)
uip_ds6_prefix_lookup                             contiki-srf06-cc26xx.a(uip-ds6.o)
                                                  contiki-srf06-cc26xx.a(uip-nd6.o)
uip_ds6_prefix_rm                                 contiki-srf06-cc26xx.a(uip-ds6.o)
                                                  contiki-srf06-cc26xx.a(uip-nd6.o)
uip_ds6_route_add                                 contiki-srf06-cc26xx.a(uip-ds6-route.o)
uip_ds6_route_head                                contiki-srf06-cc26xx.a(uip-ds6-route.o)
uip_ds6_route_init                                contiki-srf06-cc26xx.a(uip-ds6-route.o)
                                                  contiki-srf06-cc26xx.a(uip-ds6.o)
uip_ds6_route_is_nexthop                          contiki-srf06-cc26xx.a(uip-ds6-route.o)
uip_ds6_route_lookup                              contiki-srf06-cc26xx.a(uip-ds6-route.o)
                                                  contiki-srf06-cc26xx.a(tcpip.o)
uip_ds6_route_next                                contiki-srf06-cc26xx.a(uip-ds6-route.o)
uip_ds6_route_nexthop                             contiki-srf06-cc26xx.a(uip-ds6-route.o)
                                                  contiki-srf06-cc26xx.a(tcpip.o)
uip_ds6_route_num_routes                          contiki-srf06-cc26xx.a(uip-ds6-route.o)
uip_ds6_route_rm                                  contiki-srf06-cc26xx.a(uip-ds6-route.o)
                                                  contiki-srf06-cc26xx.a(tcpip.o)
uip_ds6_route_rm_by_nexthop                       contiki-srf06-cc26xx.a(uip-ds6-route.o)
uip_ds6_select_src                                contiki-srf06-cc26xx.a(uip-ds6.o)
                                                  contiki-srf06-cc26xx.a(uip-nd6.o)
                                                  contiki-srf06-cc26xx.a(uip-icmp6.o)
                                                  contiki-srf06-cc26xx.a(uip6.o)
uip_ds6_send_rs                                   contiki-srf06-cc26xx.a(uip-ds6.o)
                                                  contiki-srf06-cc26xx.a(tcpip.o)
uip_ds6_set_addr_iid                              contiki-srf06-cc26xx.a(uip-ds6.o)
                                                  contiki-srf06-cc26xx.a(uip-nd6.o)
uip_ds6_timer_periodic                            contiki-srf06-cc26xx.a(tcpip.o)
                                                  contiki-srf06-cc26xx.a(uip-ds6.o)
uip_ds6_timer_rs                                  contiki-srf06-cc26xx.a(tcpip.o)
                                                  contiki-srf06-cc26xx.a(uip-ds6.o)
uip_ext_bitmap                                    contiki-srf06-cc26xx.a(uip6.o)
uip_ext_len                                       contiki-srf06-cc26xx.a(uip6.o)
                                                  contiki-srf06-cc26xx.a(tcpip.o)
                                                  contiki-srf06-cc26xx.a(uip-nd6.o)
                                                  contiki-srf06-cc26xx.a(uip-icmp6.o)
                                                  slip-radio.co
uip_ext_opt_offset                                contiki-srf06-cc26xx.a(uip6.o)
uip_flags                                         contiki-srf06-cc26xx.a(tcp-socket.o)
                                                  contiki-srf06-cc26xx.a(tcpip.o)
                                                  contiki-srf06-cc26xx.a(resolv.o)
                                                  contiki-srf06-cc26xx.a(uip6.o)
uip_htonl                                         contiki-srf06-cc26xx.a(uip6.o)
                                                  contiki-srf06-cc26xx.a(uip-nd6.o)
                                                  contiki-srf06-cc26xx.a(uip-icmp6.o)
uip_htons                                         contiki-srf06-cc26xx.a(uip6.o)
                                                  contiki-srf06-cc26xx.a(tcp-socket.o)
                                                  contiki-srf06-cc26xx.a(resolv.o)
                                                  contiki-srf06-cc26xx.a(uip-nd6.o)
uip_icmp6_conns                                   contiki-srf06-cc26xx.a(tcpip.o)
                                                  contiki-srf06-cc26xx.a(uip6.o)
uip_icmp6_echo_reply_callback_add                 contiki-srf06-cc26xx.a(uip-icmp6.o)
uip_icmp6_echo_reply_callback_rm                  contiki-srf06-cc26xx.a(uip-icmp6.o)
uip_icmp6_error_output                            contiki-srf06-cc26xx.a(uip-icmp6.o)
                                                  contiki-srf06-cc26xx.a(uip6.o)
uip_icmp6_init                                    contiki-srf06-cc26xx.a(uip-icmp6.o)
                                                  contiki-srf06-cc26xx.a(uip6.o)
uip_icmp6_input                                   contiki-srf06-cc26xx.a(uip-icmp6.o)
                                                  contiki-srf06-cc26xx.a(uip6.o)
uip_icmp6_register_input_handler                  contiki-srf06-cc26xx.a(uip-icmp6.o)
                                                  contiki-srf06-cc26xx.a(uip-nd6.o)
uip_icmp6_send                                    contiki-srf06-cc26xx.a(uip-icmp6.o)
uip_icmp6chksum                                   contiki-srf06-cc26xx.a(uip6.o)
                                                  contiki-srf06-cc26xx.a(uip-nd6.o)
                                                  contiki-srf06-cc26xx.a(uip-icmp6.o)
uip_init                                          contiki-srf06-cc26xx.a(uip6.o)
                                                  contiki-srf06-cc26xx.a(tcpip.o)
uip_ipchksum                                      contiki-srf06-cc26xx.a(uip6.o)
uip_len                                           contiki-srf06-cc26xx.a(tcp-socket.o)
                                                  contiki-srf06-cc26xx.a(tcpip.o)
                                                  contiki-srf06-cc26xx.a(uip-nd6.o)
                                                  contiki-srf06-cc26xx.a(uip-icmp6.o)
                                                  contiki-srf06-cc26xx.a(uip-ds6-nbr.o)
                                                  contiki-srf06-cc26xx.a(uip6.o)
                                                  contiki-srf06-cc26xx.a(slip.o)
                                                  obj_srf06-cc26xx/slip-net.o
                                                  slip-radio.co
uip_listen                                        contiki-srf06-cc26xx.a(uip6.o)
                                                  contiki-srf06-cc26xx.a(tcpip.o)
uip_listenports                                   contiki-srf06-cc26xx.a(uip6.o)
uip_lladdr                                        contiki-srf06-cc26xx.a(resolv.o)
                                                  contiki-srf06-cc26xx.a(uip-nd6.o)
                                                  contiki-srf06-cc26xx.a(uip-ds6.o)
                                                  contiki-srf06-cc26xx.a(uip6.o)
                                                  contiki-srf06-cc26xx.a(contiki-main.o)
                                                  slip-radio.co
uip_nameserver_count                              contiki-srf06-cc26xx.a(uip-nameserver.)
uip_nameserver_get                                contiki-srf06-cc26xx.a(uip-nameserver.)
                                                  contiki-srf06-cc26xx.a(resolv.o)
uip_nameserver_next_expiration                    contiki-srf06-cc26xx.a(uip-nameserver.)
uip_nameserver_update                             contiki-srf06-cc26xx.a(uip-nameserver.)
                                                  slip-radio.co
uip_nd6_init                                      contiki-srf06-cc26xx.a(uip-nd6.o)
                                                  contiki-srf06-cc26xx.a(uip6.o)
uip_nd6_ns_output                                 contiki-srf06-cc26xx.a(uip-nd6.o)
                                                  contiki-srf06-cc26xx.a(tcpip.o)
                                                  contiki-srf06-cc26xx.a(uip-ds6-nbr.o)
uip_nd6_rs_output                                 contiki-srf06-cc26xx.a(uip-nd6.o)
                                                  contiki-srf06-cc26xx.a(uip-ds6.o)
uip_next_hdr                                      contiki-srf06-cc26xx.a(uip6.o)
uip_process                                       contiki-srf06-cc26xx.a(uip6.o)
                                                  contiki-srf06-cc26xx.a(uip-udp-packet.)
                                                  contiki-srf06-cc26xx.a(tcpip.o)
uip_sappdata                                      contiki-srf06-cc26xx.a(uip6.o)
uip_send                                          contiki-srf06-cc26xx.a(uip6.o)
                                                  contiki-srf06-cc26xx.a(tcp-socket.o)
uip_slen                                          contiki-srf06-cc26xx.a(uip-udp-packet.)
                                                  contiki-srf06-cc26xx.a(uip6.o)
uip_tcpchksum                                     contiki-srf06-cc26xx.a(uip6.o)
uip_udp_conn                                      contiki-srf06-cc26xx.a(uip-udp-packet.)
                                                  contiki-srf06-cc26xx.a(tcpip.o)
                                                  contiki-srf06-cc26xx.a(resolv.o)
                                                  contiki-srf06-cc26xx.a(uip6.o)
uip_udp_conns                                     contiki-srf06-cc26xx.a(tcpip.o)
                                                  contiki-srf06-cc26xx.a(uip6.o)
uip_udp_new                                       contiki-srf06-cc26xx.a(uip6.o)
                                                  contiki-srf06-cc26xx.a(tcpip.o)
uip_udp_packet_send                               contiki-srf06-cc26xx.a(uip-udp-packet.)
uip_udp_packet_sendto                             contiki-srf06-cc26xx.a(uip-udp-packet.)
                                                  contiki-srf06-cc26xx.a(resolv.o)
uip_udpchksum                                     contiki-srf06-cc26xx.a(uip6.o)
uip_unlisten                                      contiki-srf06-cc26xx.a(uip6.o)
                                                  contiki-srf06-cc26xx.a(tcpip.o)
uiplib_ip4addrconv                                contiki-srf06-cc26xx.a(uiplib.o)
                                                  contiki-srf06-cc26xx.a(http-socket.o)
uiplib_ip6addrconv                                contiki-srf06-cc26xx.a(uiplib.o)
                                                  contiki-srf06-cc26xx.a(http-socket.o)
watchdog_init                                     contiki-srf06-cc26xx.a(contiki-watchdo)
                                                  contiki-srf06-cc26xx.a(contiki-main.o)
watchdog_periodic                                 contiki-srf06-cc26xx.a(contiki-watchdo)
                                                  contiki-srf06-cc26xx.a(contikimac.o)
                                                  contiki-srf06-cc26xx.a(rf-core.o)
                                                  contiki-srf06-cc26xx.a(lpm.o)
                                                  contiki-srf06-cc26xx.a(prop-mode.o)
                                                  contiki-srf06-cc26xx.a(contiki-main.o)
watchdog_reboot                                   contiki-srf06-cc26xx.a(contiki-watchdo)
watchdog_start                                    contiki-srf06-cc26xx.a(contiki-watchdo)
                                                  contiki-srf06-cc26xx.a(contiki-main.o)
watchdog_stop                                     contiki-srf06-cc26xx.a(contiki-watchdo)
